ARM GAS  C:\DOCUME~1\ZAQUAD~1\USTAWI~1\Temp/ccn3ptW3.s 			page 1


   1              		.file	"croutine.c"
   2              	@ GNU C (GCC) version 4.3.3 (arm-elf)
   3              	@	compiled by GNU C version 3.4.5 (mingw special), GMP version 4.2.2, MPFR version 2.3.1.
   4              	@ GGC heuristics: --param ggc-min-expand=100 --param ggc-min-heapsize=131072
   5              	@ options passed:  -I . -IINC/ -IINC/RTOS/ -imultilib interwork -iprefix
   6              	@ d:\programy\mikrokontrolery\arm\yagarto\bin\../lib/gcc/arm-elf/4.3.3/ -MD
   7              	@ SRC/RTOS/croutine.d -MF .dep/croutine.o.d -MP -MQ SRC/RTOS/croutine.o
   8              	@ -D__USES_INITFINI__ SRC/RTOS/croutine.c -mcpu=arm7tdmi -mthumb-interwork
   9              	@ -auxbase-strip SRC/RTOS/croutine.o -gdwarf-2 -O0 -Wall
  10              	@ -Wstrict-prototypes -fomit-frame-pointer -fverbose-asm
  11              	@ options enabled:  -falign-loops -fargument-alias -fauto-inc-dec
  12              	@ -fbranch-count-reg -fcommon -fearly-inlining
  13              	@ -feliminate-unused-debug-types -ffunction-cse -fgcse-lm -fident -fivopts
  14              	@ -fkeep-static-consts -fleading-underscore -fmath-errno
  15              	@ -fmerge-debug-strings -fmove-loop-invariants -fomit-frame-pointer
  16              	@ -fpeephole -freg-struct-return -fsched-interblock -fsched-spec
  17              	@ -fsched-stalled-insns-dep -fsigned-zeros -fsplit-ivs-in-unroller
  18              	@ -ftoplevel-reorder -ftrapping-math -ftree-cselim -ftree-loop-im
  19              	@ -ftree-loop-ivcanon -ftree-loop-optimize -ftree-parallelize-loops=
  20              	@ -ftree-reassoc -ftree-scev-cprop -ftree-vect-loop-version -fverbose-asm
  21              	@ -fzero-initialized-in-bss -mlittle-endian -msched-prolog
  22              	@ -mthumb-interwork
  23              	
  30 0000 E8000000 		.text
  30      02005A00 
  30      00000201 
  30      FB0E0D00 
  30      01010101 
  31              	.Ltext0:
  32              	@ Compiler executable checksum: aefe8b2555dadc8858779d7450a1d1fb
  33              	
  34              		.global	pxCurrentCoRoutine
  35              		.bss
  36              		.align	2
  37              		.type	pxCurrentCoRoutine, %object
  38              		.size	pxCurrentCoRoutine, 4
  39              	pxCurrentCoRoutine:
  40 0000 00000000 		.space	4
  41              		.align	2
  42              	uxTopCoRoutineReadyPriority:
  43 0004 00000000 		.space	4
  44              		.align	2
  45              	xCoRoutineTickCount:
  46 0008 00000000 		.space	4
  47              		.align	2
  48              	xLastTickCount:
  49 000c 00000000 		.space	4
  50              		.align	2
  51              	xPassedTicks:
  52 0010 00000000 		.space	4
  53              		.text
ARM GAS  C:\DOCUME~1\ZAQUAD~1\USTAWI~1\Temp/ccn3ptW3.s 			page 2


  54              		.align	2
  55              		.global	xCoRoutineCreate
  56              		.type	xCoRoutineCreate, %function
  57              	xCoRoutineCreate:
  58              	.LFB2:
  59              		.file 1 "SRC/RTOS/croutine.c"
   1:SRC/RTOS/croutine.c **** /*
   2:SRC/RTOS/croutine.c ****     FreeRTOS V6.0.2 - Copyright (C) 2010 Real Time Engineers Ltd.
   3:SRC/RTOS/croutine.c **** 
   4:SRC/RTOS/croutine.c ****     ***************************************************************************
   5:SRC/RTOS/croutine.c ****     *                                                                         *
   6:SRC/RTOS/croutine.c ****     * If you are:                                                             *
   7:SRC/RTOS/croutine.c ****     *                                                                         *
   8:SRC/RTOS/croutine.c ****     *    + New to FreeRTOS,                                                   *
   9:SRC/RTOS/croutine.c ****     *    + Wanting to learn FreeRTOS or multitasking in general quickly       *
  10:SRC/RTOS/croutine.c ****     *    + Looking for basic training,                                        *
  11:SRC/RTOS/croutine.c ****     *    + Wanting to improve your FreeRTOS skills and productivity           *
  12:SRC/RTOS/croutine.c ****     *                                                                         *
  13:SRC/RTOS/croutine.c ****     * then take a look at the FreeRTOS eBook                                  *
  14:SRC/RTOS/croutine.c ****     *                                                                         *
  15:SRC/RTOS/croutine.c ****     *        "Using the FreeRTOS Real Time Kernel - a Practical Guide"        *
  16:SRC/RTOS/croutine.c ****     *                  http://www.FreeRTOS.org/Documentation                  *
  17:SRC/RTOS/croutine.c ****     *                                                                         *
  18:SRC/RTOS/croutine.c ****     * A pdf reference manual is also available.  Both are usually delivered   *
  19:SRC/RTOS/croutine.c ****     * to your inbox within 20 minutes to two hours when purchased between 8am *
  20:SRC/RTOS/croutine.c ****     * and 8pm GMT (although please allow up to 24 hours in case of            *
  21:SRC/RTOS/croutine.c ****     * exceptional circumstances).  Thank you for your support!                *
  22:SRC/RTOS/croutine.c ****     *                                                                         *
  23:SRC/RTOS/croutine.c ****     ***************************************************************************
  24:SRC/RTOS/croutine.c **** 
  25:SRC/RTOS/croutine.c ****     This file is part of the FreeRTOS distribution.
  26:SRC/RTOS/croutine.c **** 
  27:SRC/RTOS/croutine.c ****     FreeRTOS is free software; you can redistribute it and/or modify it under
  28:SRC/RTOS/croutine.c ****     the terms of the GNU General Public License (version 2) as published by the
  29:SRC/RTOS/croutine.c ****     Free Software Foundation AND MODIFIED BY the FreeRTOS exception.
  30:SRC/RTOS/croutine.c ****     ***NOTE*** The exception to the GPL is included to allow you to distribute
  31:SRC/RTOS/croutine.c ****     a combined work that includes FreeRTOS without being obliged to provide the
  32:SRC/RTOS/croutine.c ****     source code for proprietary components outside of the FreeRTOS kernel.
  33:SRC/RTOS/croutine.c ****     FreeRTOS is distributed in the hope that it will be useful, but WITHOUT
  34:SRC/RTOS/croutine.c ****     ANY WARRANTY; without even the implied warranty of MERCHANTABILITY or
  35:SRC/RTOS/croutine.c ****     FITNESS FOR A PARTICULAR PURPOSE.  See the GNU General Public License for
  36:SRC/RTOS/croutine.c ****     more details. You should have received a copy of the GNU General Public 
  37:SRC/RTOS/croutine.c ****     License and the FreeRTOS license exception along with FreeRTOS; if not it 
  38:SRC/RTOS/croutine.c ****     can be viewed here: http://www.freertos.org/a00114.html and also obtained 
  39:SRC/RTOS/croutine.c ****     by writing to Richard Barry, contact details for whom are available on the
  40:SRC/RTOS/croutine.c ****     FreeRTOS WEB site.
  41:SRC/RTOS/croutine.c **** 
  42:SRC/RTOS/croutine.c ****     1 tab == 4 spaces!
  43:SRC/RTOS/croutine.c **** 
  44:SRC/RTOS/croutine.c ****     http://www.FreeRTOS.org - Documentation, latest information, license and
  45:SRC/RTOS/croutine.c ****     contact details.
  46:SRC/RTOS/croutine.c **** 
  47:SRC/RTOS/croutine.c ****     http://www.SafeRTOS.com - A version that is certified for use in safety
  48:SRC/RTOS/croutine.c ****     critical systems.
  49:SRC/RTOS/croutine.c **** 
  50:SRC/RTOS/croutine.c ****     http://www.OpenRTOS.com - Commercial support, development, porting,
  51:SRC/RTOS/croutine.c ****     licensing and training services.
ARM GAS  C:\DOCUME~1\ZAQUAD~1\USTAWI~1\Temp/ccn3ptW3.s 			page 3


  52:SRC/RTOS/croutine.c **** */
  53:SRC/RTOS/croutine.c **** 
  54:SRC/RTOS/croutine.c **** #include "FreeRTOS.h"
  55:SRC/RTOS/croutine.c **** #include "task.h"
  56:SRC/RTOS/croutine.c **** #include "croutine.h"
  57:SRC/RTOS/croutine.c **** 
  58:SRC/RTOS/croutine.c **** /*
  59:SRC/RTOS/croutine.c ****  * Some kernel aware debuggers require data to be viewed to be global, rather
  60:SRC/RTOS/croutine.c ****  * than file scope.
  61:SRC/RTOS/croutine.c ****  */
  62:SRC/RTOS/croutine.c **** #ifdef portREMOVE_STATIC_QUALIFIER
  63:SRC/RTOS/croutine.c **** 	#define static
  64:SRC/RTOS/croutine.c **** #endif
  65:SRC/RTOS/croutine.c **** 
  66:SRC/RTOS/croutine.c **** 
  67:SRC/RTOS/croutine.c **** /* Lists for ready and blocked co-routines. --------------------*/
  68:SRC/RTOS/croutine.c **** static xList pxReadyCoRoutineLists[ configMAX_CO_ROUTINE_PRIORITIES ];	/*< Prioritised ready co-rou
  69:SRC/RTOS/croutine.c **** static xList xDelayedCoRoutineList1;									/*< Delayed co-routines. */
  70:SRC/RTOS/croutine.c **** static xList xDelayedCoRoutineList2;									/*< Delayed co-routines (two lists are used - one for 
  71:SRC/RTOS/croutine.c **** static xList * pxDelayedCoRoutineList;									/*< Points to the delayed co-routine list currently 
  72:SRC/RTOS/croutine.c **** static xList * pxOverflowDelayedCoRoutineList;							/*< Points to the delayed co-routine list curr
  73:SRC/RTOS/croutine.c **** static xList xPendingReadyCoRoutineList;											/*< Holds co-routines that have been readied by 
  74:SRC/RTOS/croutine.c **** 
  75:SRC/RTOS/croutine.c **** /* Other file private variables. --------------------------------*/
  76:SRC/RTOS/croutine.c **** corCRCB * pxCurrentCoRoutine = NULL;
  77:SRC/RTOS/croutine.c **** static unsigned portBASE_TYPE uxTopCoRoutineReadyPriority = 0;
  78:SRC/RTOS/croutine.c **** static portTickType xCoRoutineTickCount = 0, xLastTickCount = 0, xPassedTicks = 0;
  79:SRC/RTOS/croutine.c **** 
  80:SRC/RTOS/croutine.c **** /* The initial state of the co-routine when it is created. */
  81:SRC/RTOS/croutine.c **** #define corINITIAL_STATE	( 0 )
  82:SRC/RTOS/croutine.c **** 
  83:SRC/RTOS/croutine.c **** /*
  84:SRC/RTOS/croutine.c ****  * Place the co-routine represented by pxCRCB into the appropriate ready queue
  85:SRC/RTOS/croutine.c ****  * for the priority.  It is inserted at the end of the list.
  86:SRC/RTOS/croutine.c ****  *
  87:SRC/RTOS/croutine.c ****  * This macro accesses the co-routine ready lists and therefore must not be
  88:SRC/RTOS/croutine.c ****  * used from within an ISR.
  89:SRC/RTOS/croutine.c ****  */
  90:SRC/RTOS/croutine.c **** #define prvAddCoRoutineToReadyQueue( pxCRCB )																		\
  91:SRC/RTOS/croutine.c **** {																													\
  92:SRC/RTOS/croutine.c **** 	if( pxCRCB->uxPriority > uxTopCoRoutineReadyPriority )															\
  93:SRC/RTOS/croutine.c **** 	{																												\
  94:SRC/RTOS/croutine.c **** 		uxTopCoRoutineReadyPriority = pxCRCB->uxPriority;															\
  95:SRC/RTOS/croutine.c **** 	}																												\
  96:SRC/RTOS/croutine.c **** 	vListInsertEnd( ( xList * ) &( pxReadyCoRoutineLists[ pxCRCB->uxPriority ] ), &( pxCRCB->xGenericL
  97:SRC/RTOS/croutine.c **** }	
  98:SRC/RTOS/croutine.c **** 
  99:SRC/RTOS/croutine.c **** /*
 100:SRC/RTOS/croutine.c ****  * Utility to ready all the lists used by the scheduler.  This is called
 101:SRC/RTOS/croutine.c ****  * automatically upon the creation of the first co-routine.
 102:SRC/RTOS/croutine.c ****  */
 103:SRC/RTOS/croutine.c **** static void prvInitialiseCoRoutineLists( void );
 104:SRC/RTOS/croutine.c **** 
 105:SRC/RTOS/croutine.c **** /*
 106:SRC/RTOS/croutine.c ****  * Co-routines that are readied by an interrupt cannot be placed directly into
 107:SRC/RTOS/croutine.c ****  * the ready lists (there is no mutual exclusion).  Instead they are placed in
 108:SRC/RTOS/croutine.c ****  * in the pending ready list in order that they can later be moved to the ready
ARM GAS  C:\DOCUME~1\ZAQUAD~1\USTAWI~1\Temp/ccn3ptW3.s 			page 4


 109:SRC/RTOS/croutine.c ****  * list by the co-routine scheduler.
 110:SRC/RTOS/croutine.c ****  */
 111:SRC/RTOS/croutine.c **** static void prvCheckPendingReadyList( void );
 112:SRC/RTOS/croutine.c **** 
 113:SRC/RTOS/croutine.c **** /*
 114:SRC/RTOS/croutine.c ****  * Macro that looks at the list of co-routines that are currently delayed to
 115:SRC/RTOS/croutine.c ****  * see if any require waking.
 116:SRC/RTOS/croutine.c ****  *
 117:SRC/RTOS/croutine.c ****  * Co-routines are stored in the queue in the order of their wake time -
 118:SRC/RTOS/croutine.c ****  * meaning once one co-routine has been found whose timer has not expired
 119:SRC/RTOS/croutine.c ****  * we need not look any further down the list.
 120:SRC/RTOS/croutine.c ****  */
 121:SRC/RTOS/croutine.c **** static void prvCheckDelayedList( void );
 122:SRC/RTOS/croutine.c **** 
 123:SRC/RTOS/croutine.c **** /*-----------------------------------------------------------*/
 124:SRC/RTOS/croutine.c **** 
 125:SRC/RTOS/croutine.c **** signed portBASE_TYPE xCoRoutineCreate( crCOROUTINE_CODE pxCoRoutineCode, unsigned portBASE_TYPE uxP
 126:SRC/RTOS/croutine.c **** {
  60              	0, pretend = 0, frame = 20
  61              		@ frame_needed = 0, uses_anonymous_args = 0
  62              		str	lr, [sp, #-4]!	@,
  63              	.LCFI0:
  64 0000 04E02DE5 		sub	sp, sp, #20	@,,
  65              	.LCFI1:
  66 0004 14D04DE2 		str	r0, [sp, #8]	@ pxCoRoutineCode, pxCoRoutineCode
  67              		str	r1, [sp, #4]	@ uxPriority, uxPriority
  68 0008 08008DE5 		str	r2, [sp, #0]	@ uxIndex, uxIndex
  69 000c 04108DE5 		.loc 1 131 0
  70 0010 00208DE5 		mov	r0, #56	@,
 127:SRC/RTOS/croutine.c **** signed portBASE_TYPE xReturn;
 128:SRC/RTOS/croutine.c **** corCRCB *pxCoRoutine;
 129:SRC/RTOS/croutine.c **** 
 130:SRC/RTOS/croutine.c **** 	/* Allocate the memory that will store the co-routine control block. */
 131:SRC/RTOS/croutine.c **** 	pxCoRoutine = ( corCRCB * ) pvPortMalloc( sizeof( corCRCB ) );
  71              	alloc	@
  72 0014 3800A0E3 		mov	r3, r0	@ D.2963,
  73 0018 FEFFFFEB 		str	r3, [sp, #16]	@ D.2963, pxCoRoutine
  74 001c 0030A0E1 		.loc 1 132 0
  75 0020 10308DE5 		ldr	r3, [sp, #16]	@ tmp147, pxCoRoutine
 132:SRC/RTOS/croutine.c **** 	if( pxCoRoutine )
  76              	r3, #0	@ tmp147,
  77 0024 10309DE5 		beq	.L2	@,
  78 0028 000053E3 		.loc 1 136 0
  79 002c 4300000A 		ldr	r3, .L8	@ tmp148,
 133:SRC/RTOS/croutine.c **** 	{
 134:SRC/RTOS/croutine.c **** 		/* If pxCurrentCoRoutine is NULL then this is the first co-routine to
 135:SRC/RTOS/croutine.c **** 		be created and the co-routine data structures need initialising. */
 136:SRC/RTOS/croutine.c **** 		if( pxCurrentCoRoutine == NULL )
  80              		r3, [r3, #0]	@ pxCurrentCoRoutine.0, pxCurrentCoRoutine
  81 0030 24319FE5 		cmp	r3, #0	@ pxCurrentCoRoutine.0,
  82 0034 003093E5 		bne	.L3	@,
  83 0038 000053E3 		.loc 1 138 0
  84 003c 0300001A 		ldr	r2, .L8	@ tmp149,
 137:SRC/RTOS/croutine.c **** 		{
 138:SRC/RTOS/croutine.c **** 			pxCurrentCoRoutine = pxCoRoutine;
  85              	r3, [sp, #16]	@ tmp150, pxCoRoutine
  86 0040 14219FE5 		str	r3, [r2, #0]	@ tmp150, pxCurrentCoRoutine
ARM GAS  C:\DOCUME~1\ZAQUAD~1\USTAWI~1\Temp/ccn3ptW3.s 			page 5


  87 0044 10309DE5 		.loc 1 139 0
  88 0048 003082E5 		bl	prvInitialiseCoRoutineLists	@
 139:SRC/RTOS/croutine.c **** 			prvInitialiseCoRoutineLists();
  89              	
  90 004c 800100EB 		.loc 1 143 0
  91              		ldr	r3, [sp, #4]	@ tmp151, uxPriority
 140:SRC/RTOS/croutine.c **** 		}
 141:SRC/RTOS/croutine.c **** 
 142:SRC/RTOS/croutine.c **** 		/* Check the priority is within limits. */
 143:SRC/RTOS/croutine.c **** 		if( uxPriority >= configMAX_CO_ROUTINE_PRIORITIES )
  92              	mp	r3, #1	@ tmp151,
  93 0050 04309DE5 		bls	.L4	@,
  94 0054 010053E3 		.loc 1 145 0
  95 0058 0100009A 		mov	r3, #1	@ tmp152,
 144:SRC/RTOS/croutine.c **** 		{
 145:SRC/RTOS/croutine.c **** 			uxPriority = configMAX_CO_ROUTINE_PRIORITIES - 1;
  96              		r3, [sp, #4]	@ tmp152, uxPriority
  97 005c 0130A0E3 	.L4:
  98 0060 04308DE5 		.loc 1 149 0
  99              		ldr	r2, [sp, #16]	@ tmp153, pxCoRoutine
 146:SRC/RTOS/croutine.c **** 		}
 147:SRC/RTOS/croutine.c **** 
 148:SRC/RTOS/croutine.c **** 		/* Fill out the co-routine control block from the function parameters. */
 149:SRC/RTOS/croutine.c **** 		pxCoRoutine->uxState = corINITIAL_STATE;
 100              		r3, #0	@ tmp155,
 101 0064 10209DE5 		strh	r3, [r2, #52]	@ movhi	@ tmp154, <variable>.uxState
 102 0068 0030A0E3 		.loc 1 150 0
 103 006c B433C2E1 		ldr	r2, [sp, #16]	@ tmp156, pxCoRoutine
 150:SRC/RTOS/croutine.c **** 		pxCoRoutine->uxPriority = uxPriority;
 104              		r3, [sp, #4]	@ tmp157, uxPriority
 105 0070 10209DE5 		str	r3, [r2, #44]	@ tmp157, <variable>.uxPriority
 106 0074 04309DE5 		.loc 1 151 0
 107 0078 2C3082E5 		ldr	r2, [sp, #16]	@ tmp158, pxCoRoutine
 151:SRC/RTOS/croutine.c **** 		pxCoRoutine->uxIndex = uxIndex;
 108              		r3, [sp, #0]	@ tmp159, uxIndex
 109 007c 10209DE5 		str	r3, [r2, #48]	@ tmp159, <variable>.uxIndex
 110 0080 00309DE5 		.loc 1 152 0
 111 0084 303082E5 		ldr	r2, [sp, #16]	@ tmp160, pxCoRoutine
 152:SRC/RTOS/croutine.c **** 		pxCoRoutine->pxCoRoutineFunction = pxCoRoutineCode;
 112              		r3, [sp, #8]	@ tmp161, pxCoRoutineCode
 113 0088 10209DE5 		str	r3, [r2, #0]	@ tmp161, <variable>.pxCoRoutineFunction
 114 008c 08309DE5 		.loc 1 155 0
 115 0090 003082E5 		ldr	r3, [sp, #16]	@ tmp162, pxCoRoutine
 153:SRC/RTOS/croutine.c **** 
 154:SRC/RTOS/croutine.c **** 		/* Initialise all the other co-routine control block parameters. */
 155:SRC/RTOS/croutine.c **** 		vListInitialiseItem( &( pxCoRoutine->xGenericListItem ) );
 116              		r3, r3, #4	@ D.2965, tmp162,
 117 0094 10309DE5 		mov	r0, r3	@, D.2965
 118 0098 043083E2 		bl	vListInitialiseItem	@
 119 009c 0300A0E1 		.loc 1 156 0
 120 00a0 FEFFFFEB 		ldr	r3, [sp, #16]	@ tmp163, pxCoRoutine
 156:SRC/RTOS/croutine.c **** 		vListInitialiseItem( &( pxCoRoutine->xEventListItem ) );
 121              	r3, r3, #24	@ D.2966, tmp163,
 122 00a4 10309DE5 		mov	r0, r3	@, D.2966
 123 00a8 183083E2 		bl	vListInitialiseItem	@
 124 00ac 0300A0E1 		.loc 1 161 0
 125 00b0 FEFFFFEB 		ldr	r2, [sp, #16]	@ tmp164, pxCoRoutine
ARM GAS  C:\DOCUME~1\ZAQUAD~1\USTAWI~1\Temp/ccn3ptW3.s 			page 6


 157:SRC/RTOS/croutine.c **** 
 158:SRC/RTOS/croutine.c **** 		/* Set the co-routine control block as a link back from the xListItem.
 159:SRC/RTOS/croutine.c **** 		This is so we can get back to the containing CRCB from a generic item
 160:SRC/RTOS/croutine.c **** 		in a list. */
 161:SRC/RTOS/croutine.c **** 		listSET_LIST_ITEM_OWNER( &( pxCoRoutine->xGenericListItem ), pxCoRoutine );
 126              	r3, [sp, #16]	@ tmp165, pxCoRoutine
 127 00b4 10209DE5 		str	r3, [r2, #16]	@ tmp165, <variable>.xGenericListItem.pvOwner
 128 00b8 10309DE5 		.loc 1 162 0
 129 00bc 103082E5 		ldr	r2, [sp, #16]	@ tmp166, pxCoRoutine
 162:SRC/RTOS/croutine.c **** 		listSET_LIST_ITEM_OWNER( &( pxCoRoutine->xEventListItem ), pxCoRoutine );
 130              		r3, [sp, #16]	@ tmp167, pxCoRoutine
 131 00c0 10209DE5 		str	r3, [r2, #36]	@ tmp167, <variable>.xEventListItem.pvOwner
 132 00c4 10309DE5 		.loc 1 165 0
 133 00c8 243082E5 		ldr	r3, [sp, #4]	@ tmp168, uxPriority
 163:SRC/RTOS/croutine.c **** 	
 164:SRC/RTOS/croutine.c **** 		/* Event lists are always in priority order. */
 165:SRC/RTOS/croutine.c **** 		listSET_LIST_ITEM_VALUE( &( pxCoRoutine->xEventListItem ), configMAX_PRIORITIES - ( portTickType 
 134              		r2, r3, #4	@ D.2967, tmp168,
 135 00cc 04309DE5 		ldr	r3, [sp, #16]	@ tmp169, pxCoRoutine
 136 00d0 042063E2 		str	r2, [r3, #24]	@ D.2967, <variable>.xEventListItem.xItemValue
 137 00d4 10309DE5 		.loc 1 169 0
 138 00d8 182083E5 		ldr	r3, [sp, #16]	@ tmp170, pxCoRoutine
 166:SRC/RTOS/croutine.c **** 		
 167:SRC/RTOS/croutine.c **** 		/* Now the co-routine has been initialised it can be added to the ready
 168:SRC/RTOS/croutine.c **** 		list at the correct priority. */
 169:SRC/RTOS/croutine.c **** 		prvAddCoRoutineToReadyQueue( pxCoRoutine );
 139              	r2, [r3, #44]	@ D.2968, <variable>.uxPriority
 140 00dc 10309DE5 		ldr	r3, .L8+4	@ tmp171,
 141 00e0 2C2093E5 		ldr	r3, [r3, #0]	@ uxTopCoRoutineReadyPriority.1, uxTopCoRoutineReadyPriority
 142 00e4 74309FE5 		cmp	r2, r3	@ D.2968, uxTopCoRoutineReadyPriority.1
 143 00e8 003093E5 		bls	.L5	@,
 144 00ec 030052E1 		ldr	r3, [sp, #16]	@ tmp172, pxCoRoutine
 145 00f0 0300009A 		ldr	r2, [r3, #44]	@ uxTopCoRoutineReadyPriority.2, <variable>.uxPriority
 146 00f4 10309DE5 		ldr	r3, .L8+4	@ tmp173,
 147 00f8 2C2093E5 		str	r2, [r3, #0]	@ uxTopCoRoutineReadyPriority.2, uxTopCoRoutineReadyPriority
 148 00fc 5C309FE5 	.L5:
 149 0100 002083E5 		ldr	r3, [sp, #16]	@ tmp174, pxCoRoutine
 150              		ldr	r3, [r3, #44]	@ D.2971, <variable>.uxPriority
 151 0104 10309DE5 		mov	r2, r3, asl #2	@ tmp176, tmp175,
 152 0108 2C3093E5 		mov	r3, r2, asl #2	@ tmp177, tmp176,
 153 010c 0321A0E1 		add	r2, r2, r3	@ D.2972, tmp176, tmp177
 154 0110 0231A0E1 		ldr	r3, .L8+8	@ tmp178,
 155 0114 032082E0 		add	r2, r2, r3	@ D.2973, D.2972, tmp178
 156 0118 44309FE5 		ldr	r3, [sp, #16]	@ tmp179, pxCoRoutine
 157 011c 032082E0 		add	r3, r3, #4	@ D.2974, tmp179,
 158 0120 10309DE5 		mov	r0, r2	@, D.2973
 159 0124 043083E2 		mov	r1, r3	@, D.2974
 160 0128 0200A0E1 		bl	vListInsertEnd	@
 161 012c 0310A0E1 		.loc 1 171 0
 162 0130 FEFFFFEB 		mov	r3, #1	@ tmp180,
 170:SRC/RTOS/croutine.c **** 
 171:SRC/RTOS/croutine.c **** 		xReturn = pdPASS;
 163              	180, xReturn
 164 0134 0130A0E3 		b	.L6	@
 165 0138 0C308DE5 	.L2:
 166 013c 010000EA 		.loc 1 175 0
 167              		mvn	r3, #0	@ tmp181,
ARM GAS  C:\DOCUME~1\ZAQUAD~1\USTAWI~1\Temp/ccn3ptW3.s 			page 7


 172:SRC/RTOS/croutine.c **** 	}
 173:SRC/RTOS/croutine.c **** 	else
 174:SRC/RTOS/croutine.c **** 	{		
 175:SRC/RTOS/croutine.c **** 		xReturn = errCOULD_NOT_ALLOCATE_REQUIRED_MEMORY;
 168              	r3, [sp, #12]	@ tmp181, xReturn
 169 0140 0030E0E3 	.L6:
 170 0144 0C308DE5 		.loc 1 178 0
 171              		ldr	r3, [sp, #12]	@ D.2975, xReturn
 176:SRC/RTOS/croutine.c **** 	}
 177:SRC/RTOS/croutine.c **** 	
 178:SRC/RTOS/croutine.c **** 	return xReturn;	
 172              	c 1 179 0
 173 0148 0C309DE5 		mov	r0, r3	@, <result>
 179:SRC/RTOS/croutine.c **** }
 174              	dd	sp, sp, #20	@,,
 175 014c 0300A0E1 		ldr	lr, [sp], #4
 176 0150 14D08DE2 		bx	lr
 177 0154 04E09DE4 	.L9:
 178 0158 1EFF2FE1 		.align	2
 179              	.L8:
 180              		.word	pxCurrentCoRoutine
 181              		.word	uxTopCoRoutineReadyPriority
 182 015c 00000000 		.word	pxReadyCoRoutineLists
 183 0160 04000000 	.LFE2:
 184 0164 14000000 		.size	xCoRoutineCreate, .-xCoRoutineCreate
 185              		.align	2
 186              		.global	vCoRoutineAddToDelayedList
 187              		.type	vCoRoutineAddToDelayedList, %function
 188              	vCoRoutineAddToDelayedList:
 189              	.LFB3:
 190              		.loc 1 183 0
 191              		@ Function supports interworking.
 180:SRC/RTOS/croutine.c **** /*-----------------------------------------------------------*/
 181:SRC/RTOS/croutine.c **** 
 182:SRC/RTOS/croutine.c **** void vCoRoutineAddToDelayedList( portTickType xTicksToDelay, xList *pxEventList )
 183:SRC/RTOS/croutine.c **** {
 192              	nd = 0, frame = 12
 193              		@ frame_needed = 0, uses_anonymous_args = 0
 194              		str	lr, [sp, #-4]!	@,
 195              	.LCFI2:
 196 0168 04E02DE5 		sub	sp, sp, #12	@,,
 197              	.LCFI3:
 198 016c 0CD04DE2 		str	r0, [sp, #4]	@ xTicksToDelay, xTicksToDelay
 199              		str	r1, [sp, #0]	@ pxEventList, pxEventList
 200 0170 04008DE5 		.loc 1 188 0
 201 0174 00108DE5 		ldr	r3, .L15	@ tmp146,
 184:SRC/RTOS/croutine.c **** portTickType xTimeToWake;
 185:SRC/RTOS/croutine.c **** 
 186:SRC/RTOS/croutine.c **** 	/* Calculate the time to wake - this may overflow but this is
 187:SRC/RTOS/croutine.c **** 	not a problem. */
 188:SRC/RTOS/croutine.c **** 	xTimeToWake = xCoRoutineTickCount + xTicksToDelay;
 202              	r3, #0]	@ xCoRoutineTickCount.3, xCoRoutineTickCount
 203 0178 B8309FE5 		ldr	r3, [sp, #4]	@ tmp147, xTicksToDelay
 204 017c 002093E5 		add	r3, r2, r3	@ tmp148, xCoRoutineTickCount.3, tmp147
 205 0180 04309DE5 		str	r3, [sp, #8]	@ tmp148, xTimeToWake
 206 0184 033082E0 		.loc 1 193 0
 207 0188 08308DE5 		ldr	r3, .L15+4	@ tmp149,
ARM GAS  C:\DOCUME~1\ZAQUAD~1\USTAWI~1\Temp/ccn3ptW3.s 			page 8


 189:SRC/RTOS/croutine.c **** 
 190:SRC/RTOS/croutine.c **** 	/* We must remove ourselves from the ready list before adding
 191:SRC/RTOS/croutine.c **** 	ourselves to the blocked list as the same list item is used for
 192:SRC/RTOS/croutine.c **** 	both lists. */
 193:SRC/RTOS/croutine.c **** 	vListRemove( ( xListItem * ) &( pxCurrentCoRoutine->xGenericListItem ) );
 208              	3, [r3, #0]	@ pxCurrentCoRoutine.4, pxCurrentCoRoutine
 209 018c A8309FE5 		add	r3, r3, #4	@ D.2993, pxCurrentCoRoutine.4,
 210 0190 003093E5 		mov	r0, r3	@, D.2993
 211 0194 043083E2 		bl	vListRemove	@
 212 0198 0300A0E1 		.loc 1 196 0
 213 019c FEFFFFEB 		ldr	r3, .L15+4	@ tmp150,
 194:SRC/RTOS/croutine.c **** 
 195:SRC/RTOS/croutine.c **** 	/* The list item will be inserted in wake time order. */
 196:SRC/RTOS/croutine.c **** 	listSET_LIST_ITEM_VALUE( &( pxCurrentCoRoutine->xGenericListItem ), xTimeToWake );
 214              	2, [r3, #0]	@ pxCurrentCoRoutine.5, pxCurrentCoRoutine
 215 01a0 94309FE5 		ldr	r3, [sp, #8]	@ tmp151, xTimeToWake
 216 01a4 002093E5 		str	r3, [r2, #4]	@ tmp151, <variable>.xGenericListItem.xItemValue
 217 01a8 08309DE5 		.loc 1 198 0
 218 01ac 043082E5 		ldr	r3, .L15	@ tmp152,
 197:SRC/RTOS/croutine.c **** 
 198:SRC/RTOS/croutine.c **** 	if( xTimeToWake < xCoRoutineTickCount )
 219              	r2, [r3, #0]	@ xCoRoutineTickCount.6, xCoRoutineTickCount
 220 01b0 80309FE5 		ldr	r3, [sp, #8]	@ tmp153, xTimeToWake
 221 01b4 002093E5 		cmp	r3, r2	@ tmp153, xCoRoutineTickCount.6
 222 01b8 08309DE5 		bcs	.L11	@,
 223 01bc 020053E1 		.loc 1 202 0
 224 01c0 0800002A 		ldr	r3, .L15+8	@ tmp154,
 199:SRC/RTOS/croutine.c **** 	{
 200:SRC/RTOS/croutine.c **** 		/* Wake time has overflowed.  Place this item in the
 201:SRC/RTOS/croutine.c **** 		overflow list. */
 202:SRC/RTOS/croutine.c **** 		vListInsert( ( xList * ) pxOverflowDelayedCoRoutineList, ( xListItem * ) &( pxCurrentCoRoutine->x
 225              	2, [r3, #0]	@ pxOverflowDelayedCoRoutineList.7, pxOverflowDelayedCoRoutineList
 226 01c4 74309FE5 		ldr	r3, .L15+4	@ tmp155,
 227 01c8 002093E5 		ldr	r3, [r3, #0]	@ pxCurrentCoRoutine.8, pxCurrentCoRoutine
 228 01cc 68309FE5 		add	r3, r3, #4	@ D.2998, pxCurrentCoRoutine.8,
 229 01d0 003093E5 		mov	r0, r2	@, pxOverflowDelayedCoRoutineList.7
 230 01d4 043083E2 		mov	r1, r3	@, D.2998
 231 01d8 0200A0E1 		bl	vListInsert	@
 232 01dc 0310A0E1 		b	.L12	@
 233 01e0 FEFFFFEB 	.L11:
 234 01e4 070000EA 		.loc 1 208 0
 235              		ldr	r3, .L15+12	@ tmp156,
 203:SRC/RTOS/croutine.c **** 	}
 204:SRC/RTOS/croutine.c **** 	else
 205:SRC/RTOS/croutine.c **** 	{
 206:SRC/RTOS/croutine.c **** 		/* The wake time has not overflowed, so we can use the
 207:SRC/RTOS/croutine.c **** 		current block list. */
 208:SRC/RTOS/croutine.c **** 		vListInsert( ( xList * ) pxDelayedCoRoutineList, ( xListItem * ) &( pxCurrentCoRoutine->xGenericL
 236              	3, #0]	@ pxDelayedCoRoutineList.9, pxDelayedCoRoutineList
 237 01e8 54309FE5 		ldr	r3, .L15+4	@ tmp157,
 238 01ec 002093E5 		ldr	r3, [r3, #0]	@ pxCurrentCoRoutine.10, pxCurrentCoRoutine
 239 01f0 44309FE5 		add	r3, r3, #4	@ D.3001, pxCurrentCoRoutine.10,
 240 01f4 003093E5 		mov	r0, r2	@, pxDelayedCoRoutineList.9
 241 01f8 043083E2 		mov	r1, r3	@, D.3001
 242 01fc 0200A0E1 		bl	vListInsert	@
 243 0200 0310A0E1 	.L12:
 244 0204 FEFFFFEB 		.loc 1 211 0
ARM GAS  C:\DOCUME~1\ZAQUAD~1\USTAWI~1\Temp/ccn3ptW3.s 			page 9


 245              		ldr	r3, [sp, #0]	@ tmp158, pxEventList
 209:SRC/RTOS/croutine.c **** 	}
 210:SRC/RTOS/croutine.c **** 
 211:SRC/RTOS/croutine.c **** 	if( pxEventList )
 246              	0	@ tmp158,
 247 0208 00309DE5 		beq	.L14	@,
 248 020c 000053E3 		.loc 1 215 0
 249 0210 0500000A 		ldr	r3, .L15+4	@ tmp159,
 212:SRC/RTOS/croutine.c **** 	{
 213:SRC/RTOS/croutine.c **** 		/* Also add the co-routine to an event list.  If this is done then the
 214:SRC/RTOS/croutine.c **** 		function must be called with interrupts disabled. */
 215:SRC/RTOS/croutine.c **** 		vListInsert( pxEventList, &( pxCurrentCoRoutine->xEventListItem ) );
 250              		r3, [r3, #0]	@ pxCurrentCoRoutine.11, pxCurrentCoRoutine
 251 0214 20309FE5 		add	r3, r3, #24	@ D.3003, pxCurrentCoRoutine.11,
 252 0218 003093E5 		ldr	r0, [sp, #0]	@, pxEventList
 253 021c 183083E2 		mov	r1, r3	@, D.3003
 254 0220 00009DE5 		bl	vListInsert	@
 255 0224 0310A0E1 	.L14:
 256 0228 FEFFFFEB 		.loc 1 217 0
 257              		add	sp, sp, #12	@,,
 216:SRC/RTOS/croutine.c **** 	}
 217:SRC/RTOS/croutine.c **** }
 258              	 [sp], #4
 259 022c 0CD08DE2 		bx	lr
 260 0230 04E09DE4 	.L16:
 261 0234 1EFF2FE1 		.align	2
 262              	.L15:
 263              		.word	xCoRoutineTickCount
 264              		.word	pxCurrentCoRoutine
 265 0238 08000000 		.word	pxOverflowDelayedCoRoutineList
 266 023c 00000000 		.word	pxDelayedCoRoutineList
 267 0240 68000000 	.LFE3:
 268 0244 64000000 		.size	vCoRoutineAddToDelayedList, .-vCoRoutineAddToDelayedList
 269              		.align	2
 270              		.type	prvCheckPendingReadyList, %function
 271              	prvCheckPendingReadyList:
 272              	.LFB4:
 273              		.loc 1 221 0
 274              		@ Function supports interworking.
 218:SRC/RTOS/croutine.c **** /*-----------------------------------------------------------*/
 219:SRC/RTOS/croutine.c **** 
 220:SRC/RTOS/croutine.c **** static void prvCheckPendingReadyList( void )
 221:SRC/RTOS/croutine.c **** {
 275              	end = 0, frame = 8
 276              		@ frame_needed = 0, uses_anonymous_args = 0
 277              		str	lr, [sp, #-4]!	@,
 278              	.LCFI4:
 279 0248 04E02DE5 		sub	sp, sp, #8	@,,
 280              	.LCFI5:
 281 024c 08D04DE2 		b	.L18	@
 282              	.L22:
 283 0250 340000EA 	.LBB2:
 284              		.loc 1 230 0
 285              	@ 230 "SRC/RTOS/croutine.c" 1
 222:SRC/RTOS/croutine.c **** 	/* Are there any co-routines waiting to get moved to the ready list?  These
 223:SRC/RTOS/croutine.c **** 	are co-routines that have been readied by an ISR.  The ISR cannot access
 224:SRC/RTOS/croutine.c **** 	the	ready lists itself. */
ARM GAS  C:\DOCUME~1\ZAQUAD~1\USTAWI~1\Temp/ccn3ptW3.s 			page 10


 225:SRC/RTOS/croutine.c **** 	while( !listLIST_IS_EMPTY( &xPendingReadyCoRoutineList ) )
 226:SRC/RTOS/croutine.c **** 	{
 227:SRC/RTOS/croutine.c **** 		corCRCB *pxUnblockedCRCB;
 228:SRC/RTOS/croutine.c **** 
 229:SRC/RTOS/croutine.c **** 		/* The pending ready list can be accessed by an ISR. */
 230:SRC/RTOS/croutine.c **** 		portDISABLE_INTERRUPTS();
 286              	 {R0}		
 287              		MRS	R0, CPSR		
 288 0254 01002DE9 		ORR	R0, R0, #0xC0	
 289 0258 00000FE1 		MSR	CPSR, R0		
 290 025c C00080E3 		LDMIA	SP!, {R0}			
 291 0260 00F029E1 	@ 0 "" 2
 292 0264 0100BDE8 		.loc 1 232 0
 293              		ldr	r3, .L24	@ tmp147,
 231:SRC/RTOS/croutine.c **** 		{	
 232:SRC/RTOS/croutine.c **** 			pxUnblockedCRCB = ( corCRCB * ) listGET_OWNER_OF_HEAD_ENTRY( (&xPendingReadyCoRoutineList) );			
 294              	 [r3, #0]	@ D.3017, xPendingReadyCoRoutineList.uxNumberOfItems
 295 0268 D4309FE5 		cmp	r3, #0	@ D.3017,
 296 026c 003093E5 		beq	.L19	@,
 297 0270 000053E3 		ldr	r3, .L24	@ tmp148,
 298 0274 0400000A 		ldr	r3, [r3, #12]	@ D.3018, xPendingReadyCoRoutineList.xListEnd.pxNext
 299 0278 C4309FE5 		ldr	r3, [r3, #12]	@ D.3019, <variable>.pvOwner
 300 027c 0C3093E5 		str	r3, [sp, #0]	@ D.3019, iftmp.12
 301 0280 0C3093E5 		b	.L20	@
 302 0284 00308DE5 	.L19:
 303 0288 010000EA 		mov	r3, #0	@,
 304              		str	r3, [sp, #0]	@, iftmp.12
 305 028c 0030A0E3 	.L20:
 306 0290 00308DE5 		ldr	r3, [sp, #0]	@, iftmp.12
 307              		str	r3, [sp, #4]	@, pxUnblockedCRCB
 308 0294 00309DE5 		.loc 1 233 0
 309 0298 04308DE5 		ldr	r3, [sp, #4]	@ tmp149, pxUnblockedCRCB
 233:SRC/RTOS/croutine.c **** 			vListRemove( &( pxUnblockedCRCB->xEventListItem ) );
 310              		@ D.3020, tmp149,
 311 029c 04309DE5 		mov	r0, r3	@, D.3020
 312 02a0 183083E2 		bl	vListRemove	@
 313 02a4 0300A0E1 		.loc 1 235 0
 314 02a8 FEFFFFEB 	@ 235 "SRC/RTOS/croutine.c" 1
 234:SRC/RTOS/croutine.c **** 		}
 235:SRC/RTOS/croutine.c **** 		portENABLE_INTERRUPTS();
 315              	B	SP!, {R0}		
 316              		MRS	R0, CPSR		
 317 02ac 01002DE9 		BIC	R0, R0, #0xC0	
 318 02b0 00000FE1 		MSR	CPSR, R0		
 319 02b4 C000C0E3 		LDMIA	SP!, {R0}			
 320 02b8 00F029E1 	@ 0 "" 2
 321 02bc 0100BDE8 		.loc 1 237 0
 322              		ldr	r3, [sp, #4]	@ tmp150, pxUnblockedCRCB
 236:SRC/RTOS/croutine.c **** 
 237:SRC/RTOS/croutine.c **** 		vListRemove( &( pxUnblockedCRCB->xGenericListItem ) );
 323              	 r3, #4	@ D.3021, tmp150,
 324 02c0 04309DE5 		mov	r0, r3	@, D.3021
 325 02c4 043083E2 		bl	vListRemove	@
 326 02c8 0300A0E1 		.loc 1 238 0
 327 02cc FEFFFFEB 		ldr	r3, [sp, #4]	@ tmp151, pxUnblockedCRCB
 238:SRC/RTOS/croutine.c **** 		prvAddCoRoutineToReadyQueue( pxUnblockedCRCB );	
 328              	r2, [r3, #44]	@ D.3022, <variable>.uxPriority
ARM GAS  C:\DOCUME~1\ZAQUAD~1\USTAWI~1\Temp/ccn3ptW3.s 			page 11


 329 02d0 04309DE5 		ldr	r3, .L24+4	@ tmp152,
 330 02d4 2C2093E5 		ldr	r3, [r3, #0]	@ uxTopCoRoutineReadyPriority.13, uxTopCoRoutineReadyPriority
 331 02d8 68309FE5 		cmp	r2, r3	@ D.3022, uxTopCoRoutineReadyPriority.13
 332 02dc 003093E5 		bls	.L21	@,
 333 02e0 030052E1 		ldr	r3, [sp, #4]	@ tmp153, pxUnblockedCRCB
 334 02e4 0300009A 		ldr	r2, [r3, #44]	@ uxTopCoRoutineReadyPriority.14, <variable>.uxPriority
 335 02e8 04309DE5 		ldr	r3, .L24+4	@ tmp154,
 336 02ec 2C2093E5 		str	r2, [r3, #0]	@ uxTopCoRoutineReadyPriority.14, uxTopCoRoutineReadyPriority
 337 02f0 50309FE5 	.L21:
 338 02f4 002083E5 		ldr	r3, [sp, #4]	@ tmp155, pxUnblockedCRCB
 339              		ldr	r3, [r3, #44]	@ D.3025, <variable>.uxPriority
 340 02f8 04309DE5 		mov	r2, r3, asl #2	@ tmp157, tmp156,
 341 02fc 2C3093E5 		mov	r3, r2, asl #2	@ tmp158, tmp157,
 342 0300 0321A0E1 		add	r2, r2, r3	@ D.3026, tmp157, tmp158
 343 0304 0231A0E1 		ldr	r3, .L24+8	@ tmp159,
 344 0308 032082E0 		add	r2, r2, r3	@ D.3027, D.3026, tmp159
 345 030c 38309FE5 		ldr	r3, [sp, #4]	@ tmp160, pxUnblockedCRCB
 346 0310 032082E0 		add	r3, r3, #4	@ D.3028, tmp160,
 347 0314 04309DE5 		mov	r0, r2	@, D.3027
 348 0318 043083E2 		mov	r1, r3	@, D.3028
 349 031c 0200A0E1 		bl	vListInsertEnd	@
 350 0320 0310A0E1 	.L18:
 351 0324 FEFFFFEB 	.LBE2:
 352              		.loc 1 225 0
 353              		ldr	r3, .L24	@ tmp161,
 354              		ldr	r3, [r3, #0]	@ D.3029, xPendingReadyCoRoutineList.uxNumberOfItems
 355 0328 14309FE5 		cmp	r3, #0	@ D.3029,
 356 032c 003093E5 		bne	.L22	@,
 357 0330 000053E3 		.loc 1 240 0
 358 0334 C6FFFF1A 		add	sp, sp, #8	@,,
 239:SRC/RTOS/croutine.c **** 	}
 240:SRC/RTOS/croutine.c **** }
 359              		.align	2
 360 0338 08D08DE2 	.L24:
 361 033c 04E09DE4 		.word	xPendingReadyCoRoutineList
 362 0340 1EFF2FE1 		.word	uxTopCoRoutineReadyPriority
 363              		.word	pxReadyCoRoutineLists
 364              	.LFE4:
 365              		.size	prvCheckPendingReadyList, .-prvCheckPendingReadyList
 366 0344 6C000000 		.align	2
 367 0348 04000000 		.type	prvCheckDelayedList, %function
 368 034c 14000000 	prvCheckDelayedList:
 369              	.LFB5:
 370              		.loc 1 244 0
 371              		@ Function supports interworking.
 372              		@ args = 0, pretend = 0, frame = 12
 373              		@ frame_needed = 0, uses_anonymous_args = 0
 374              		str	lr, [sp, #-4]!	@,
 241:SRC/RTOS/croutine.c **** /*-----------------------------------------------------------*/
 242:SRC/RTOS/croutine.c **** 
 243:SRC/RTOS/croutine.c **** static void prvCheckDelayedList( void )
 244:SRC/RTOS/croutine.c **** {
 375              	 sp, #12	@,,
 376              	.LCFI7:
 377              		.loc 1 247 0
 378              		bl	xTaskGetTickCount	@
 379 0350 04E02DE5 		mov	r2, r0	@ D.3046,
ARM GAS  C:\DOCUME~1\ZAQUAD~1\USTAWI~1\Temp/ccn3ptW3.s 			page 12


 380              		ldr	r3, .L37	@ tmp162,
 381 0354 0CD04DE2 		ldr	r3, [r3, #0]	@ xLastTickCount.15, xLastTickCount
 382              		rsb	r2, r3, r2	@ xPassedTicks.16, xLastTickCount.15, D.3046
 245:SRC/RTOS/croutine.c **** corCRCB *pxCRCB;
 246:SRC/RTOS/croutine.c **** 
 247:SRC/RTOS/croutine.c **** 	xPassedTicks = xTaskGetTickCount() - xLastTickCount;
 383              	 .L37+4	@ tmp163,
 384 0358 FEFFFFEB 		str	r2, [r3, #0]	@ xPassedTicks.16, xPassedTicks
 385 035c 0020A0E1 		b	.L27	@
 386 0360 B0319FE5 	.L35:
 387 0364 003093E5 		.loc 1 250 0
 388 0368 022063E0 		ldr	r3, .L37+8	@ tmp164,
 389 036c A8319FE5 		ldr	r3, [r3, #0]	@ xCoRoutineTickCount.17, xCoRoutineTickCount
 390 0370 002083E5 		add	r2, r3, #1	@ xCoRoutineTickCount.18, xCoRoutineTickCount.17,
 391 0374 5C0000EA 		ldr	r3, .L37+8	@ tmp165,
 392              		str	r2, [r3, #0]	@ xCoRoutineTickCount.18, xCoRoutineTickCount
 248:SRC/RTOS/croutine.c **** 	while( xPassedTicks )
 249:SRC/RTOS/croutine.c **** 	{
 250:SRC/RTOS/croutine.c **** 		xCoRoutineTickCount++;
 393              	1 0
 394 0378 A0319FE5 		ldr	r3, .L37+4	@ tmp166,
 395 037c 003093E5 		ldr	r3, [r3, #0]	@ xPassedTicks.19, xPassedTicks
 396 0380 012083E2 		sub	r2, r3, #1	@ xPassedTicks.20, xPassedTicks.19,
 397 0384 94319FE5 		ldr	r3, .L37+4	@ tmp167,
 398 0388 002083E5 		str	r2, [r3, #0]	@ xPassedTicks.20, xPassedTicks
 251:SRC/RTOS/croutine.c **** 		xPassedTicks--;
 399              	1 254 0
 400 038c 88319FE5 		ldr	r3, .L37+8	@ tmp168,
 401 0390 003093E5 		ldr	r3, [r3, #0]	@ xCoRoutineTickCount.21, xCoRoutineTickCount
 402 0394 012043E2 		cmp	r3, #0	@ xCoRoutineTickCount.21,
 403 0398 7C319FE5 		bne	.L29	@,
 404 039c 002083E5 	.LBB3:
 252:SRC/RTOS/croutine.c **** 
 253:SRC/RTOS/croutine.c **** 		/* If the tick count has overflowed we need to swap the ready lists. */
 254:SRC/RTOS/croutine.c **** 		if( xCoRoutineTickCount == 0 )
 405              	1 260 0
 406 03a0 78319FE5 		ldr	r3, .L37+12	@ tmp169,
 407 03a4 003093E5 		ldr	r3, [r3, #0]	@ tmp170, pxDelayedCoRoutineList
 408 03a8 000053E3 		str	r3, [sp, #8]	@ tmp170, pxTemp
 409 03ac 3C00001A 		.loc 1 261 0
 410              		ldr	r3, .L37+16	@ tmp171,
 255:SRC/RTOS/croutine.c **** 		{
 256:SRC/RTOS/croutine.c **** 			xList * pxTemp;
 257:SRC/RTOS/croutine.c **** 
 258:SRC/RTOS/croutine.c **** 			/* Tick count has overflowed so we need to swap the delay lists.  If there are
 259:SRC/RTOS/croutine.c **** 			any items in pxDelayedCoRoutineList here then there is an error! */
 260:SRC/RTOS/croutine.c **** 			pxTemp = pxDelayedCoRoutineList;
 411              	2, [r3, #0]	@ pxOverflowDelayedCoRoutineList.22, pxOverflowDelayedCoRoutineList
 412 03b0 6C319FE5 		ldr	r3, .L37+12	@ tmp172,
 413 03b4 003093E5 		str	r2, [r3, #0]	@ pxOverflowDelayedCoRoutineList.22, pxDelayedCoRoutineList
 414 03b8 08308DE5 		.loc 1 262 0
 261:SRC/RTOS/croutine.c **** 			pxDelayedCoRoutineList = pxOverflowDelayedCoRoutineList;
 415              		r2, .L37+16	@ tmp173,
 416 03bc 64319FE5 		ldr	r3, [sp, #8]	@ tmp174, pxTemp
 417 03c0 002093E5 		str	r3, [r2, #0]	@ tmp174, pxOverflowDelayedCoRoutineList
 418 03c4 58319FE5 		b	.L29	@
 419 03c8 002083E5 	.L34:
ARM GAS  C:\DOCUME~1\ZAQUAD~1\USTAWI~1\Temp/ccn3ptW3.s 			page 13


 262:SRC/RTOS/croutine.c **** 			pxOverflowDelayedCoRoutineList = pxTemp;
 420              	:
 421 03cc 54219FE5 		.loc 1 268 0
 422 03d0 08309DE5 		ldr	r3, [sp, #4]	@ tmp175, pxCRCB
 423 03d4 003082E5 		ldr	r2, [r3, #4]	@ D.3055, <variable>.xGenericListItem.xItemValue
 424 03d8 310000EA 		ldr	r3, .L37+8	@ tmp176,
 425              		ldr	r3, [r3, #0]	@ xCoRoutineTickCount.23, xCoRoutineTickCount
 426              		cmp	r2, r3	@ D.3055, xCoRoutineTickCount.23
 263:SRC/RTOS/croutine.c **** 		}
 264:SRC/RTOS/croutine.c **** 
 265:SRC/RTOS/croutine.c **** 		/* See if this tick has made a timeout expire. */
 266:SRC/RTOS/croutine.c **** 		while( ( pxCRCB = ( corCRCB * ) listGET_OWNER_OF_HEAD_ENTRY( pxDelayedCoRoutineList ) ) != NULL )
 267:SRC/RTOS/croutine.c **** 		{	
 268:SRC/RTOS/croutine.c **** 			if( xCoRoutineTickCount < listGET_LIST_ITEM_VALUE( &( pxCRCB->xGenericListItem ) ) )				
 427              	27	@,
 428 03dc 04309DE5 		.loc 1 274 0
 429 03e0 042093E5 	@ 274 "SRC/RTOS/croutine.c" 1
 430 03e4 34319FE5 		STMDB	SP!, {R0}		
 431 03e8 003093E5 		MRS	R0, CPSR		
 432 03ec 030052E1 		ORR	R0, R0, #0xC0	
 433 03f0 3D00008A 		MSR	CPSR, R0		
 269:SRC/RTOS/croutine.c **** 			{			
 270:SRC/RTOS/croutine.c **** 				/* Timeout not yet expired. */																			
 271:SRC/RTOS/croutine.c **** 				break;																				
 272:SRC/RTOS/croutine.c **** 			}																						
 273:SRC/RTOS/croutine.c **** 
 274:SRC/RTOS/croutine.c **** 			portDISABLE_INTERRUPTS();
 434              	SP!, {R0}			
 435              	@ 0 "" 2
 436 03f4 01002DE9 		.loc 1 281 0
 437 03f8 00000FE1 		ldr	r3, [sp, #4]	@ tmp177, pxCRCB
 438 03fc C00080E3 		add	r3, r3, #4	@ D.3057, tmp177,
 439 0400 00F029E1 		mov	r0, r3	@, D.3057
 440 0404 0100BDE8 		bl	vListRemove	@
 441              		.loc 1 284 0
 275:SRC/RTOS/croutine.c **** 			{
 276:SRC/RTOS/croutine.c **** 				/* The event could have occurred just before this critical
 277:SRC/RTOS/croutine.c **** 				section.  If this is the case then the generic list item will
 278:SRC/RTOS/croutine.c **** 				have been moved to the pending ready list and the following
 279:SRC/RTOS/croutine.c **** 				line is still valid.  Also the pvContainer parameter will have
 280:SRC/RTOS/croutine.c **** 				been set to NULL so the following lines are also valid. */
 281:SRC/RTOS/croutine.c **** 				vListRemove( &( pxCRCB->xGenericListItem ) );											
 442              	 [sp, #4]	@ tmp178, pxCRCB
 443 0408 04309DE5 		ldr	r3, [r3, #40]	@ D.3058, <variable>.xEventListItem.pvContainer
 444 040c 043083E2 		cmp	r3, #0	@ D.3058,
 445 0410 0300A0E1 		beq	.L30	@,
 446 0414 FEFFFFEB 		.loc 1 286 0
 282:SRC/RTOS/croutine.c **** 
 283:SRC/RTOS/croutine.c **** 				/* Is the co-routine waiting on an event also? */												
 284:SRC/RTOS/croutine.c **** 				if( pxCRCB->xEventListItem.pvContainer )													
 447              	r3, [sp, #4]	@ tmp179, pxCRCB
 448 0418 04309DE5 		add	r3, r3, #24	@ D.3059, tmp179,
 449 041c 283093E5 		mov	r0, r3	@, D.3059
 450 0420 000053E3 		bl	vListRemove	@
 451 0424 0300000A 	.L30:
 285:SRC/RTOS/croutine.c **** 				{															
 286:SRC/RTOS/croutine.c **** 					vListRemove( &( pxCRCB->xEventListItem ) );											
ARM GAS  C:\DOCUME~1\ZAQUAD~1\USTAWI~1\Temp/ccn3ptW3.s 			page 14


 452              	 1 289 0
 453 0428 04309DE5 	@ 289 "SRC/RTOS/croutine.c" 1
 454 042c 183083E2 		STMDB	SP!, {R0}		
 455 0430 0300A0E1 		MRS	R0, CPSR		
 456 0434 FEFFFFEB 		BIC	R0, R0, #0xC0	
 457              		MSR	CPSR, R0		
 287:SRC/RTOS/croutine.c **** 				}
 288:SRC/RTOS/croutine.c **** 			}
 289:SRC/RTOS/croutine.c **** 			portENABLE_INTERRUPTS();
 458              		SP!, {R0}			
 459              	@ 0 "" 2
 460 0438 01002DE9 		.loc 1 291 0
 461 043c 00000FE1 		ldr	r3, [sp, #4]	@ tmp180, pxCRCB
 462 0440 C000C0E3 		ldr	r2, [r3, #44]	@ D.3060, <variable>.uxPriority
 463 0444 00F029E1 		ldr	r3, .L37+20	@ tmp181,
 464 0448 0100BDE8 		ldr	r3, [r3, #0]	@ uxTopCoRoutineReadyPriority.24, uxTopCoRoutineReadyPriority
 465              		cmp	r2, r3	@ D.3060, uxTopCoRoutineReadyPriority.24
 290:SRC/RTOS/croutine.c **** 
 291:SRC/RTOS/croutine.c **** 			prvAddCoRoutineToReadyQueue( pxCRCB );													
 466              	1	@,
 467 044c 04309DE5 		ldr	r3, [sp, #4]	@ tmp182, pxCRCB
 468 0450 2C2093E5 		ldr	r2, [r3, #44]	@ uxTopCoRoutineReadyPriority.25, <variable>.uxPriority
 469 0454 D0309FE5 		ldr	r3, .L37+20	@ tmp183,
 470 0458 003093E5 		str	r2, [r3, #0]	@ uxTopCoRoutineReadyPriority.25, uxTopCoRoutineReadyPriority
 471 045c 030052E1 	.L31:
 472 0460 0300009A 		ldr	r3, [sp, #4]	@ tmp184, pxCRCB
 473 0464 04309DE5 		ldr	r3, [r3, #44]	@ D.3063, <variable>.uxPriority
 474 0468 2C2093E5 		mov	r2, r3, asl #2	@ tmp186, tmp185,
 475 046c B8309FE5 		mov	r3, r2, asl #2	@ tmp187, tmp186,
 476 0470 002083E5 		add	r2, r2, r3	@ D.3064, tmp186, tmp187
 477              		ldr	r3, .L37+24	@ tmp188,
 478 0474 04309DE5 		add	r2, r2, r3	@ D.3065, D.3064, tmp188
 479 0478 2C3093E5 		ldr	r3, [sp, #4]	@ tmp189, pxCRCB
 480 047c 0321A0E1 		add	r3, r3, #4	@ D.3066, tmp189,
 481 0480 0231A0E1 		mov	r0, r2	@, D.3065
 482 0484 032082E0 		mov	r1, r3	@, D.3066
 483 0488 A0309FE5 		bl	vListInsertEnd	@
 484 048c 032082E0 	.L29:
 485 0490 04309DE5 		.loc 1 266 0
 486 0494 043083E2 		ldr	r3, .L37+12	@ tmp190,
 487 0498 0200A0E1 		ldr	r3, [r3, #0]	@ pxDelayedCoRoutineList.27, pxDelayedCoRoutineList
 488 049c 0310A0E1 		ldr	r3, [r3, #0]	@ D.3069, <variable>.uxNumberOfItems
 489 04a0 FEFFFFEB 		cmp	r3, #0	@ D.3069,
 490              		beq	.L32	@,
 491              		ldr	r3, .L37+12	@ tmp191,
 492 04a4 78309FE5 		ldr	r3, [r3, #0]	@ pxDelayedCoRoutineList.28, pxDelayedCoRoutineList
 493 04a8 003093E5 		ldr	r3, [r3, #12]	@ D.3071, <variable>.xListEnd.pxNext
 494 04ac 003093E5 		ldr	r3, [r3, #12]	@ D.3072, <variable>.pvOwner
 495 04b0 000053E3 		str	r3, [sp, #0]	@ D.3072, iftmp.26
 496 04b4 0500000A 		b	.L33	@
 497 04b8 64309FE5 	.L32:
 498 04bc 003093E5 		mov	r3, #0	@,
 499 04c0 0C3093E5 		str	r3, [sp, #0]	@, iftmp.26
 500 04c4 0C3093E5 	.L33:
 501 04c8 00308DE5 		ldr	r3, [sp, #0]	@, iftmp.26
 502 04cc 010000EA 		str	r3, [sp, #4]	@, pxCRCB
 503              		ldr	r3, [sp, #4]	@ tmp192, pxCRCB
ARM GAS  C:\DOCUME~1\ZAQUAD~1\USTAWI~1\Temp/ccn3ptW3.s 			page 15


 504 04d0 0030A0E3 		cmp	r3, #0	@ tmp192,
 505 04d4 00308DE5 		bne	.L34	@,
 506              	.L27:
 507 04d8 00309DE5 		.loc 1 248 0
 508 04dc 04308DE5 		ldr	r3, .L37+4	@ tmp193,
 509 04e0 04309DE5 		ldr	r3, [r3, #0]	@ xPassedTicks.29, xPassedTicks
 510 04e4 000053E3 		cmp	r3, #0	@ xPassedTicks.29,
 511 04e8 BBFFFF1A 		bne	.L35	@,
 512              		.loc 1 295 0
 513              		ldr	r3, .L37+8	@ tmp194,
 514 04ec 28309FE5 		ldr	r2, [r3, #0]	@ xCoRoutineTickCount.30, xCoRoutineTickCount
 515 04f0 003093E5 		ldr	r3, .L37	@ tmp195,
 516 04f4 000053E3 		str	r2, [r3, #0]	@ xCoRoutineTickCount.30, xLastTickCount
 517 04f8 9EFFFF1A 		.loc 1 296 0
 292:SRC/RTOS/croutine.c **** 		}																									
 293:SRC/RTOS/croutine.c **** 	}
 294:SRC/RTOS/croutine.c **** 
 295:SRC/RTOS/croutine.c **** 	xLastTickCount = xCoRoutineTickCount;
 518              		.align	2
 519 04fc 1C309FE5 	.L37:
 520 0500 002093E5 		.word	xLastTickCount
 521 0504 0C309FE5 		.word	xPassedTicks
 522 0508 002083E5 		.word	xCoRoutineTickCount
 296:SRC/RTOS/croutine.c **** }
 523              	d	pxDelayedCoRoutineList
 524 050c 0CD08DE2 		.word	pxOverflowDelayedCoRoutineList
 525 0510 04E09DE4 		.word	uxTopCoRoutineReadyPriority
 526 0514 1EFF2FE1 		.word	pxReadyCoRoutineLists
 527              	.LFE5:
 528              		.size	prvCheckDelayedList, .-prvCheckDelayedList
 529              		.align	2
 530 0518 0C000000 		.global	vCoRoutineSchedule
 531 051c 10000000 		.type	vCoRoutineSchedule, %function
 532 0520 08000000 	vCoRoutineSchedule:
 533 0524 64000000 	.LFB6:
 534 0528 68000000 		.loc 1 300 0
 535 052c 04000000 		@ Function supports interworking.
 536 0530 14000000 		@ args = 0, pretend = 0, frame = 4
 537              		@ frame_needed = 0, uses_anonymous_args = 0
 538              		str	lr, [sp, #-4]!	@,
 539              	.LCFI8:
 540              		sub	sp, sp, #4	@,,
 541              	.LCFI9:
 542              		.loc 1 302 0
 543              		bl	prvCheckPendingReadyList	@
 297:SRC/RTOS/croutine.c **** /*-----------------------------------------------------------*/
 298:SRC/RTOS/croutine.c **** 
 299:SRC/RTOS/croutine.c **** void vCoRoutineSchedule( void )
 300:SRC/RTOS/croutine.c **** {
 544              	CheckDelayedList	@
 545              		b	.L40	@
 546              	.L42:
 547              		.loc 1 310 0
 548 0534 04E02DE5 		ldr	r3, .L45	@ tmp157,
 549              		ldr	r3, [r3, #0]	@ uxTopCoRoutineReadyPriority.31, uxTopCoRoutineReadyPriority
 550 0538 04D04DE2 		cmp	r3, #0	@ uxTopCoRoutineReadyPriority.31,
 551              		beq	.L44	@,
ARM GAS  C:\DOCUME~1\ZAQUAD~1\USTAWI~1\Temp/ccn3ptW3.s 			page 16


 301:SRC/RTOS/croutine.c **** 	/* See if any co-routines readied by events need moving to the ready lists. */
 302:SRC/RTOS/croutine.c **** 	prvCheckPendingReadyList();
 552              	315 0
 553 053c 41FFFFEB 		ldr	r3, .L45	@ tmp158,
 303:SRC/RTOS/croutine.c **** 
 304:SRC/RTOS/croutine.c **** 	/* See if any delayed co-routines have timed out. */
 305:SRC/RTOS/croutine.c **** 	prvCheckDelayedList();
 554              	dr	r3, [r3, #0]	@ uxTopCoRoutineReadyPriority.32, uxTopCoRoutineReadyPriority
 555 0540 82FFFFEB 		sub	r2, r3, #1	@ uxTopCoRoutineReadyPriority.33, uxTopCoRoutineReadyPriority.32,
 556 0544 080000EA 		ldr	r3, .L45	@ tmp159,
 557              		str	r2, [r3, #0]	@ uxTopCoRoutineReadyPriority.33, uxTopCoRoutineReadyPriority
 306:SRC/RTOS/croutine.c **** 
 307:SRC/RTOS/croutine.c **** 	/* Find the highest priority queue that contains ready co-routines. */
 308:SRC/RTOS/croutine.c **** 	while( listLIST_IS_EMPTY( &( pxReadyCoRoutineLists[ uxTopCoRoutineReadyPriority ] ) ) )
 309:SRC/RTOS/croutine.c **** 	{
 310:SRC/RTOS/croutine.c **** 		if( uxTopCoRoutineReadyPriority == 0 )
 558              	:
 559 0548 F8309FE5 		.loc 1 308 0
 560 054c 003093E5 		ldr	r3, .L45	@ tmp160,
 561 0550 000053E3 		ldr	r3, [r3, #0]	@ uxTopCoRoutineReadyPriority.34, uxTopCoRoutineReadyPriority
 562 0554 3800000A 		mov	r2, r3, asl #2	@ tmp162, tmp161,
 311:SRC/RTOS/croutine.c **** 		{
 312:SRC/RTOS/croutine.c **** 			/* No more co-routines to check. */
 313:SRC/RTOS/croutine.c **** 			return;
 314:SRC/RTOS/croutine.c **** 		}
 315:SRC/RTOS/croutine.c **** 		--uxTopCoRoutineReadyPriority;
 563              	r3, r2, asl #2	@ tmp163, tmp162,
 564 0558 E8309FE5 		add	r2, r2, r3	@ D.3096, tmp162, tmp163
 565 055c 003093E5 		ldr	r3, .L45+4	@ tmp164,
 566 0560 012043E2 		add	r3, r2, r3	@ D.3097, D.3096, tmp164
 567 0564 DC309FE5 		ldr	r3, [r3, #0]	@ D.3098, <variable>.uxNumberOfItems
 568 0568 002083E5 		cmp	r3, #0	@ D.3098,
 569              		beq	.L42	@,
 570              	.LBB4:
 571 056c D4309FE5 		.loc 1 320 0
 572 0570 003093E5 		ldr	r3, .L45	@ tmp165,
 573 0574 0321A0E1 		ldr	r3, [r3, #0]	@ uxTopCoRoutineReadyPriority.35, uxTopCoRoutineReadyPriority
 574 0578 0231A0E1 		mov	r2, r3, asl #2	@ tmp167, tmp166,
 575 057c 032082E0 		mov	r3, r2, asl #2	@ tmp168, tmp167,
 576 0580 C4309FE5 		add	r2, r2, r3	@ D.3100, tmp167, tmp168
 577 0584 033082E0 		ldr	r3, .L45+4	@ tmp169,
 578 0588 003093E5 		add	r3, r2, r3	@ tmp170, D.3100, tmp169
 579 058c 000053E3 		str	r3, [sp, #0]	@ tmp170, pxConstList
 580 0590 ECFFFF0A 		ldr	r3, [sp, #0]	@ tmp171, pxConstList
 581              		ldr	r3, [r3, #4]	@ D.3101, <variable>.pxIndex
 316:SRC/RTOS/croutine.c **** 	}
 317:SRC/RTOS/croutine.c **** 
 318:SRC/RTOS/croutine.c **** 	/* listGET_OWNER_OF_NEXT_ENTRY walks through the list, so the co-routines
 319:SRC/RTOS/croutine.c **** 	 of the	same priority get an equal share of the processor time. */
 320:SRC/RTOS/croutine.c **** 	listGET_OWNER_OF_NEXT_ENTRY( pxCurrentCoRoutine, &( pxReadyCoRoutineLists[ uxTopCoRoutineReadyPrio
 582              	 D.3102, <variable>.pxNext
 583 0594 AC309FE5 		ldr	r3, [sp, #0]	@ tmp172, pxConstList
 584 0598 003093E5 		str	r2, [r3, #4]	@ D.3102, <variable>.pxIndex
 585 059c 0321A0E1 		ldr	r3, [sp, #0]	@ tmp173, pxConstList
 586 05a0 0231A0E1 		ldr	r2, [r3, #4]	@ D.3103, <variable>.pxIndex
 587 05a4 032082E0 		ldr	r3, [sp, #0]	@ tmp174, pxConstList
 588 05a8 9C309FE5 		add	r3, r3, #8	@ D.3104, tmp174,
ARM GAS  C:\DOCUME~1\ZAQUAD~1\USTAWI~1\Temp/ccn3ptW3.s 			page 17


 589 05ac 033082E0 		cmp	r2, r3	@ D.3103, D.3105
 590 05b0 00308DE5 		bne	.L43	@,
 591 05b4 00309DE5 		ldr	r3, [sp, #0]	@ tmp175, pxConstList
 592 05b8 043093E5 		ldr	r3, [r3, #4]	@ D.3106, <variable>.pxIndex
 593 05bc 042093E5 		ldr	r2, [r3, #4]	@ D.3107, <variable>.pxNext
 594 05c0 00309DE5 		ldr	r3, [sp, #0]	@ tmp176, pxConstList
 595 05c4 042083E5 		str	r2, [r3, #4]	@ D.3107, <variable>.pxIndex
 596 05c8 00309DE5 	.L43:
 597 05cc 042093E5 		ldr	r3, [sp, #0]	@ tmp177, pxConstList
 598 05d0 00309DE5 		ldr	r3, [r3, #4]	@ D.3108, <variable>.pxIndex
 599 05d4 083083E2 		ldr	r3, [r3, #12]	@ D.3109, <variable>.pvOwner
 600 05d8 030052E1 		mov	r2, r3	@ pxCurrentCoRoutine.36, D.3109
 601 05dc 0400001A 		ldr	r3, .L45+8	@ tmp178,
 602 05e0 00309DE5 		str	r2, [r3, #0]	@ pxCurrentCoRoutine.36, pxCurrentCoRoutine
 603 05e4 043093E5 	.LBE4:
 604 05e8 042093E5 		.loc 1 323 0
 605 05ec 00309DE5 		ldr	r3, .L45+8	@ tmp179,
 606 05f0 042083E5 		ldr	r3, [r3, #0]	@ pxCurrentCoRoutine.37, pxCurrentCoRoutine
 607              		ldr	ip, [r3, #0]	@ D.3112, <variable>.pxCoRoutineFunction
 608 05f4 00309DE5 		ldr	r3, .L45+8	@ tmp180,
 609 05f8 043093E5 		ldr	r2, [r3, #0]	@ pxCurrentCoRoutine.38, pxCurrentCoRoutine
 610 05fc 0C3093E5 		ldr	r3, .L45+8	@ tmp181,
 611 0600 0320A0E1 		ldr	r3, [r3, #0]	@ pxCurrentCoRoutine.39, pxCurrentCoRoutine
 612 0604 44309FE5 		ldr	r3, [r3, #48]	@ D.3115, <variable>.uxIndex
 613 0608 002083E5 		mov	r0, r2	@, pxCurrentCoRoutine.38
 614              		mov	r1, r3	@, D.3115
 321:SRC/RTOS/croutine.c **** 
 322:SRC/RTOS/croutine.c **** 	/* Call the co-routine. */
 323:SRC/RTOS/croutine.c **** 	( pxCurrentCoRoutine->pxCoRoutineFunction )( pxCurrentCoRoutine, pxCurrentCoRoutine->uxIndex );
 615              	
 616 060c 3C309FE5 		.loc 1 326 0
 617 0610 003093E5 		add	sp, sp, #4	@,,
 618 0614 00C093E5 		ldr	lr, [sp], #4
 619 0618 30309FE5 		bx	lr
 620 061c 002093E5 	.L46:
 621 0620 28309FE5 		.align	2
 622 0624 003093E5 	.L45:
 623 0628 303093E5 		.word	uxTopCoRoutineReadyPriority
 624 062c 0200A0E1 		.word	pxReadyCoRoutineLists
 625 0630 0310A0E1 		.word	pxCurrentCoRoutine
 626 0634 0FE0A0E1 	.LFE6:
 627 0638 1CFF2FE1 		.size	vCoRoutineSchedule, .-vCoRoutineSchedule
 628              		.align	2
 324:SRC/RTOS/croutine.c **** 
 325:SRC/RTOS/croutine.c **** 	return;
 326:SRC/RTOS/croutine.c **** }
 629              	tialiseCoRoutineLists, %function
 630 063c 04D08DE2 	prvInitialiseCoRoutineLists:
 631 0640 04E09DE4 	.LFB7:
 632 0644 1EFF2FE1 		.loc 1 330 0
 633              		@ Function supports interworking.
 634              		@ args = 0, pretend = 0, frame = 4
 635              		@ frame_needed = 0, uses_anonymous_args = 0
 636 0648 04000000 		str	lr, [sp, #-4]!	@,
 637 064c 14000000 	.LCFI10:
 638 0650 00000000 		sub	sp, sp, #4	@,,
 639              	.LCFI11:
ARM GAS  C:\DOCUME~1\ZAQUAD~1\USTAWI~1\Temp/ccn3ptW3.s 			page 18


 640              		.loc 1 333 0
 641              		mov	r3, #0	@ tmp135,
 642              		str	r3, [sp, #0]	@ tmp135, uxPriority
 643              		b	.L48	@
 644              	.L49:
 327:SRC/RTOS/croutine.c **** /*-----------------------------------------------------------*/
 328:SRC/RTOS/croutine.c **** 
 329:SRC/RTOS/croutine.c **** static void prvInitialiseCoRoutineLists( void )
 330:SRC/RTOS/croutine.c **** {
 645              	dr	r3, [sp, #0]	@ tmp136, uxPriority
 646              		mov	r2, r3, asl #2	@ tmp138, tmp137,
 647              		mov	r3, r2, asl #2	@ tmp139, tmp138,
 648              		add	r2, r2, r3	@ D.3127, tmp138, tmp139
 649 0654 04E02DE5 		ldr	r3, .L51	@ tmp140,
 650              		add	r3, r2, r3	@ D.3128, D.3127, tmp140
 651 0658 04D04DE2 		mov	r0, r3	@, D.3128
 652              		bl	vListInitialise	@
 331:SRC/RTOS/croutine.c **** unsigned portBASE_TYPE uxPriority;
 332:SRC/RTOS/croutine.c **** 
 333:SRC/RTOS/croutine.c **** 	for( uxPriority = 0; uxPriority < configMAX_CO_ROUTINE_PRIORITIES; uxPriority++ )
 653              	333 0
 654 065c 0030A0E3 		ldr	r3, [sp, #0]	@ tmp141, uxPriority
 655 0660 00308DE5 		add	r3, r3, #1	@ tmp142, tmp141,
 656 0664 0A0000EA 		str	r3, [sp, #0]	@ tmp142, uxPriority
 657              	.L48:
 334:SRC/RTOS/croutine.c **** 	{
 335:SRC/RTOS/croutine.c **** 		vListInitialise( ( xList * ) &( pxReadyCoRoutineLists[ uxPriority ] ) );
 658              	r3, [sp, #0]	@ tmp143, uxPriority
 659 0668 00309DE5 		cmp	r3, #1	@ tmp143,
 660 066c 0321A0E1 		bls	.L49	@,
 661 0670 0231A0E1 		.loc 1 338 0
 662 0674 032082E0 		ldr	r0, .L51+4	@,
 663 0678 5C309FE5 		bl	vListInitialise	@
 664 067c 033082E0 		.loc 1 339 0
 665 0680 0300A0E1 		ldr	r0, .L51+8	@,
 666 0684 FEFFFFEB 		bl	vListInitialise	@
 667              		.loc 1 340 0
 668 0688 00309DE5 		ldr	r0, .L51+12	@,
 669 068c 013083E2 		bl	vListInitialise	@
 670 0690 00308DE5 		.loc 1 344 0
 671              		ldr	r2, .L51+16	@ tmp144,
 672 0694 00309DE5 		ldr	r3, .L51+4	@ tmp145,
 673 0698 010053E3 		str	r3, [r2, #0]	@ tmp145, pxDelayedCoRoutineList
 674 069c F1FFFF9A 		.loc 1 345 0
 336:SRC/RTOS/croutine.c **** 	}
 337:SRC/RTOS/croutine.c **** 
 338:SRC/RTOS/croutine.c **** 	vListInitialise( ( xList * ) &xDelayedCoRoutineList1 );
 675              	@ tmp146,
 676 06a0 38009FE5 		ldr	r3, .L51+8	@ tmp147,
 677 06a4 FEFFFFEB 		str	r3, [r2, #0]	@ tmp147, pxOverflowDelayedCoRoutineList
 339:SRC/RTOS/croutine.c **** 	vListInitialise( ( xList * ) &xDelayedCoRoutineList2 );
 678              	oc 1 346 0
 679 06a8 34009FE5 		add	sp, sp, #4	@,,
 680 06ac FEFFFFEB 		ldr	lr, [sp], #4
 340:SRC/RTOS/croutine.c **** 	vListInitialise( ( xList * ) &xPendingReadyCoRoutineList );
 681              		lr
 682 06b0 30009FE5 	.L52:
ARM GAS  C:\DOCUME~1\ZAQUAD~1\USTAWI~1\Temp/ccn3ptW3.s 			page 19


 683 06b4 FEFFFFEB 		.align	2
 341:SRC/RTOS/croutine.c **** 
 342:SRC/RTOS/croutine.c **** 	/* Start with pxDelayedCoRoutineList using list1 and the
 343:SRC/RTOS/croutine.c **** 	pxOverflowDelayedCoRoutineList using list2. */
 344:SRC/RTOS/croutine.c **** 	pxDelayedCoRoutineList = &xDelayedCoRoutineList1;
 684              	1:
 685 06b8 2C209FE5 		.word	pxReadyCoRoutineLists
 686 06bc 1C309FE5 		.word	xDelayedCoRoutineList1
 687 06c0 003082E5 		.word	xDelayedCoRoutineList2
 345:SRC/RTOS/croutine.c **** 	pxOverflowDelayedCoRoutineList = &xDelayedCoRoutineList2;
 688              	rd	xPendingReadyCoRoutineList
 689 06c4 24209FE5 		.word	pxDelayedCoRoutineList
 690 06c8 14309FE5 		.word	pxOverflowDelayedCoRoutineList
 691 06cc 003082E5 	.LFE7:
 346:SRC/RTOS/croutine.c **** }
 692              	ze	prvInitialiseCoRoutineLists, .-prvInitialiseCoRoutineLists
 693 06d0 04D08DE2 		.align	2
 694 06d4 04E09DE4 		.global	xCoRoutineRemoveFromEventList
 695 06d8 1EFF2FE1 		.type	xCoRoutineRemoveFromEventList, %function
 696              	xCoRoutineRemoveFromEventList:
 697              	.LFB8:
 698              		.loc 1 350 0
 699 06dc 14000000 		@ Function supports interworking.
 700 06e0 3C000000 		@ args = 0, pretend = 0, frame = 16
 701 06e4 50000000 		@ frame_needed = 0, uses_anonymous_args = 0
 702 06e8 6C000000 		str	lr, [sp, #-4]!	@,
 703 06ec 64000000 	.LCFI12:
 704 06f0 68000000 		sub	sp, sp, #16	@,,
 705              	.LCFI13:
 706              		str	r0, [sp, #4]	@ pxEventList, pxEventList
 707              		.loc 1 356 0
 708              		ldr	r3, [sp, #4]	@ tmp144, pxEventList
 709              		ldr	r3, [r3, #0]	@ D.3135, <variable>.uxNumberOfItems
 710              		cmp	r3, #0	@ D.3135,
 711              		beq	.L54	@,
 347:SRC/RTOS/croutine.c **** /*-----------------------------------------------------------*/
 348:SRC/RTOS/croutine.c **** 
 349:SRC/RTOS/croutine.c **** signed portBASE_TYPE xCoRoutineRemoveFromEventList( const xList *pxEventList )
 350:SRC/RTOS/croutine.c **** {
 712              	tmp145, pxEventList
 713              		ldr	r3, [r3, #12]	@ D.3136, <variable>.xListEnd.pxNext
 714              		ldr	r3, [r3, #12]	@ D.3137, <variable>.pvOwner
 715              		str	r3, [sp, #0]	@ D.3137, iftmp.40
 716 06f4 04E02DE5 		b	.L55	@
 717              	.L54:
 718 06f8 10D04DE2 		mov	r3, #0	@,
 719              		str	r3, [sp, #0]	@, iftmp.40
 720 06fc 04008DE5 	.L55:
 351:SRC/RTOS/croutine.c **** corCRCB *pxUnblockedCRCB;
 352:SRC/RTOS/croutine.c **** signed portBASE_TYPE xReturn;
 353:SRC/RTOS/croutine.c **** 
 354:SRC/RTOS/croutine.c **** 	/* This function is called from within an interrupt.  It can only access
 355:SRC/RTOS/croutine.c **** 	event lists and the pending ready list. */
 356:SRC/RTOS/croutine.c **** 	pxUnblockedCRCB = ( corCRCB * ) listGET_OWNER_OF_HEAD_ENTRY( pxEventList );
 721              	[sp, #0]	@, iftmp.40
 722 0700 04309DE5 		str	r3, [sp, #8]	@, pxUnblockedCRCB
 723 0704 003093E5 		.loc 1 357 0
ARM GAS  C:\DOCUME~1\ZAQUAD~1\USTAWI~1\Temp/ccn3ptW3.s 			page 20


 724 0708 000053E3 		ldr	r3, [sp, #8]	@ tmp146, pxUnblockedCRCB
 725 070c 0400000A 		add	r3, r3, #24	@ D.3138, tmp146,
 726 0710 04309DE5 		mov	r0, r3	@, D.3138
 727 0714 0C3093E5 		bl	vListRemove	@
 728 0718 0C3093E5 		.loc 1 358 0
 729 071c 00308DE5 		ldr	r3, [sp, #8]	@ tmp147, pxUnblockedCRCB
 730 0720 010000EA 		add	r3, r3, #24	@ D.3139, tmp147,
 731              		ldr	r0, .L59	@,
 732 0724 0030A0E3 		mov	r1, r3	@, D.3139
 733 0728 00308DE5 		bl	vListInsertEnd	@
 734              		.loc 1 360 0
 735 072c 00309DE5 		ldr	r3, [sp, #8]	@ tmp148, pxUnblockedCRCB
 736 0730 08308DE5 		ldr	r2, [r3, #44]	@ D.3140, <variable>.uxPriority
 357:SRC/RTOS/croutine.c **** 	vListRemove( &( pxUnblockedCRCB->xEventListItem ) );
 737              	@ tmp149,
 738 0734 08309DE5 		ldr	r3, [r3, #0]	@ pxCurrentCoRoutine.41, pxCurrentCoRoutine
 739 0738 183083E2 		ldr	r3, [r3, #44]	@ D.3142, <variable>.uxPriority
 740 073c 0300A0E1 		cmp	r2, r3	@ D.3140, D.3142
 741 0740 FEFFFFEB 		bcc	.L56	@,
 358:SRC/RTOS/croutine.c **** 	vListInsertEnd( ( xList * ) &( xPendingReadyCoRoutineList ), &( pxUnblockedCRCB->xEventListItem ) 
 742              	 1 362 0
 743 0744 08309DE5 		mov	r3, #1	@ tmp150,
 744 0748 183083E2 		str	r3, [sp, #12]	@ tmp150, xReturn
 745 074c 48009FE5 		b	.L57	@
 746 0750 0310A0E1 	.L56:
 747 0754 FEFFFFEB 		.loc 1 366 0
 359:SRC/RTOS/croutine.c **** 
 360:SRC/RTOS/croutine.c **** 	if( pxUnblockedCRCB->uxPriority >= pxCurrentCoRoutine->uxPriority )
 748              	3, #0	@ tmp151,
 749 0758 08309DE5 		str	r3, [sp, #12]	@ tmp151, xReturn
 750 075c 2C2093E5 	.L57:
 751 0760 38309FE5 		.loc 1 369 0
 752 0764 003093E5 		ldr	r3, [sp, #12]	@ D.3143, xReturn
 753 0768 2C3093E5 		.loc 1 370 0
 754 076c 030052E1 		mov	r0, r3	@, <result>
 755 0770 0200003A 		add	sp, sp, #16	@,,
 361:SRC/RTOS/croutine.c **** 	{
 362:SRC/RTOS/croutine.c **** 		xReturn = pdTRUE;
 756              	 [sp], #4
 757 0774 0130A0E3 		bx	lr
 758 0778 0C308DE5 	.L60:
 759 077c 010000EA 		.align	2
 760              	.L59:
 363:SRC/RTOS/croutine.c **** 	}
 364:SRC/RTOS/croutine.c **** 	else
 365:SRC/RTOS/croutine.c **** 	{
 366:SRC/RTOS/croutine.c **** 		xReturn = pdFALSE;
 761              	d	xPendingReadyCoRoutineList
 762 0780 0030A0E3 		.word	pxCurrentCoRoutine
 763 0784 0C308DE5 	.LFE8:
 764              		.size	xCoRoutineRemoveFromEventList, .-xCoRoutineRemoveFromEventList
 367:SRC/RTOS/croutine.c **** 	}
 368:SRC/RTOS/croutine.c **** 
 369:SRC/RTOS/croutine.c **** 	return xReturn;
 765              	s
 766 0788 0C309DE5 		.align	2
 370:SRC/RTOS/croutine.c **** }
ARM GAS  C:\DOCUME~1\ZAQUAD~1\USTAWI~1\Temp/ccn3ptW3.s 			page 21


 767              	ReadyCoRoutineLists:
 768 078c 0300A0E1 		.space	40
 769 0790 10D08DE2 		.align	2
 770 0794 04E09DE4 	xDelayedCoRoutineList1:
 771 0798 1EFF2FE1 		.space	20
 772              		.align	2
 773              	xDelayedCoRoutineList2:
 774              		.space	20
 775 079c 6C000000 		.align	2
 776 07a0 00000000 	pxDelayedCoRoutineList:
 777              		.space	4
 778              		.align	2
 779              	pxOverflowDelayedCoRoutineList:
 780              		.space	4
 781              		.align	2
 782 0014 00000000 	xPendingReadyCoRoutineList:
 782      00000000 
 782      00000000 
 782      00000000 
 782      00000000 
 783              		.space	20
 784              		.section	.debug_frame,"",%progbits
 785 003c 00000000 	.Lframe0:
 785      00000000 
 785      00000000 
 785      00000000 
 785      00000000 
 786              		.4byte	.LECIE0-.LSCIE0
 787              	.LSCIE0:
 788 0050 00000000 		.4byte	0xffffffff
 788      00000000 
 788      00000000 
 788      00000000 
 788      00000000 
 789              		.byte	0x1
 790              		.ascii	"\000"
 791 0064 00000000 		.uleb128 0x1
 792              		.sleb128 -4
 793              		.byte	0xe
 794 0068 00000000 		.byte	0xc
 795              		.uleb128 0xd
 796              		.uleb128 0x0
 797 006c 00000000 		.align	2
 797      00000000 
 797      00000000 
 797      00000000 
 797      00000000 
 798              	.LECIE0:
 799              	.LSFDE0:
 800 0000 0C000000 		.4byte	.LEFDE0-.LASFDE0
 801              	.LASFDE0:
 802 0004 FFFFFFFF 		.4byte	.Lframe0
 803 0008 01       		.4byte	.LFB2
 804 0009 00       		.4byte	.LFE2-.LFB2
 805 000a 01       		.byte	0x4
 806 000b 7C       		.4byte	.LCFI0-.LFB2
 807 000c 0E       		.byte	0xe
ARM GAS  C:\DOCUME~1\ZAQUAD~1\USTAWI~1\Temp/ccn3ptW3.s 			page 22


 808 000d 0C       		.uleb128 0x4
 809 000e 0D       		.byte	0x4
 810 000f 00       		.4byte	.LCFI1-.LCFI0
 811              		.byte	0xe
 812              		.uleb128 0x18
 813              		.byte	0x8e
 814 0010 14000000 		.uleb128 0x1
 815              		.align	2
 816 0014 00000000 	.LEFDE0:
 817 0018 00000000 	.LSFDE2:
 818 001c 68010000 		.4byte	.LEFDE2-.LASFDE2
 819 0020 44       	.LASFDE2:
 820              		.4byte	.Lframe0
 821 0021 0E       		.4byte	.LFB3
 822 0022 04       		.4byte	.LFE3-.LFB3
 823 0023 44       		.byte	0x4
 824              		.4byte	.LCFI2-.LFB3
 825 0024 0E       		.byte	0xe
 826 0025 18       		.uleb128 0x4
 827 0026 8E       		.byte	0x4
 828 0027 01       		.4byte	.LCFI3-.LCFI2
 829              		.byte	0xe
 830              		.uleb128 0x10
 831              		.byte	0x8e
 832 0028 14000000 		.uleb128 0x1
 833              		.align	2
 834 002c 00000000 	.LEFDE2:
 835 0030 68010000 	.LSFDE4:
 836 0034 E0000000 		.4byte	.LEFDE4-.LASFDE4
 837 0038 44       	.LASFDE4:
 838              		.4byte	.Lframe0
 839 0039 0E       		.4byte	.LFB4
 840 003a 04       		.4byte	.LFE4-.LFB4
 841 003b 44       		.byte	0x4
 842              		.4byte	.LCFI4-.LFB4
 843 003c 0E       		.byte	0xe
 844 003d 10       		.uleb128 0x4
 845 003e 8E       		.byte	0x4
 846 003f 01       		.4byte	.LCFI5-.LCFI4
 847              		.byte	0xe
 848              		.uleb128 0xc
 849              		.byte	0x8e
 850 0040 14000000 		.uleb128 0x1
 851              		.align	2
 852 0044 00000000 	.LEFDE4:
 853 0048 48020000 	.LSFDE6:
 854 004c 08010000 		.4byte	.LEFDE6-.LASFDE6
 855 0050 44       	.LASFDE6:
 856              		.4byte	.Lframe0
 857 0051 0E       		.4byte	.LFB5
 858 0052 04       		.4byte	.LFE5-.LFB5
 859 0053 44       		.byte	0x4
 860              		.4byte	.LCFI6-.LFB5
 861 0054 0E       		.byte	0xe
 862 0055 0C       		.uleb128 0x4
 863 0056 8E       		.byte	0x4
 864 0057 01       		.4byte	.LCFI7-.LCFI6
ARM GAS  C:\DOCUME~1\ZAQUAD~1\USTAWI~1\Temp/ccn3ptW3.s 			page 23


 865              		.byte	0xe
 866              		.uleb128 0x10
 867              		.byte	0x8e
 868 0058 14000000 		.uleb128 0x1
 869              		.align	2
 870 005c 00000000 	.LEFDE6:
 871 0060 50030000 	.LSFDE8:
 872 0064 E4010000 		.4byte	.LEFDE8-.LASFDE8
 873 0068 44       	.LASFDE8:
 874              		.4byte	.Lframe0
 875 0069 0E       		.4byte	.LFB6
 876 006a 04       		.4byte	.LFE6-.LFB6
 877 006b 44       		.byte	0x4
 878              		.4byte	.LCFI8-.LFB6
 879 006c 0E       		.byte	0xe
 880 006d 10       		.uleb128 0x4
 881 006e 8E       		.byte	0x4
 882 006f 01       		.4byte	.LCFI9-.LCFI8
 883              		.byte	0xe
 884              		.uleb128 0x8
 885              		.byte	0x8e
 886 0070 14000000 		.uleb128 0x1
 887              		.align	2
 888 0074 00000000 	.LEFDE8:
 889 0078 34050000 	.LSFDE10:
 890 007c 20010000 		.4byte	.LEFDE10-.LASFDE10
 891 0080 44       	.LASFDE10:
 892              		.4byte	.Lframe0
 893 0081 0E       		.4byte	.LFB7
 894 0082 04       		.4byte	.LFE7-.LFB7
 895 0083 44       		.byte	0x4
 896              		.4byte	.LCFI10-.LFB7
 897 0084 0E       		.byte	0xe
 898 0085 08       		.uleb128 0x4
 899 0086 8E       		.byte	0x4
 900 0087 01       		.4byte	.LCFI11-.LCFI10
 901              		.byte	0xe
 902              		.uleb128 0x8
 903              		.byte	0x8e
 904 0088 14000000 		.uleb128 0x1
 905              		.align	2
 906 008c 00000000 	.LEFDE10:
 907 0090 54060000 	.LSFDE12:
 908 0094 A0000000 		.4byte	.LEFDE12-.LASFDE12
 909 0098 44       	.LASFDE12:
 910              		.4byte	.Lframe0
 911 0099 0E       		.4byte	.LFB8
 912 009a 04       		.4byte	.LFE8-.LFB8
 913 009b 44       		.byte	0x4
 914              		.4byte	.LCFI12-.LFB8
 915 009c 0E       		.byte	0xe
 916 009d 08       		.uleb128 0x4
 917 009e 8E       		.byte	0x4
 918 009f 01       		.4byte	.LCFI13-.LCFI12
 919              		.byte	0xe
 920              		.uleb128 0x14
 921              		.byte	0x8e
ARM GAS  C:\DOCUME~1\ZAQUAD~1\USTAWI~1\Temp/ccn3ptW3.s 			page 24


 922 00a0 14000000 		.uleb128 0x1
 923              		.align	2
 924 00a4 00000000 	.LEFDE12:
 925 00a8 F4060000 		.text
 926 00ac B0000000 	.Letext0: