ARM GAS  C:\DOCUME~1\ZAQUAD~1\USTAWI~1\Temp/ccWMvjFd.s 			page 1


   1              		.file	"heap_2.c"
   2              	@ GNU C (GCC) version 4.3.3 (arm-elf)
   3              	@	compiled by GNU C version 3.4.5 (mingw special), GMP version 4.2.2, MPFR version 2.3.1.
   4              	@ GGC heuristics: --param ggc-min-expand=100 --param ggc-min-heapsize=131072
   5              	@ options passed:  -I . -IINC/ -IINC/RTOS/ -imultilib interwork -iprefix
   6              	@ d:\programy\mikrokontrolery\arm\yagarto\bin\../lib/gcc/arm-elf/4.3.3/ -MD
   7              	@ SRC/RTOS/heap_2.d -MF .dep/heap_2.o.d -MP -MQ SRC/RTOS/heap_2.o
   8              	@ -D__USES_INITFINI__ SRC/RTOS/heap_2.c -mcpu=arm7tdmi -mthumb-interwork
   9              	@ -auxbase-strip SRC/RTOS/heap_2.o -gdwarf-2 -O0 -Wall -Wstrict-prototypes
  10              	@ -fomit-frame-pointer -fverbose-asm
  11              	@ options enabled:  -falign-loops -fargument-alias -fauto-inc-dec
  12              	@ -fbranch-count-reg -fcommon -fearly-inlining
  13              	@ -feliminate-unused-debug-types -ffunction-cse -fgcse-lm -fident -fivopts
  14              	@ -fkeep-static-consts -fleading-underscore -fmath-errno
  15              	@ -fmerge-debug-strings -fmove-loop-invariants -fomit-frame-pointer
  16              	@ -fpeephole -freg-struct-return -fsched-interblock -fsched-spec
  17              	@ -fsched-stalled-insns-dep -fsigned-zeros -fsplit-ivs-in-unroller
  18              	@ -ftoplevel-reorder -ftrapping-math -ftree-cselim -ftree-loop-im
  19              	@ -ftree-loop-ivcanon -ftree-loop-optimize -ftree-parallelize-loops=
  20              	@ -ftree-reassoc -ftree-scev-cprop -ftree-vect-loop-version -fverbose-asm
  21              	@ -fzero-initialized-in-bss -mlittle-endian -msched-prolog
  22              	@ -mthumb-interwork
  23              	
  30 0000 CC000000 		.text
  30      02008100 
  30      00000201 
  30      FB0E0D00 
  30      01010101 
  31              	.Ltext0:
  32              	@ Compiler executable checksum: aefe8b2555dadc8858779d7450a1d1fb
  33              	
  34              		.section	.rodata
  35              		.align	1
  36              		.type	heapSTRUCT_SIZE, %object
  37              		.size	heapSTRUCT_SIZE, 2
  38              	heapSTRUCT_SIZE:
  39 0000 1000     		.short	16
  40              		.bss
  41              		.align	2
  42              	xHeapHasBeenInitialised.3293:
  43 0000 00000000 		.space	4
  44              		.text
  45              		.align	2
  46              		.global	pvPortMalloc
  47              		.type	pvPortMalloc, %function
  48              	pvPortMalloc:
  49              	.LFB2:
  50              		.file 1 "SRC/RTOS/heap_2.c"
   1:SRC/RTOS/heap_2.c **** /*
   2:SRC/RTOS/heap_2.c ****     FreeRTOS V6.0.2 - Copyright (C) 2010 Real Time Engineers Ltd.
   3:SRC/RTOS/heap_2.c **** 
ARM GAS  C:\DOCUME~1\ZAQUAD~1\USTAWI~1\Temp/ccWMvjFd.s 			page 2


   4:SRC/RTOS/heap_2.c ****     ***************************************************************************
   5:SRC/RTOS/heap_2.c ****     *                                                                         *
   6:SRC/RTOS/heap_2.c ****     * If you are:                                                             *
   7:SRC/RTOS/heap_2.c ****     *                                                                         *
   8:SRC/RTOS/heap_2.c ****     *    + New to FreeRTOS,                                                   *
   9:SRC/RTOS/heap_2.c ****     *    + Wanting to learn FreeRTOS or multitasking in general quickly       *
  10:SRC/RTOS/heap_2.c ****     *    + Looking for basic training,                                        *
  11:SRC/RTOS/heap_2.c ****     *    + Wanting to improve your FreeRTOS skills and productivity           *
  12:SRC/RTOS/heap_2.c ****     *                                                                         *
  13:SRC/RTOS/heap_2.c ****     * then take a look at the FreeRTOS eBook                                  *
  14:SRC/RTOS/heap_2.c ****     *                                                                         *
  15:SRC/RTOS/heap_2.c ****     *        "Using the FreeRTOS Real Time Kernel - a Practical Guide"        *
  16:SRC/RTOS/heap_2.c ****     *                  http://www.FreeRTOS.org/Documentation                  *
  17:SRC/RTOS/heap_2.c ****     *                                                                         *
  18:SRC/RTOS/heap_2.c ****     * A pdf reference manual is also available.  Both are usually delivered   *
  19:SRC/RTOS/heap_2.c ****     * to your inbox within 20 minutes to two hours when purchased between 8am *
  20:SRC/RTOS/heap_2.c ****     * and 8pm GMT (although please allow up to 24 hours in case of            *
  21:SRC/RTOS/heap_2.c ****     * exceptional circumstances).  Thank you for your support!                *
  22:SRC/RTOS/heap_2.c ****     *                                                                         *
  23:SRC/RTOS/heap_2.c ****     ***************************************************************************
  24:SRC/RTOS/heap_2.c **** 
  25:SRC/RTOS/heap_2.c ****     This file is part of the FreeRTOS distribution.
  26:SRC/RTOS/heap_2.c **** 
  27:SRC/RTOS/heap_2.c ****     FreeRTOS is free software; you can redistribute it and/or modify it under
  28:SRC/RTOS/heap_2.c ****     the terms of the GNU General Public License (version 2) as published by the
  29:SRC/RTOS/heap_2.c ****     Free Software Foundation AND MODIFIED BY the FreeRTOS exception.
  30:SRC/RTOS/heap_2.c ****     ***NOTE*** The exception to the GPL is included to allow you to distribute
  31:SRC/RTOS/heap_2.c ****     a combined work that includes FreeRTOS without being obliged to provide the
  32:SRC/RTOS/heap_2.c ****     source code for proprietary components outside of the FreeRTOS kernel.
  33:SRC/RTOS/heap_2.c ****     FreeRTOS is distributed in the hope that it will be useful, but WITHOUT
  34:SRC/RTOS/heap_2.c ****     ANY WARRANTY; without even the implied warranty of MERCHANTABILITY or
  35:SRC/RTOS/heap_2.c ****     FITNESS FOR A PARTICULAR PURPOSE.  See the GNU General Public License for
  36:SRC/RTOS/heap_2.c ****     more details. You should have received a copy of the GNU General Public 
  37:SRC/RTOS/heap_2.c ****     License and the FreeRTOS license exception along with FreeRTOS; if not it 
  38:SRC/RTOS/heap_2.c ****     can be viewed here: http://www.freertos.org/a00114.html and also obtained 
  39:SRC/RTOS/heap_2.c ****     by writing to Richard Barry, contact details for whom are available on the
  40:SRC/RTOS/heap_2.c ****     FreeRTOS WEB site.
  41:SRC/RTOS/heap_2.c **** 
  42:SRC/RTOS/heap_2.c ****     1 tab == 4 spaces!
  43:SRC/RTOS/heap_2.c **** 
  44:SRC/RTOS/heap_2.c ****     http://www.FreeRTOS.org - Documentation, latest information, license and
  45:SRC/RTOS/heap_2.c ****     contact details.
  46:SRC/RTOS/heap_2.c **** 
  47:SRC/RTOS/heap_2.c ****     http://www.SafeRTOS.com - A version that is certified for use in safety
  48:SRC/RTOS/heap_2.c ****     critical systems.
  49:SRC/RTOS/heap_2.c **** 
  50:SRC/RTOS/heap_2.c ****     http://www.OpenRTOS.com - Commercial support, development, porting,
  51:SRC/RTOS/heap_2.c ****     licensing and training services.
  52:SRC/RTOS/heap_2.c **** */
  53:SRC/RTOS/heap_2.c **** 
  54:SRC/RTOS/heap_2.c **** /*
  55:SRC/RTOS/heap_2.c ****  * A sample implementation of pvPortMalloc() and vPortFree() that permits
  56:SRC/RTOS/heap_2.c ****  * allocated blocks to be freed, but does not combine adjacent free blocks
  57:SRC/RTOS/heap_2.c ****  * into a single larger block.
  58:SRC/RTOS/heap_2.c ****  *
  59:SRC/RTOS/heap_2.c ****  * See heap_1.c and heap_3.c for alternative implementations, and the memory
  60:SRC/RTOS/heap_2.c ****  * management pages of http://www.FreeRTOS.org for more information.
ARM GAS  C:\DOCUME~1\ZAQUAD~1\USTAWI~1\Temp/ccWMvjFd.s 			page 3


  61:SRC/RTOS/heap_2.c ****  */
  62:SRC/RTOS/heap_2.c **** #include <stdlib.h>
  63:SRC/RTOS/heap_2.c **** 
  64:SRC/RTOS/heap_2.c **** /* Defining MPU_WRAPPERS_INCLUDED_FROM_API_FILE prevents task.h from redefining
  65:SRC/RTOS/heap_2.c **** all the API functions to use the MPU wrappers.  That should only be done when
  66:SRC/RTOS/heap_2.c **** task.h is included from an application file. */
  67:SRC/RTOS/heap_2.c **** #define MPU_WRAPPERS_INCLUDED_FROM_API_FILE
  68:SRC/RTOS/heap_2.c **** 
  69:SRC/RTOS/heap_2.c **** #include "FreeRTOS.h"
  70:SRC/RTOS/heap_2.c **** #include "task.h"
  71:SRC/RTOS/heap_2.c **** 
  72:SRC/RTOS/heap_2.c **** #undef MPU_WRAPPERS_INCLUDED_FROM_API_FILE
  73:SRC/RTOS/heap_2.c **** 
  74:SRC/RTOS/heap_2.c **** /* Allocate the memory for the heap.  The struct is used to force byte
  75:SRC/RTOS/heap_2.c **** alignment without using any non-portable code. */
  76:SRC/RTOS/heap_2.c **** static union xRTOS_HEAP
  77:SRC/RTOS/heap_2.c **** {
  78:SRC/RTOS/heap_2.c **** 	#if portBYTE_ALIGNMENT == 8
  79:SRC/RTOS/heap_2.c **** 		volatile portDOUBLE dDummy;
  80:SRC/RTOS/heap_2.c **** 	#else
  81:SRC/RTOS/heap_2.c **** 		volatile unsigned long ulDummy;
  82:SRC/RTOS/heap_2.c **** 	#endif
  83:SRC/RTOS/heap_2.c **** 	unsigned char ucHeap[ configTOTAL_HEAP_SIZE ];
  84:SRC/RTOS/heap_2.c **** } xHeap;
  85:SRC/RTOS/heap_2.c **** 
  86:SRC/RTOS/heap_2.c **** /* Define the linked list structure.  This is used to link free blocks in order
  87:SRC/RTOS/heap_2.c **** of their size. */
  88:SRC/RTOS/heap_2.c **** typedef struct A_BLOCK_LINK
  89:SRC/RTOS/heap_2.c **** {
  90:SRC/RTOS/heap_2.c **** 	struct A_BLOCK_LINK *pxNextFreeBlock;	/*<< The next free block in the list. */
  91:SRC/RTOS/heap_2.c **** 	size_t xBlockSize;						/*<< The size of the free block. */
  92:SRC/RTOS/heap_2.c **** } xBlockLink;
  93:SRC/RTOS/heap_2.c **** 
  94:SRC/RTOS/heap_2.c **** 
  95:SRC/RTOS/heap_2.c **** static const unsigned short  heapSTRUCT_SIZE	= ( sizeof( xBlockLink ) + portBYTE_ALIGNMENT - ( size
  96:SRC/RTOS/heap_2.c **** #define heapMINIMUM_BLOCK_SIZE	( ( size_t ) ( heapSTRUCT_SIZE * 2 ) )
  97:SRC/RTOS/heap_2.c **** 
  98:SRC/RTOS/heap_2.c **** /* Create a couple of list links to mark the start and end of the list. */
  99:SRC/RTOS/heap_2.c **** static xBlockLink xStart, xEnd;
 100:SRC/RTOS/heap_2.c **** 
 101:SRC/RTOS/heap_2.c **** /* Keeps track of the number of free bytes remaining, but says nothing about
 102:SRC/RTOS/heap_2.c **** fragmentation. */
 103:SRC/RTOS/heap_2.c **** static size_t xFreeBytesRemaining;
 104:SRC/RTOS/heap_2.c **** 
 105:SRC/RTOS/heap_2.c **** /* STATIC FUNCTIONS ARE DEFINED AS MACROS TO MINIMIZE THE FUNCTION CALL DEPTH. */
 106:SRC/RTOS/heap_2.c **** 
 107:SRC/RTOS/heap_2.c **** /*
 108:SRC/RTOS/heap_2.c ****  * Insert a block into the list of free blocks - which is ordered by size of
 109:SRC/RTOS/heap_2.c ****  * the block.  Small blocks at the start of the list and large blocks at the end
 110:SRC/RTOS/heap_2.c ****  * of the list.
 111:SRC/RTOS/heap_2.c ****  */
 112:SRC/RTOS/heap_2.c **** #define prvInsertBlockIntoFreeList( pxBlockToInsert )								\
 113:SRC/RTOS/heap_2.c **** {																					\
 114:SRC/RTOS/heap_2.c **** xBlockLink *pxIterator;																\
 115:SRC/RTOS/heap_2.c **** size_t xBlockSize;																	\
 116:SRC/RTOS/heap_2.c **** 																					\
 117:SRC/RTOS/heap_2.c **** 	xBlockSize = pxBlockToInsert->xBlockSize;										\
ARM GAS  C:\DOCUME~1\ZAQUAD~1\USTAWI~1\Temp/ccWMvjFd.s 			page 4


 118:SRC/RTOS/heap_2.c **** 																					\
 119:SRC/RTOS/heap_2.c **** 	/* Iterate through the list until a block is found that has a larger size */	\
 120:SRC/RTOS/heap_2.c **** 	/* than the block we are inserting. */											\
 121:SRC/RTOS/heap_2.c **** 	for( pxIterator = &xStart; pxIterator->pxNextFreeBlock->xBlockSize < xBlockSize; pxIterator = pxIt
 122:SRC/RTOS/heap_2.c **** 	{																				\
 123:SRC/RTOS/heap_2.c **** 		/* There is nothing to do here - just iterate to the correct position. */	\
 124:SRC/RTOS/heap_2.c **** 	}																				\
 125:SRC/RTOS/heap_2.c **** 																					\
 126:SRC/RTOS/heap_2.c **** 	/* Update the list to include the block being inserted in the correct */		\
 127:SRC/RTOS/heap_2.c **** 	/* position. */																	\
 128:SRC/RTOS/heap_2.c **** 	pxBlockToInsert->pxNextFreeBlock = pxIterator->pxNextFreeBlock;					\
 129:SRC/RTOS/heap_2.c **** 	pxIterator->pxNextFreeBlock = pxBlockToInsert;									\
 130:SRC/RTOS/heap_2.c **** }
 131:SRC/RTOS/heap_2.c **** /*-----------------------------------------------------------*/
 132:SRC/RTOS/heap_2.c **** 
 133:SRC/RTOS/heap_2.c **** #define prvHeapInit()																\
 134:SRC/RTOS/heap_2.c **** {																					\
 135:SRC/RTOS/heap_2.c **** xBlockLink *pxFirstFreeBlock;														\
 136:SRC/RTOS/heap_2.c **** 																					\
 137:SRC/RTOS/heap_2.c **** 	/* xStart is used to hold a pointer to the first item in the list of free */	\
 138:SRC/RTOS/heap_2.c **** 	/* blocks.  The void cast is used to prevent compiler warnings. */				\
 139:SRC/RTOS/heap_2.c **** 	xStart.pxNextFreeBlock = ( void * ) xHeap.ucHeap;								\
 140:SRC/RTOS/heap_2.c **** 	xStart.xBlockSize = ( size_t ) 0;												\
 141:SRC/RTOS/heap_2.c **** 																					\
 142:SRC/RTOS/heap_2.c **** 	/* xEnd is used to mark the end of the list of free blocks. */					\
 143:SRC/RTOS/heap_2.c **** 	xEnd.xBlockSize = configTOTAL_HEAP_SIZE;										\
 144:SRC/RTOS/heap_2.c **** 	xEnd.pxNextFreeBlock = NULL;													\
 145:SRC/RTOS/heap_2.c **** 																					\
 146:SRC/RTOS/heap_2.c **** 	/* To start with there is a single free block that is sized to take up the		\
 147:SRC/RTOS/heap_2.c **** 	entire heap space. */															\
 148:SRC/RTOS/heap_2.c **** 	pxFirstFreeBlock = ( void * ) xHeap.ucHeap;										\
 149:SRC/RTOS/heap_2.c **** 	pxFirstFreeBlock->xBlockSize = configTOTAL_HEAP_SIZE;							\
 150:SRC/RTOS/heap_2.c **** 	pxFirstFreeBlock->pxNextFreeBlock = &xEnd;										\
 151:SRC/RTOS/heap_2.c **** 																					\
 152:SRC/RTOS/heap_2.c **** 	xFreeBytesRemaining = configTOTAL_HEAP_SIZE;									\
 153:SRC/RTOS/heap_2.c **** }
 154:SRC/RTOS/heap_2.c **** /*-----------------------------------------------------------*/
 155:SRC/RTOS/heap_2.c **** 
 156:SRC/RTOS/heap_2.c **** void *pvPortMalloc( size_t xWantedSize )
 157:SRC/RTOS/heap_2.c **** {
  51              	@ args = 0, pretend = 0, frame = 32
  52              		@ frame_needed = 0, uses_anonymous_args = 0
  53              		str	lr, [sp, #-4]!	@,
  54              	.LCFI0:
  55 0000 04E02DE5 		sub	sp, sp, #32	@,,
  56              	.LCFI1:
  57 0004 20D04DE2 		str	r0, [sp, #0]	@ xWantedSize, xWantedSize
  58              		.loc 1 160 0
  59 0008 00008DE5 		mov	r3, #0	@ tmp160,
 158:SRC/RTOS/heap_2.c **** xBlockLink *pxBlock, *pxPreviousBlock, *pxNewBlockLink;
 159:SRC/RTOS/heap_2.c **** static portBASE_TYPE xHeapHasBeenInitialised = pdFALSE;
 160:SRC/RTOS/heap_2.c **** void *pvReturn = NULL;
  60              	[sp, #16]	@ tmp160, pvReturn
  61 000c 0030A0E3 		.loc 1 162 0
  62 0010 10308DE5 		bl	vTaskSuspendAll	@
 161:SRC/RTOS/heap_2.c **** 
 162:SRC/RTOS/heap_2.c **** 	vTaskSuspendAll();
ARM GAS  C:\DOCUME~1\ZAQUAD~1\USTAWI~1\Temp/ccWMvjFd.s 			page 5


  63              	oc 1 166 0
  64 0014 FEFFFFEB 		ldr	r3, .L12	@ tmp161,
 163:SRC/RTOS/heap_2.c **** 	{
 164:SRC/RTOS/heap_2.c **** 		/* If this is the first call to malloc then the heap will require
 165:SRC/RTOS/heap_2.c **** 		initialisation to setup the list of free blocks. */
 166:SRC/RTOS/heap_2.c **** 		if( xHeapHasBeenInitialised == pdFALSE )
  65              	dr	r3, [r3, #0]	@ xHeapHasBeenInitialised.0, xHeapHasBeenInitialised
  66 0018 3C329FE5 		cmp	r3, #0	@ xHeapHasBeenInitialised.0,
  67 001c 003093E5 		bne	.L2	@,
  68 0020 000053E3 	.LBB2:
  69 0024 1900001A 		.loc 1 168 0
  70              		ldr	r2, .L12+4	@ D.3305,
 167:SRC/RTOS/heap_2.c **** 		{
 168:SRC/RTOS/heap_2.c **** 			prvHeapInit();
  71              	3, .L12+8	@ tmp162,
  72 0028 30229FE5 		str	r2, [r3, #0]	@ D.3305, xStart.pxNextFreeBlock
  73 002c 30329FE5 		ldr	r2, .L12+8	@ tmp163,
  74 0030 002083E5 		mov	r3, #0	@ tmp164,
  75 0034 28229FE5 		str	r3, [r2, #4]	@ tmp164, xStart.xBlockSize
  76 0038 0030A0E3 		ldr	r2, .L12+12	@ tmp165,
  77 003c 043082E5 		mov	r3, #10240	@ tmp166,
  78 0040 20229FE5 		str	r3, [r2, #4]	@ tmp166, xEnd.xBlockSize
  79 0044 0A3BA0E3 		ldr	r2, .L12+12	@ tmp167,
  80 0048 043082E5 		mov	r3, #0	@ tmp168,
  81 004c 14229FE5 		str	r3, [r2, #0]	@ tmp168, xEnd.pxNextFreeBlock
  82 0050 0030A0E3 		ldr	r3, .L12+4	@ tmp169,
  83 0054 003082E5 		str	r3, [sp, #20]	@ tmp169, pxFirstFreeBlock
  84 0058 00329FE5 		ldr	r2, [sp, #20]	@ tmp170, pxFirstFreeBlock
  85 005c 14308DE5 		mov	r3, #10240	@ tmp171,
  86 0060 14209DE5 		str	r3, [r2, #4]	@ tmp171, <variable>.xBlockSize
  87 0064 0A3BA0E3 		ldr	r2, [sp, #20]	@ tmp172, pxFirstFreeBlock
  88 0068 043082E5 		ldr	r3, .L12+12	@ tmp173,
  89 006c 14209DE5 		str	r3, [r2, #0]	@ tmp173, <variable>.pxNextFreeBlock
  90 0070 F0319FE5 		ldr	r2, .L12+16	@ tmp174,
  91 0074 003082E5 		mov	r3, #10240	@ tmp175,
  92 0078 EC219FE5 		str	r3, [r2, #0]	@ tmp175, xFreeBytesRemaining
  93 007c 0A3BA0E3 	.LBE2:
  94 0080 003082E5 		.loc 1 169 0
  95              		ldr	r2, .L12	@ tmp176,
 169:SRC/RTOS/heap_2.c **** 			xHeapHasBeenInitialised = pdTRUE;
  96              	r	r3, [r2, #0]	@ tmp177, xHeapHasBeenInitialised
  97 0084 D0219FE5 	.L2:
  98 0088 0130A0E3 		.loc 1 174 0
  99 008c 003082E5 		ldr	r3, [sp, #0]	@ tmp178, xWantedSize
 100              		cmp	r3, #0	@ tmp178,
 170:SRC/RTOS/heap_2.c **** 		}
 171:SRC/RTOS/heap_2.c **** 
 172:SRC/RTOS/heap_2.c **** 		/* The wanted size is increased so it can contain a xBlockLink
 173:SRC/RTOS/heap_2.c **** 		structure in addition to the requested amount of bytes. */
 174:SRC/RTOS/heap_2.c **** 		if( xWantedSize > 0 )
 101              	.L3	@,
 102 0090 00309DE5 		.loc 1 176 0
 103 0094 000053E3 		ldr	r3, .L12+20	@ tmp179,
 104 0098 0D00000A 		ldrh	r3, [r3, #0]	@ heapSTRUCT_SIZE.1, heapSTRUCT_SIZE
 175:SRC/RTOS/heap_2.c **** 		{
 176:SRC/RTOS/heap_2.c **** 			xWantedSize += heapSTRUCT_SIZE;
 105              		r2, r3	@ D.3307, heapSTRUCT_SIZE.1
ARM GAS  C:\DOCUME~1\ZAQUAD~1\USTAWI~1\Temp/ccWMvjFd.s 			page 6


 106 009c CC319FE5 		ldr	r3, [sp, #0]	@ tmp180, xWantedSize
 107 00a0 B030D3E1 		add	r3, r3, r2	@ tmp181, tmp180, D.3307
 108 00a4 0320A0E1 		str	r3, [sp, #0]	@ tmp181, xWantedSize
 109 00a8 00309DE5 		.loc 1 179 0
 110 00ac 023083E0 		ldr	r3, [sp, #0]	@ tmp182, xWantedSize
 111 00b0 00308DE5 		and	r3, r3, #7	@ D.3308, tmp182,
 177:SRC/RTOS/heap_2.c **** 
 178:SRC/RTOS/heap_2.c **** 			/* Ensure that blocks are always aligned to the required number of bytes. */
 179:SRC/RTOS/heap_2.c **** 			if( xWantedSize & portBYTE_ALIGNMENT_MASK )
 112              	, #0	@ D.3308,
 113 00b4 00309DE5 		beq	.L3	@,
 114 00b8 073003E2 		.loc 1 182 0
 115 00bc 000053E3 		ldr	r3, [sp, #0]	@ tmp183, xWantedSize
 116 00c0 0300000A 		bic	r3, r3, #7	@ D.3309, tmp183,
 180:SRC/RTOS/heap_2.c **** 			{
 181:SRC/RTOS/heap_2.c **** 				/* Byte alignment required. */
 182:SRC/RTOS/heap_2.c **** 				xWantedSize += ( portBYTE_ALIGNMENT - ( xWantedSize & portBYTE_ALIGNMENT_MASK ) );
 117              	r3, r3, #8	@ tmp184, D.3309,
 118 00c4 00309DE5 		str	r3, [sp, #0]	@ tmp184, xWantedSize
 119 00c8 0730C3E3 	.L3:
 120 00cc 083083E2 		.loc 1 186 0
 121 00d0 00308DE5 		ldr	r3, [sp, #0]	@ tmp185, xWantedSize
 122              		cmp	r3, #0	@ tmp185,
 183:SRC/RTOS/heap_2.c **** 			}
 184:SRC/RTOS/heap_2.c **** 		}
 185:SRC/RTOS/heap_2.c **** 
 186:SRC/RTOS/heap_2.c **** 		if( ( xWantedSize > 0 ) && ( xWantedSize < configTOTAL_HEAP_SIZE ) )
 123              	L4	@,
 124 00d4 00309DE5 		ldr	r2, [sp, #0]	@ tmp186, xWantedSize
 125 00d8 000053E3 		mov	r3, #10176	@ tmp187,
 126 00dc 5800000A 		add	r3, r3, #63	@ tmp187, tmp187,
 127 00e0 00209DE5 		cmp	r2, r3	@ tmp186, tmp187
 128 00e4 9F3DA0E3 		bhi	.L4	@,
 129 00e8 3F3083E2 		.loc 1 190 0
 130 00ec 030052E1 		ldr	r3, .L12+8	@ tmp188,
 131 00f0 5300008A 		str	r3, [sp, #8]	@ tmp188, pxPreviousBlock
 187:SRC/RTOS/heap_2.c **** 		{
 188:SRC/RTOS/heap_2.c **** 			/* Blocks are stored in byte order - traverse the list from the start
 189:SRC/RTOS/heap_2.c **** 			(smallest) block until one of adequate size is found. */
 190:SRC/RTOS/heap_2.c **** 			pxPreviousBlock = &xStart;
 132              	91 0
 133 00f4 68319FE5 		ldr	r3, .L12+8	@ tmp189,
 134 00f8 08308DE5 		ldr	r3, [r3, #0]	@ tmp190, xStart.pxNextFreeBlock
 191:SRC/RTOS/heap_2.c **** 			pxBlock = xStart.pxNextFreeBlock;
 135              	r	r3, [sp, #4]	@ tmp190, pxBlock
 136 00fc 60319FE5 		b	.L5	@
 137 0100 003093E5 	.L7:
 138 0104 04308DE5 		.loc 1 194 0
 139 0108 040000EA 		ldr	r3, [sp, #4]	@ tmp191, pxBlock
 140              		str	r3, [sp, #8]	@ tmp191, pxPreviousBlock
 192:SRC/RTOS/heap_2.c **** 			while( ( pxBlock->xBlockSize < xWantedSize ) && ( pxBlock->pxNextFreeBlock ) )
 193:SRC/RTOS/heap_2.c **** 			{
 194:SRC/RTOS/heap_2.c **** 				pxPreviousBlock = pxBlock;
 141              	1 195 0
 142 010c 04309DE5 		ldr	r3, [sp, #4]	@ tmp192, pxBlock
 143 0110 08308DE5 		ldr	r3, [r3, #0]	@ tmp193, <variable>.pxNextFreeBlock
 195:SRC/RTOS/heap_2.c **** 				pxBlock = pxBlock->pxNextFreeBlock;
ARM GAS  C:\DOCUME~1\ZAQUAD~1\USTAWI~1\Temp/ccWMvjFd.s 			page 7


 144              	r	r3, [sp, #4]	@ tmp193, pxBlock
 145 0114 04309DE5 	.L5:
 146 0118 003093E5 		.loc 1 192 0
 147 011c 04308DE5 		ldr	r3, [sp, #4]	@ tmp194, pxBlock
 148              		ldr	r2, [r3, #4]	@ D.3310, <variable>.xBlockSize
 149              		ldr	r3, [sp, #0]	@ tmp195, xWantedSize
 150 0120 04309DE5 		cmp	r2, r3	@ D.3310, tmp195
 151 0124 042093E5 		bcs	.L6	@,
 152 0128 00309DE5 		ldr	r3, [sp, #4]	@ tmp196, pxBlock
 153 012c 030052E1 		ldr	r3, [r3, #0]	@ D.3311, <variable>.pxNextFreeBlock
 154 0130 0300002A 		cmp	r3, #0	@ D.3311,
 155 0134 04309DE5 		bne	.L7	@,
 156 0138 003093E5 	.L6:
 157 013c 000053E3 		.loc 1 199 0
 158 0140 F1FFFF1A 		ldr	r2, [sp, #4]	@ tmp197, pxBlock
 159              		ldr	r3, .L12+12	@ tmp198,
 196:SRC/RTOS/heap_2.c **** 			}
 197:SRC/RTOS/heap_2.c **** 
 198:SRC/RTOS/heap_2.c **** 			/* If we found the end marker then a block of adequate size was not found. */
 199:SRC/RTOS/heap_2.c **** 			if( pxBlock != &xEnd )
 160              	p197, tmp198
 161 0144 04209DE5 		beq	.L4	@,
 162 0148 18319FE5 		.loc 1 203 0
 163 014c 030052E1 		ldr	r3, [sp, #8]	@ tmp199, pxPreviousBlock
 164 0150 3B00000A 		ldr	r2, [r3, #0]	@ D.3312, <variable>.pxNextFreeBlock
 200:SRC/RTOS/heap_2.c **** 			{
 201:SRC/RTOS/heap_2.c **** 				/* Return the memory space - jumping over the xBlockLink structure
 202:SRC/RTOS/heap_2.c **** 				at its start. */
 203:SRC/RTOS/heap_2.c **** 				pvReturn = ( void * ) ( ( ( unsigned char * ) pxPreviousBlock->pxNextFreeBlock ) + heapSTRUCT_S
 165              	r3, .L12+20	@ tmp200,
 166 0154 08309DE5 		ldrh	r3, [r3, #0]	@ heapSTRUCT_SIZE.2, heapSTRUCT_SIZE
 167 0158 002093E5 		add	r3, r2, r3	@ tmp201, D.3312, D.3314
 168 015c 0C319FE5 		str	r3, [sp, #16]	@ tmp201, pvReturn
 169 0160 B030D3E1 		.loc 1 207 0
 170 0164 033082E0 		ldr	r3, [sp, #4]	@ tmp202, pxBlock
 171 0168 10308DE5 		ldr	r2, [r3, #0]	@ D.3315, <variable>.pxNextFreeBlock
 204:SRC/RTOS/heap_2.c **** 
 205:SRC/RTOS/heap_2.c **** 				/* This block is being returned for use so must be taken our of the
 206:SRC/RTOS/heap_2.c **** 				list of free blocks. */
 207:SRC/RTOS/heap_2.c **** 				pxPreviousBlock->pxNextFreeBlock = pxBlock->pxNextFreeBlock;
 172              	, [sp, #8]	@ tmp203, pxPreviousBlock
 173 016c 04309DE5 		str	r2, [r3, #0]	@ D.3315, <variable>.pxNextFreeBlock
 174 0170 002093E5 		.loc 1 210 0
 175 0174 08309DE5 		ldr	r3, [sp, #4]	@ tmp204, pxBlock
 176 0178 002083E5 		ldr	r2, [r3, #4]	@ D.3316, <variable>.xBlockSize
 208:SRC/RTOS/heap_2.c **** 
 209:SRC/RTOS/heap_2.c **** 				/* If the block is larger than required it can be split into two. */
 210:SRC/RTOS/heap_2.c **** 				if( ( pxBlock->xBlockSize - xWantedSize ) > heapMINIMUM_BLOCK_SIZE )
 177              	r3, [sp, #0]	@ tmp205, xWantedSize
 178 017c 04309DE5 		rsb	r2, r3, r2	@ D.3317, tmp205, D.3316
 179 0180 042093E5 		ldr	r3, .L12+20	@ tmp206,
 180 0184 00309DE5 		ldrh	r3, [r3, #0]	@ heapSTRUCT_SIZE.3, heapSTRUCT_SIZE
 181 0188 022063E0 		mov	r3, r3, asl #1	@ D.3320, D.3319,
 182 018c DC309FE5 		cmp	r2, r3	@ D.3317, D.3321
 183 0190 B030D3E1 		bls	.L8	@,
 184 0194 8330A0E1 		.loc 1 215 0
 185 0198 030052E1 		ldr	r2, [sp, #4]	@ tmp207, pxBlock
ARM GAS  C:\DOCUME~1\ZAQUAD~1\USTAWI~1\Temp/ccWMvjFd.s 			page 8


 186 019c 2200009A 		ldr	r3, [sp, #0]	@ tmp208, xWantedSize
 211:SRC/RTOS/heap_2.c **** 				{
 212:SRC/RTOS/heap_2.c **** 					/* This block is to be split into two.  Create a new block
 213:SRC/RTOS/heap_2.c **** 					following the number of bytes requested. The void cast is
 214:SRC/RTOS/heap_2.c **** 					used to prevent byte alignment warnings from the compiler. */
 215:SRC/RTOS/heap_2.c **** 					pxNewBlockLink = ( void * ) ( ( ( unsigned char * ) pxBlock ) + xWantedSize );
 187              	2, r3	@ tmp209, tmp207, tmp208
 188 01a0 04209DE5 		str	r3, [sp, #12]	@ tmp209, pxNewBlockLink
 189 01a4 00309DE5 		.loc 1 219 0
 190 01a8 033082E0 		ldr	r3, [sp, #4]	@ tmp210, pxBlock
 191 01ac 0C308DE5 		ldr	r2, [r3, #4]	@ D.3322, <variable>.xBlockSize
 216:SRC/RTOS/heap_2.c **** 
 217:SRC/RTOS/heap_2.c **** 					/* Calculate the sizes of two blocks split from the single
 218:SRC/RTOS/heap_2.c **** 					block. */
 219:SRC/RTOS/heap_2.c **** 					pxNewBlockLink->xBlockSize = pxBlock->xBlockSize - xWantedSize;
 192              	r3, [sp, #0]	@ tmp211, xWantedSize
 193 01b0 04309DE5 		rsb	r2, r3, r2	@ D.3323, tmp211, D.3322
 194 01b4 042093E5 		ldr	r3, [sp, #12]	@ tmp212, pxNewBlockLink
 195 01b8 00309DE5 		str	r2, [r3, #4]	@ D.3323, <variable>.xBlockSize
 196 01bc 022063E0 		.loc 1 220 0
 197 01c0 0C309DE5 		ldr	r2, [sp, #4]	@ tmp213, pxBlock
 198 01c4 042083E5 		ldr	r3, [sp, #0]	@ tmp214, xWantedSize
 220:SRC/RTOS/heap_2.c **** 					pxBlock->xBlockSize = xWantedSize;
 199              	, [r2, #4]	@ tmp214, <variable>.xBlockSize
 200 01c8 04209DE5 	.LBB3:
 201 01cc 00309DE5 		.loc 1 223 0
 202 01d0 043082E5 		ldr	r3, [sp, #12]	@ tmp215, pxNewBlockLink
 203              		ldr	r3, [r3, #4]	@ tmp216, <variable>.xBlockSize
 221:SRC/RTOS/heap_2.c **** 
 222:SRC/RTOS/heap_2.c **** 					/* Insert the new block into the list of free blocks. */
 223:SRC/RTOS/heap_2.c **** 					prvInsertBlockIntoFreeList( ( pxNewBlockLink ) );
 204              	r3, [sp, #28]	@ tmp216, xBlockSize
 205 01d4 0C309DE5 		ldr	r3, .L12+8	@ tmp217,
 206 01d8 043093E5 		str	r3, [sp, #24]	@ tmp217, pxIterator
 207 01dc 1C308DE5 		b	.L9	@
 208 01e0 7C309FE5 	.L10:
 209 01e4 18308DE5 		ldr	r3, [sp, #24]	@ tmp218, pxIterator
 210 01e8 020000EA 		ldr	r3, [r3, #0]	@ tmp219, <variable>.pxNextFreeBlock
 211              		str	r3, [sp, #24]	@ tmp219, pxIterator
 212 01ec 18309DE5 	.L9:
 213 01f0 003093E5 		ldr	r3, [sp, #24]	@ tmp220, pxIterator
 214 01f4 18308DE5 		ldr	r3, [r3, #0]	@ D.3324, <variable>.pxNextFreeBlock
 215              		ldr	r2, [r3, #4]	@ D.3325, <variable>.xBlockSize
 216 01f8 18309DE5 		ldr	r3, [sp, #28]	@ tmp221, xBlockSize
 217 01fc 003093E5 		cmp	r2, r3	@ D.3325, tmp221
 218 0200 042093E5 		bcc	.L10	@,
 219 0204 1C309DE5 		ldr	r3, [sp, #24]	@ tmp222, pxIterator
 220 0208 030052E1 		ldr	r2, [r3, #0]	@ D.3326, <variable>.pxNextFreeBlock
 221 020c F6FFFF3A 		ldr	r3, [sp, #12]	@ tmp223, pxNewBlockLink
 222 0210 18309DE5 		str	r2, [r3, #0]	@ D.3326, <variable>.pxNextFreeBlock
 223 0214 002093E5 		ldr	r2, [sp, #24]	@ tmp224, pxIterator
 224 0218 0C309DE5 		ldr	r3, [sp, #12]	@ tmp225, pxNewBlockLink
 225 021c 002083E5 		str	r3, [r2, #0]	@ tmp225, <variable>.pxNextFreeBlock
 226 0220 18209DE5 	.L8:
 227 0224 0C309DE5 	.LBE3:
 228 0228 003082E5 		.loc 1 226 0
 229              		ldr	r3, .L12+16	@ tmp226,
ARM GAS  C:\DOCUME~1\ZAQUAD~1\USTAWI~1\Temp/ccWMvjFd.s 			page 9


 230              		ldr	r2, [r3, #0]	@ xFreeBytesRemaining.4, xFreeBytesRemaining
 224:SRC/RTOS/heap_2.c **** 				}
 225:SRC/RTOS/heap_2.c **** 				
 226:SRC/RTOS/heap_2.c **** 				xFreeBytesRemaining -= xWantedSize;
 231              	 xWantedSize
 232 022c 38309FE5 		rsb	r2, r3, r2	@ xFreeBytesRemaining.5, tmp227, xFreeBytesRemaining.4
 233 0230 002093E5 		ldr	r3, .L12+16	@ tmp228,
 234 0234 00309DE5 		str	r2, [r3, #0]	@ xFreeBytesRemaining.5, xFreeBytesRemaining
 235 0238 022063E0 	.L4:
 236 023c 28309FE5 		.loc 1 230 0
 237 0240 002083E5 		bl	xTaskResumeAll	@
 238              		.loc 1 242 0
 227:SRC/RTOS/heap_2.c **** 			}
 228:SRC/RTOS/heap_2.c **** 		}
 229:SRC/RTOS/heap_2.c **** 	}
 230:SRC/RTOS/heap_2.c **** 	xTaskResumeAll();
 239              	 [sp, #16]	@ D.3329, pvReturn
 240 0244 FEFFFFEB 		.loc 1 243 0
 231:SRC/RTOS/heap_2.c **** 
 232:SRC/RTOS/heap_2.c **** 	#if( configUSE_MALLOC_FAILED_HOOK == 1 )
 233:SRC/RTOS/heap_2.c **** 	{
 234:SRC/RTOS/heap_2.c **** 		if( pvReturn == NULL )
 235:SRC/RTOS/heap_2.c **** 		{
 236:SRC/RTOS/heap_2.c **** 			extern void vApplicationMallocFailedHook( void );
 237:SRC/RTOS/heap_2.c **** 			vApplicationMallocFailedHook();
 238:SRC/RTOS/heap_2.c **** 		}
 239:SRC/RTOS/heap_2.c **** 	}
 240:SRC/RTOS/heap_2.c **** 	#endif
 241:SRC/RTOS/heap_2.c **** 
 242:SRC/RTOS/heap_2.c **** 	return pvReturn;
 241              	ov	r0, r3	@, <result>
 242 0248 10309DE5 		add	sp, sp, #32	@,,
 243:SRC/RTOS/heap_2.c **** }
 243              	dr	lr, [sp], #4
 244 024c 0300A0E1 		bx	lr
 245 0250 20D08DE2 	.L13:
 246 0254 04E09DE4 		.align	2
 247 0258 1EFF2FE1 	.L12:
 248              		.word	xHeapHasBeenInitialised.3293
 249              		.word	xHeap
 250              		.word	xStart
 251 025c 00000000 		.word	xEnd
 252 0260 04000000 		.word	xFreeBytesRemaining
 253 0264 04280000 		.word	heapSTRUCT_SIZE
 254 0268 0C280000 	.LFE2:
 255 026c 14280000 		.size	pvPortMalloc, .-pvPortMalloc
 256 0270 00000000 		.align	2
 257              		.global	vPortFree
 258              		.type	vPortFree, %function
 259              	vPortFree:
 260              	.LFB3:
 261              		.loc 1 247 0
 262              		@ Function supports interworking.
 263              		@ args = 0, pretend = 0, frame = 20
 244:SRC/RTOS/heap_2.c **** /*-----------------------------------------------------------*/
 245:SRC/RTOS/heap_2.c **** 
 246:SRC/RTOS/heap_2.c **** void vPortFree( void *pv )
ARM GAS  C:\DOCUME~1\ZAQUAD~1\USTAWI~1\Temp/ccWMvjFd.s 			page 10


 247:SRC/RTOS/heap_2.c **** {
 264              	uses_anonymous_args = 0
 265              		str	lr, [sp, #-4]!	@,
 266              	.LCFI2:
 267              		sub	sp, sp, #20	@,,
 268 0274 04E02DE5 	.LCFI3:
 269              		str	r0, [sp, #0]	@ pv, pv
 270 0278 14D04DE2 		.loc 1 248 0
 271              		ldr	r3, [sp, #0]	@ tmp142, pv
 272 027c 00008DE5 		str	r3, [sp, #4]	@ tmp142, puc
 248:SRC/RTOS/heap_2.c **** unsigned char *puc = ( unsigned char * ) pv;
 273              	51 0
 274 0280 00309DE5 		ldr	r3, [sp, #0]	@ tmp143, pv
 275 0284 04308DE5 		cmp	r3, #0	@ tmp143,
 249:SRC/RTOS/heap_2.c **** xBlockLink *pxLink;
 250:SRC/RTOS/heap_2.c **** 
 251:SRC/RTOS/heap_2.c **** 	if( pv )
 276              	q	.L18	@,
 277 0288 00309DE5 		.loc 1 255 0
 278 028c 000053E3 		ldr	r3, .L19	@ tmp144,
 279 0290 2600000A 		ldrh	r3, [r3, #0]	@ heapSTRUCT_SIZE.6, heapSTRUCT_SIZE
 252:SRC/RTOS/heap_2.c **** 	{
 253:SRC/RTOS/heap_2.c **** 		/* The memory being freed will have an xBlockLink structure immediately
 254:SRC/RTOS/heap_2.c **** 		before it. */
 255:SRC/RTOS/heap_2.c **** 		puc -= heapSTRUCT_SIZE;
 280              		r2, r3, #0	@ D.3358, D.3357
 281 0294 A0309FE5 		ldr	r3, [sp, #4]	@ tmp145, puc
 282 0298 B030D3E1 		add	r3, r3, r2	@ tmp146, tmp145, D.3358
 283 029c 002063E2 		str	r3, [sp, #4]	@ tmp146, puc
 284 02a0 04309DE5 		.loc 1 258 0
 285 02a4 023083E0 		ldr	r3, [sp, #4]	@ tmp147, puc
 286 02a8 04308DE5 		str	r3, [sp, #8]	@ tmp147, pxLink
 256:SRC/RTOS/heap_2.c **** 
 257:SRC/RTOS/heap_2.c **** 		/* This casting is to keep the compiler from issuing warnings. */
 258:SRC/RTOS/heap_2.c **** 		pxLink = ( void * ) puc;
 287              	 260 0
 288 02ac 04309DE5 		bl	vTaskSuspendAll	@
 289 02b0 08308DE5 	.LBB4:
 259:SRC/RTOS/heap_2.c **** 
 260:SRC/RTOS/heap_2.c **** 		vTaskSuspendAll();
 290              	oc 1 263 0
 291 02b4 FEFFFFEB 		ldr	r3, [sp, #8]	@ tmp148, pxLink
 292              		ldr	r3, [r3, #4]	@ tmp149, <variable>.xBlockSize
 261:SRC/RTOS/heap_2.c **** 		{
 262:SRC/RTOS/heap_2.c **** 			/* Add this block to the list of free blocks. */
 263:SRC/RTOS/heap_2.c **** 			prvInsertBlockIntoFreeList( ( ( xBlockLink * ) pxLink ) );
 293              	r	r3, [sp, #16]	@ tmp149, xBlockSize
 294 02b8 08309DE5 		ldr	r3, .L19+4	@ tmp150,
 295 02bc 043093E5 		str	r3, [sp, #12]	@ tmp150, pxIterator
 296 02c0 10308DE5 		b	.L16	@
 297 02c4 74309FE5 	.L17:
 298 02c8 0C308DE5 		ldr	r3, [sp, #12]	@ tmp151, pxIterator
 299 02cc 020000EA 		ldr	r3, [r3, #0]	@ tmp152, <variable>.pxNextFreeBlock
 300              		str	r3, [sp, #12]	@ tmp152, pxIterator
 301 02d0 0C309DE5 	.L16:
 302 02d4 003093E5 		ldr	r3, [sp, #12]	@ tmp153, pxIterator
 303 02d8 0C308DE5 		ldr	r3, [r3, #0]	@ D.3359, <variable>.pxNextFreeBlock
ARM GAS  C:\DOCUME~1\ZAQUAD~1\USTAWI~1\Temp/ccWMvjFd.s 			page 11


 304              		ldr	r2, [r3, #4]	@ D.3360, <variable>.xBlockSize
 305 02dc 0C309DE5 		ldr	r3, [sp, #16]	@ tmp154, xBlockSize
 306 02e0 003093E5 		cmp	r2, r3	@ D.3360, tmp154
 307 02e4 042093E5 		bcc	.L17	@,
 308 02e8 10309DE5 		ldr	r3, [sp, #12]	@ tmp155, pxIterator
 309 02ec 030052E1 		ldr	r2, [r3, #0]	@ D.3361, <variable>.pxNextFreeBlock
 310 02f0 F6FFFF3A 		ldr	r3, [sp, #8]	@ tmp156, pxLink
 311 02f4 0C309DE5 		str	r2, [r3, #0]	@ D.3361, <variable>.pxNextFreeBlock
 312 02f8 002093E5 		ldr	r2, [sp, #12]	@ tmp157, pxIterator
 313 02fc 08309DE5 		ldr	r3, [sp, #8]	@ tmp158, pxLink
 314 0300 002083E5 		str	r3, [r2, #0]	@ tmp158, <variable>.pxNextFreeBlock
 315 0304 0C209DE5 	.LBE4:
 316 0308 08309DE5 		.loc 1 264 0
 317 030c 003082E5 		ldr	r3, [sp, #8]	@ tmp159, pxLink
 318              		ldr	r2, [r3, #4]	@ D.3362, <variable>.xBlockSize
 264:SRC/RTOS/heap_2.c **** 			xFreeBytesRemaining += pxLink->xBlockSize;
 319              		ldr	r3, [r3, #0]	@ xFreeBytesRemaining.7, xFreeBytesRemaining
 320 0310 08309DE5 		add	r2, r2, r3	@ xFreeBytesRemaining.8, D.3362, xFreeBytesRemaining.7
 321 0314 042093E5 		ldr	r3, .L19+8	@ tmp161,
 322 0318 24309FE5 		str	r2, [r3, #0]	@ xFreeBytesRemaining.8, xFreeBytesRemaining
 323 031c 003093E5 		.loc 1 266 0
 324 0320 032082E0 		bl	xTaskResumeAll	@
 325 0324 18309FE5 	.L18:
 326 0328 002083E5 		.loc 1 268 0
 265:SRC/RTOS/heap_2.c **** 		}
 266:SRC/RTOS/heap_2.c **** 		xTaskResumeAll();
 327              	 sp, #20	@,,
 328 032c FEFFFFEB 		ldr	lr, [sp], #4
 329              		bx	lr
 267:SRC/RTOS/heap_2.c **** 	}
 268:SRC/RTOS/heap_2.c **** }
 330              	0:
 331 0330 14D08DE2 		.align	2
 332 0334 04E09DE4 	.L19:
 333 0338 1EFF2FE1 		.word	heapSTRUCT_SIZE
 334              		.word	xStart
 335              		.word	xFreeBytesRemaining
 336              	.LFE3:
 337 033c 00000000 		.size	vPortFree, .-vPortFree
 338 0340 04280000 		.align	2
 339 0344 14280000 		.global	xPortGetFreeHeapSize
 340              		.type	xPortGetFreeHeapSize, %function
 341              	xPortGetFreeHeapSize:
 342              	.LFB4:
 343              		.loc 1 272 0
 344              		@ Function supports interworking.
 345              		@ args = 0, pretend = 0, frame = 0
 346              		@ frame_needed = 0, uses_anonymous_args = 0
 269:SRC/RTOS/heap_2.c **** /*-----------------------------------------------------------*/
 270:SRC/RTOS/heap_2.c **** 
 271:SRC/RTOS/heap_2.c **** size_t xPortGetFreeHeapSize( void )
 272:SRC/RTOS/heap_2.c **** {
 347              	save eliminated.
 348              		.loc 1 273 0
 349              		ldr	r3, .L23	@ tmp135,
 350              		ldr	r3, [r3, #0]	@ D.3370, xFreeBytesRemaining
 351              		.loc 1 274 0
ARM GAS  C:\DOCUME~1\ZAQUAD~1\USTAWI~1\Temp/ccWMvjFd.s 			page 12


 273:SRC/RTOS/heap_2.c **** 	return xFreeBytesRemaining;
 352              	r0, r3	@, <result>
 353 0348 08309FE5 		bx	lr	@
 354 034c 003093E5 	.L24:
 274:SRC/RTOS/heap_2.c **** }
 355              	lign	2
 356 0350 0300A0E1 	.L23:
 357 0354 1EFF2FE1 		.word	xFreeBytesRemaining
 358              	.LFE4:
 359              		.size	xPortGetFreeHeapSize, .-xPortGetFreeHeapSize
 360              		.align	2
 361 0358 14280000 		.global	vPortInitialiseBlocks
 362              		.type	vPortInitialiseBlocks, %function
 363              	vPortInitialiseBlocks:
 364              	.LFB5:
 365              		.loc 1 278 0
 366              		@ Function supports interworking.
 367              		@ args = 0, pretend = 0, frame = 0
 368              		@ frame_needed = 0, uses_anonymous_args = 0
 275:SRC/RTOS/heap_2.c **** /*-----------------------------------------------------------*/
 276:SRC/RTOS/heap_2.c **** 
 277:SRC/RTOS/heap_2.c **** void vPortInitialiseBlocks( void )
 278:SRC/RTOS/heap_2.c **** {
 369              	er save eliminated.
 370              		.loc 1 280 0
 371              		bx	lr	@
 372              	.LFE5:
 373              		.size	vPortInitialiseBlocks, .-vPortInitialiseBlocks
 279:SRC/RTOS/heap_2.c **** 	/* This just exists to keep the linker quiet. */
 280:SRC/RTOS/heap_2.c **** }
 374              	
 375 035c 1EFF2FE1 		.align	2
 376              	xHeap:
 377              		.space	10240
 378              		.align	2
 379              	xStart:
 380              		.space	8
 381 0004 00000000 		.align	2
 381      00000000 
 381      00000000 
 381      00000000 
 381      00000000 
 382              	xEnd:
 383              		.space	8
 384 2804 00000000 		.align	2
 384      00000000 
 385              	xFreeBytesRemaining:
 386              		.space	4
 387 280c 00000000 		.section	.debug_frame,"",%progbits
 387      00000000 
 388              	.Lframe0:
 389              		.4byte	.LECIE0-.LSCIE0
 390 2814 00000000 	.LSCIE0:
 391              		.4byte	0xffffffff
 392              		.byte	0x1
 393 0000 0C000000 		.ascii	"\000"
 394              		.uleb128 0x1
ARM GAS  C:\DOCUME~1\ZAQUAD~1\USTAWI~1\Temp/ccWMvjFd.s 			page 13


 395 0004 FFFFFFFF 		.sleb128 -4
 396 0008 01       		.byte	0xe
 397 0009 00       		.byte	0xc
 398 000a 01       		.uleb128 0xd
 399 000b 7C       		.uleb128 0x0
 400 000c 0E       		.align	2
 401 000d 0C       	.LECIE0:
 402 000e 0D       	.LSFDE0:
 403 000f 00       		.4byte	.LEFDE0-.LASFDE0
 404              	.LASFDE0:
 405              		.4byte	.Lframe0
 406              		.4byte	.LFB2
 407 0010 14000000 		.4byte	.LFE2-.LFB2
 408              		.byte	0x4
 409 0014 00000000 		.4byte	.LCFI0-.LFB2
 410 0018 00000000 		.byte	0xe
 411 001c 74020000 		.uleb128 0x4
 412 0020 44       		.byte	0x4
 413              		.4byte	.LCFI1-.LCFI0
 414 0021 0E       		.byte	0xe
 415 0022 04       		.uleb128 0x24
 416 0023 44       		.byte	0x8e
 417              		.uleb128 0x1
 418 0024 0E       		.align	2
 419 0025 24       	.LEFDE0:
 420 0026 8E       	.LSFDE2:
 421 0027 01       		.4byte	.LEFDE2-.LASFDE2
 422              	.LASFDE2:
 423              		.4byte	.Lframe0
 424              		.4byte	.LFB3
 425 0028 14000000 		.4byte	.LFE3-.LFB3
 426              		.byte	0x4
 427 002c 00000000 		.4byte	.LCFI2-.LFB3
 428 0030 74020000 		.byte	0xe
 429 0034 D4000000 		.uleb128 0x4
 430 0038 44       		.byte	0x4
 431              		.4byte	.LCFI3-.LCFI2
 432 0039 0E       		.byte	0xe
 433 003a 04       		.uleb128 0x18
 434 003b 44       		.byte	0x8e
 435              		.uleb128 0x1
 436 003c 0E       		.align	2
 437 003d 18       	.LEFDE2:
 438 003e 8E       	.LSFDE4:
 439 003f 01       		.4byte	.LEFDE4-.LASFDE4
 440              	.LASFDE4:
 441              		.4byte	.Lframe0
 442              		.4byte	.LFB4
 443 0040 0C000000 		.4byte	.LFE4-.LFB4
 444              		.align	2
 445 0044 00000000 	.LEFDE4:
 446 0048 48030000 	.LSFDE6:
 447 004c 14000000 		.4byte	.LEFDE6-.LASFDE6
 448              	.LASFDE6:
 449              		.4byte	.Lframe0
 450              		.4byte	.LFB5
 451 0050 0C000000 		.4byte	.LFE5-.LFB5
ARM GAS  C:\DOCUME~1\ZAQUAD~1\USTAWI~1\Temp/ccWMvjFd.s 			page 14


 452              		.align	2
 453 0054 00000000 	.LEFDE6:
 454 0058 5C030000 		.text
 455 005c 04000000 	.Letext0: