ARM GAS  C:\DOCUME~1\ZAQUAD~1\USTAWI~1\Temp/cc8ScQWs.s 			page 1


   1              		.file	"list.c"
   2              	@ GNU C (GCC) version 4.3.3 (arm-elf)
   3              	@	compiled by GNU C version 3.4.5 (mingw special), GMP version 4.2.2, MPFR version 2.3.1.
   4              	@ GGC heuristics: --param ggc-min-expand=100 --param ggc-min-heapsize=131072
   5              	@ options passed:  -I . -IINC/ -IINC/RTOS/ -imultilib interwork -iprefix
   6              	@ d:\programy\mikrokontrolery\arm\yagarto\bin\../lib/gcc/arm-elf/4.3.3/ -MD
   7              	@ SRC/RTOS/list.d -MF .dep/list.o.d -MP -MQ SRC/RTOS/list.o
   8              	@ -D__USES_INITFINI__ SRC/RTOS/list.c -mcpu=arm7tdmi -mthumb-interwork
   9              	@ -auxbase-strip SRC/RTOS/list.o -gdwarf-2 -O0 -Wall -Wstrict-prototypes
  10              	@ -fomit-frame-pointer -fverbose-asm
  11              	@ options enabled:  -falign-loops -fargument-alias -fauto-inc-dec
  12              	@ -fbranch-count-reg -fcommon -fearly-inlining
  13              	@ -feliminate-unused-debug-types -ffunction-cse -fgcse-lm -fident -fivopts
  14              	@ -fkeep-static-consts -fleading-underscore -fmath-errno
  15              	@ -fmerge-debug-strings -fmove-loop-invariants -fomit-frame-pointer
  16              	@ -fpeephole -freg-struct-return -fsched-interblock -fsched-spec
  17              	@ -fsched-stalled-insns-dep -fsigned-zeros -fsplit-ivs-in-unroller
  18              	@ -ftoplevel-reorder -ftrapping-math -ftree-cselim -ftree-loop-im
  19              	@ -ftree-loop-ivcanon -ftree-loop-optimize -ftree-parallelize-loops=
  20              	@ -ftree-reassoc -ftree-scev-cprop -ftree-vect-loop-version -fverbose-asm
  21              	@ -fzero-initialized-in-bss -mlittle-endian -msched-prolog
  22              	@ -mthumb-interwork
  23              	
  30 0000 8A000000 		.text
  30      02004800 
  30      00000201 
  30      FB0E0D00 
  30      01010101 
  31              	.Ltext0:
  32              	@ Compiler executable checksum: aefe8b2555dadc8858779d7450a1d1fb
  33              	
  34              		.align	2
  35              		.global	vListInitialise
  36              		.type	vListInitialise, %function
  37              	vListInitialise:
  38              	.LFB2:
  39              		.file 1 "SRC/RTOS/list.c"
   1:SRC/RTOS/list.c **** /*
   2:SRC/RTOS/list.c ****     FreeRTOS V6.0.2 - Copyright (C) 2010 Real Time Engineers Ltd.
   3:SRC/RTOS/list.c **** 
   4:SRC/RTOS/list.c ****     ***************************************************************************
   5:SRC/RTOS/list.c ****     *                                                                         *
   6:SRC/RTOS/list.c ****     * If you are:                                                             *
   7:SRC/RTOS/list.c ****     *                                                                         *
   8:SRC/RTOS/list.c ****     *    + New to FreeRTOS,                                                   *
   9:SRC/RTOS/list.c ****     *    + Wanting to learn FreeRTOS or multitasking in general quickly       *
  10:SRC/RTOS/list.c ****     *    + Looking for basic training,                                        *
  11:SRC/RTOS/list.c ****     *    + Wanting to improve your FreeRTOS skills and productivity           *
  12:SRC/RTOS/list.c ****     *                                                                         *
  13:SRC/RTOS/list.c ****     * then take a look at the FreeRTOS eBook                                  *
  14:SRC/RTOS/list.c ****     *                                                                         *
ARM GAS  C:\DOCUME~1\ZAQUAD~1\USTAWI~1\Temp/cc8ScQWs.s 			page 2


  15:SRC/RTOS/list.c ****     *        "Using the FreeRTOS Real Time Kernel - a Practical Guide"        *
  16:SRC/RTOS/list.c ****     *                  http://www.FreeRTOS.org/Documentation                  *
  17:SRC/RTOS/list.c ****     *                                                                         *
  18:SRC/RTOS/list.c ****     * A pdf reference manual is also available.  Both are usually delivered   *
  19:SRC/RTOS/list.c ****     * to your inbox within 20 minutes to two hours when purchased between 8am *
  20:SRC/RTOS/list.c ****     * and 8pm GMT (although please allow up to 24 hours in case of            *
  21:SRC/RTOS/list.c ****     * exceptional circumstances).  Thank you for your support!                *
  22:SRC/RTOS/list.c ****     *                                                                         *
  23:SRC/RTOS/list.c ****     ***************************************************************************
  24:SRC/RTOS/list.c **** 
  25:SRC/RTOS/list.c ****     This file is part of the FreeRTOS distribution.
  26:SRC/RTOS/list.c **** 
  27:SRC/RTOS/list.c ****     FreeRTOS is free software; you can redistribute it and/or modify it under
  28:SRC/RTOS/list.c ****     the terms of the GNU General Public License (version 2) as published by the
  29:SRC/RTOS/list.c ****     Free Software Foundation AND MODIFIED BY the FreeRTOS exception.
  30:SRC/RTOS/list.c ****     ***NOTE*** The exception to the GPL is included to allow you to distribute
  31:SRC/RTOS/list.c ****     a combined work that includes FreeRTOS without being obliged to provide the
  32:SRC/RTOS/list.c ****     source code for proprietary components outside of the FreeRTOS kernel.
  33:SRC/RTOS/list.c ****     FreeRTOS is distributed in the hope that it will be useful, but WITHOUT
  34:SRC/RTOS/list.c ****     ANY WARRANTY; without even the implied warranty of MERCHANTABILITY or
  35:SRC/RTOS/list.c ****     FITNESS FOR A PARTICULAR PURPOSE.  See the GNU General Public License for
  36:SRC/RTOS/list.c ****     more details. You should have received a copy of the GNU General Public 
  37:SRC/RTOS/list.c ****     License and the FreeRTOS license exception along with FreeRTOS; if not it 
  38:SRC/RTOS/list.c ****     can be viewed here: http://www.freertos.org/a00114.html and also obtained 
  39:SRC/RTOS/list.c ****     by writing to Richard Barry, contact details for whom are available on the
  40:SRC/RTOS/list.c ****     FreeRTOS WEB site.
  41:SRC/RTOS/list.c **** 
  42:SRC/RTOS/list.c ****     1 tab == 4 spaces!
  43:SRC/RTOS/list.c **** 
  44:SRC/RTOS/list.c ****     http://www.FreeRTOS.org - Documentation, latest information, license and
  45:SRC/RTOS/list.c ****     contact details.
  46:SRC/RTOS/list.c **** 
  47:SRC/RTOS/list.c ****     http://www.SafeRTOS.com - A version that is certified for use in safety
  48:SRC/RTOS/list.c ****     critical systems.
  49:SRC/RTOS/list.c **** 
  50:SRC/RTOS/list.c ****     http://www.OpenRTOS.com - Commercial support, development, porting,
  51:SRC/RTOS/list.c ****     licensing and training services.
  52:SRC/RTOS/list.c **** */
  53:SRC/RTOS/list.c **** 
  54:SRC/RTOS/list.c **** 
  55:SRC/RTOS/list.c **** #include <stdlib.h>
  56:SRC/RTOS/list.c **** #include "FreeRTOS.h"
  57:SRC/RTOS/list.c **** #include "list.h"
  58:SRC/RTOS/list.c **** 
  59:SRC/RTOS/list.c **** /*-----------------------------------------------------------
  60:SRC/RTOS/list.c ****  * PUBLIC LIST API documented in list.h
  61:SRC/RTOS/list.c ****  *----------------------------------------------------------*/
  62:SRC/RTOS/list.c **** 
  63:SRC/RTOS/list.c **** void vListInitialise( xList *pxList )
  64:SRC/RTOS/list.c **** {
  40              	working.
  41              		@ args = 0, pretend = 0, frame = 4
  42              		@ frame_needed = 0, uses_anonymous_args = 0
  43              		@ link register save eliminated.
  44              		sub	sp, sp, #4	@,,
  45 0000 04D04DE2 	.LCFI0:
  46              		str	r0, [sp, #0]	@ pxList, pxList
ARM GAS  C:\DOCUME~1\ZAQUAD~1\USTAWI~1\Temp/cc8ScQWs.s 			page 3


  47 0004 00008DE5 		.loc 1 68 0
  65:SRC/RTOS/list.c **** 	/* The list structure contains a list item which is used to mark the
  66:SRC/RTOS/list.c **** 	end of the list.  To initialise the list the list end is inserted
  67:SRC/RTOS/list.c **** 	as the only list entry. */
  68:SRC/RTOS/list.c **** 	pxList->pxIndex = ( xListItem * ) &( pxList->xListEnd );
  48              	 [sp, #0]	@ tmp139, pxList
  49 0008 00309DE5 		add	r3, r3, #8	@ D.3170, tmp139,
  50 000c 083083E2 		mov	r2, r3	@ D.3171, D.3170
  51 0010 0320A0E1 		ldr	r3, [sp, #0]	@ tmp140, pxList
  52 0014 00309DE5 		str	r2, [r3, #4]	@ D.3171, <variable>.pxIndex
  53 0018 042083E5 		.loc 1 72 0
  69:SRC/RTOS/list.c **** 
  70:SRC/RTOS/list.c **** 	/* The list end value is the highest possible value in the list to
  71:SRC/RTOS/list.c **** 	ensure it remains at the end of the list. */
  72:SRC/RTOS/list.c **** 	pxList->xListEnd.xItemValue = portMAX_DELAY;
  54              	2, [sp, #0]	@ tmp141, pxList
  55 001c 00209DE5 		mvn	r3, #0	@ tmp142,
  56 0020 0030E0E3 		str	r3, [r2, #8]	@ tmp142, <variable>.xListEnd.xItemValue
  57 0024 083082E5 		.loc 1 76 0
  73:SRC/RTOS/list.c **** 
  74:SRC/RTOS/list.c **** 	/* The list end next and previous pointers point to itself so we know
  75:SRC/RTOS/list.c **** 	when the list is empty. */
  76:SRC/RTOS/list.c **** 	pxList->xListEnd.pxNext = ( xListItem * ) &( pxList->xListEnd );
  58              		r3, [sp, #0]	@ tmp143, pxList
  59 0028 00309DE5 		add	r3, r3, #8	@ D.3172, tmp143,
  60 002c 083083E2 		mov	r2, r3	@ D.3173, D.3172
  61 0030 0320A0E1 		ldr	r3, [sp, #0]	@ tmp144, pxList
  62 0034 00309DE5 		str	r2, [r3, #12]	@ D.3173, <variable>.xListEnd.pxNext
  63 0038 0C2083E5 		.loc 1 77 0
  77:SRC/RTOS/list.c **** 	pxList->xListEnd.pxPrevious = ( xListItem * ) &( pxList->xListEnd );
  64              	3, [sp, #0]	@ tmp145, pxList
  65 003c 00309DE5 		add	r3, r3, #8	@ D.3174, tmp145,
  66 0040 083083E2 		mov	r2, r3	@ D.3175, D.3174
  67 0044 0320A0E1 		ldr	r3, [sp, #0]	@ tmp146, pxList
  68 0048 00309DE5 		str	r2, [r3, #16]	@ D.3175, <variable>.xListEnd.pxPrevious
  69 004c 102083E5 		.loc 1 79 0
  78:SRC/RTOS/list.c **** 
  79:SRC/RTOS/list.c **** 	pxList->uxNumberOfItems = 0;
  70              	2, [sp, #0]	@ tmp147, pxList
  71 0050 00209DE5 		mov	r3, #0	@ tmp148,
  72 0054 0030A0E3 		str	r3, [r2, #0]	@ tmp148, <variable>.uxNumberOfItems
  73 0058 003082E5 		.loc 1 80 0
  80:SRC/RTOS/list.c **** }
  74              		sp, sp, #4	@,,
  75 005c 04D08DE2 		bx	lr
  76 0060 1EFF2FE1 	.LFE2:
  77              		.size	vListInitialise, .-vListInitialise
  78              		.align	2
  79              		.global	vListInitialiseItem
  80              		.type	vListInitialiseItem, %function
  81              	vListInitialiseItem:
  82              	.LFB3:
  83              		.loc 1 84 0
  81:SRC/RTOS/list.c **** /*-----------------------------------------------------------*/
  82:SRC/RTOS/list.c **** 
  83:SRC/RTOS/list.c **** void vListInitialiseItem( xListItem *pxItem )
  84:SRC/RTOS/list.c **** {
ARM GAS  C:\DOCUME~1\ZAQUAD~1\USTAWI~1\Temp/cc8ScQWs.s 			page 4


  84              	n supports interworking.
  85              		@ args = 0, pretend = 0, frame = 4
  86              		@ frame_needed = 0, uses_anonymous_args = 0
  87              		@ link register save eliminated.
  88              		sub	sp, sp, #4	@,,
  89 0064 04D04DE2 	.LCFI1:
  90              		str	r0, [sp, #0]	@ pxItem, pxItem
  91 0068 00008DE5 		.loc 1 86 0
  85:SRC/RTOS/list.c **** 	/* Make sure the list item is not recorded as being on a list. */
  86:SRC/RTOS/list.c **** 	pxItem->pvContainer = NULL;
  92              	 [sp, #0]	@ tmp133, pxItem
  93 006c 00209DE5 		mov	r3, #0	@ tmp134,
  94 0070 0030A0E3 		str	r3, [r2, #16]	@ tmp134, <variable>.pvContainer
  95 0074 103082E5 		.loc 1 87 0
  87:SRC/RTOS/list.c **** }
  96              		sp, sp, #4	@,,
  97 0078 04D08DE2 		bx	lr
  98 007c 1EFF2FE1 	.LFE3:
  99              		.size	vListInitialiseItem, .-vListInitialiseItem
 100              		.align	2
 101              		.global	vListInsertEnd
 102              		.type	vListInsertEnd, %function
 103              	vListInsertEnd:
 104              	.LFB4:
 105              		.loc 1 91 0
  88:SRC/RTOS/list.c **** /*-----------------------------------------------------------*/
  89:SRC/RTOS/list.c **** 
  90:SRC/RTOS/list.c **** void vListInsertEnd( xList *pxList, xListItem *pxNewListItem )
  91:SRC/RTOS/list.c **** {
 106              	n supports interworking.
 107              		@ args = 0, pretend = 0, frame = 12
 108              		@ frame_needed = 0, uses_anonymous_args = 0
 109              		@ link register save eliminated.
 110              		sub	sp, sp, #12	@,,
 111 0080 0CD04DE2 	.LCFI2:
 112              		str	r0, [sp, #4]	@ pxList, pxList
 113 0084 04008DE5 		str	r1, [sp, #0]	@ pxNewListItem, pxNewListItem
 114 0088 00108DE5 		.loc 1 98 0
  92:SRC/RTOS/list.c **** volatile xListItem * pxIndex;
  93:SRC/RTOS/list.c **** 
  94:SRC/RTOS/list.c **** 	/* Insert a new list item into pxList, but rather than sort the list,
  95:SRC/RTOS/list.c **** 	makes the new list item the last item to be removed by a call to
  96:SRC/RTOS/list.c **** 	pvListGetOwnerOfNextEntry.  This means it has to be the item pointed to by
  97:SRC/RTOS/list.c **** 	the pxIndex member. */
  98:SRC/RTOS/list.c **** 	pxIndex = pxList->pxIndex;
 115              	[sp, #4]	@ tmp141, pxList
 116 008c 04309DE5 		ldr	r3, [r3, #4]	@ tmp142, <variable>.pxIndex
 117 0090 043093E5 		str	r3, [sp, #8]	@ tmp142, pxIndex
 118 0094 08308DE5 		.loc 1 100 0
  99:SRC/RTOS/list.c **** 
 100:SRC/RTOS/list.c **** 	pxNewListItem->pxNext = pxIndex->pxNext;
 119              		r3, [sp, #8]	@ tmp143, pxIndex
 120 0098 08309DE5 		ldr	r2, [r3, #4]	@ D.3184, <variable>.pxNext
 121 009c 042093E5 		ldr	r3, [sp, #0]	@ tmp144, pxNewListItem
 122 00a0 00309DE5 		str	r2, [r3, #4]	@ D.3184, <variable>.pxNext
 123 00a4 042083E5 		.loc 1 101 0
 101:SRC/RTOS/list.c **** 	pxNewListItem->pxPrevious = pxList->pxIndex;
ARM GAS  C:\DOCUME~1\ZAQUAD~1\USTAWI~1\Temp/cc8ScQWs.s 			page 5


 124              	r3, [sp, #4]	@ tmp145, pxList
 125 00a8 04309DE5 		ldr	r2, [r3, #4]	@ D.3185, <variable>.pxIndex
 126 00ac 042093E5 		ldr	r3, [sp, #0]	@ tmp146, pxNewListItem
 127 00b0 00309DE5 		str	r2, [r3, #8]	@ D.3185, <variable>.pxPrevious
 128 00b4 082083E5 		.loc 1 102 0
 102:SRC/RTOS/list.c **** 	pxIndex->pxNext->pxPrevious = ( volatile xListItem * ) pxNewListItem;
 129              	r3, [sp, #8]	@ tmp147, pxIndex
 130 00b8 08309DE5 		ldr	r2, [r3, #4]	@ D.3186, <variable>.pxNext
 131 00bc 042093E5 		ldr	r3, [sp, #0]	@ pxNewListItem.0, pxNewListItem
 132 00c0 00309DE5 		str	r3, [r2, #8]	@ pxNewListItem.0, <variable>.pxPrevious
 133 00c4 083082E5 		.loc 1 103 0
 103:SRC/RTOS/list.c **** 	pxIndex->pxNext = ( volatile xListItem * ) pxNewListItem;
 134              	r2, [sp, #0]	@ pxNewListItem.1, pxNewListItem
 135 00c8 00209DE5 		ldr	r3, [sp, #8]	@ tmp148, pxIndex
 136 00cc 08309DE5 		str	r2, [r3, #4]	@ pxNewListItem.1, <variable>.pxNext
 137 00d0 042083E5 		.loc 1 104 0
 104:SRC/RTOS/list.c **** 	pxList->pxIndex = ( volatile xListItem * ) pxNewListItem;
 138              		r2, [sp, #0]	@ pxNewListItem.2, pxNewListItem
 139 00d4 00209DE5 		ldr	r3, [sp, #4]	@ tmp149, pxList
 140 00d8 04309DE5 		str	r2, [r3, #4]	@ pxNewListItem.2, <variable>.pxIndex
 141 00dc 042083E5 		.loc 1 107 0
 105:SRC/RTOS/list.c **** 
 106:SRC/RTOS/list.c **** 	/* Remember which list the item is in. */
 107:SRC/RTOS/list.c **** 	pxNewListItem->pvContainer = ( void * ) pxList;
 142              		r2, [sp, #0]	@ tmp150, pxNewListItem
 143 00e0 00209DE5 		ldr	r3, [sp, #4]	@ tmp151, pxList
 144 00e4 04309DE5 		str	r3, [r2, #16]	@ tmp151, <variable>.pvContainer
 145 00e8 103082E5 		.loc 1 109 0
 108:SRC/RTOS/list.c **** 
 109:SRC/RTOS/list.c **** 	( pxList->uxNumberOfItems )++;
 146              		r3, [sp, #4]	@ tmp152, pxList
 147 00ec 04309DE5 		ldr	r3, [r3, #0]	@ D.3190, <variable>.uxNumberOfItems
 148 00f0 003093E5 		add	r2, r3, #1	@ D.3191, D.3190,
 149 00f4 012083E2 		ldr	r3, [sp, #4]	@ tmp153, pxList
 150 00f8 04309DE5 		str	r2, [r3, #0]	@ D.3191, <variable>.uxNumberOfItems
 151 00fc 002083E5 		.loc 1 110 0
 110:SRC/RTOS/list.c **** }
 152              	p, sp, #12	@,,
 153 0100 0CD08DE2 		bx	lr
 154 0104 1EFF2FE1 	.LFE4:
 155              		.size	vListInsertEnd, .-vListInsertEnd
 156              		.align	2
 157              		.global	vListInsert
 158              		.type	vListInsert, %function
 159              	vListInsert:
 160              	.LFB5:
 161              		.loc 1 114 0
 111:SRC/RTOS/list.c **** /*-----------------------------------------------------------*/
 112:SRC/RTOS/list.c **** 
 113:SRC/RTOS/list.c **** void vListInsert( xList *pxList, xListItem *pxNewListItem )
 114:SRC/RTOS/list.c **** {
 162              	n supports interworking.
 163              		@ args = 0, pretend = 0, frame = 16
 164              		@ frame_needed = 0, uses_anonymous_args = 0
 165              		@ link register save eliminated.
 166              		sub	sp, sp, #16	@,,
 167 0108 10D04DE2 	.LCFI3:
ARM GAS  C:\DOCUME~1\ZAQUAD~1\USTAWI~1\Temp/cc8ScQWs.s 			page 6


 168              		str	r0, [sp, #4]	@ pxList, pxList
 169 010c 04008DE5 		str	r1, [sp, #0]	@ pxNewListItem, pxNewListItem
 170 0110 00108DE5 		.loc 1 119 0
 115:SRC/RTOS/list.c **** volatile xListItem *pxIterator;
 116:SRC/RTOS/list.c **** portTickType xValueOfInsertion;
 117:SRC/RTOS/list.c **** 
 118:SRC/RTOS/list.c **** 	/* Insert the new list item into the list, sorted in ulListItem order. */
 119:SRC/RTOS/list.c **** 	xValueOfInsertion = pxNewListItem->xItemValue;
 171              	[sp, #0]	@ tmp142, pxNewListItem
 172 0114 00309DE5 		ldr	r3, [r3, #0]	@ tmp143, <variable>.xItemValue
 173 0118 003093E5 		str	r3, [sp, #12]	@ tmp143, xValueOfInsertion
 174 011c 0C308DE5 		.loc 1 128 0
 120:SRC/RTOS/list.c **** 
 121:SRC/RTOS/list.c **** 	/* If the list already contains a list item with the same item value then
 122:SRC/RTOS/list.c **** 	the new list item should be placed after it.  This ensures that TCB's which
 123:SRC/RTOS/list.c **** 	are stored in ready lists (all of which have the same ulListItem value)
 124:SRC/RTOS/list.c **** 	get an equal share of the CPU.  However, if the xItemValue is the same as 
 125:SRC/RTOS/list.c **** 	the back marker the iteration loop below will not end.  This means we need
 126:SRC/RTOS/list.c **** 	to guard against this by checking the value first and modifying the 
 127:SRC/RTOS/list.c **** 	algorithm slightly if necessary. */
 128:SRC/RTOS/list.c **** 	if( xValueOfInsertion == portMAX_DELAY )
 175              		r3, [sp, #12]	@ tmp144, xValueOfInsertion
 176 0120 0C309DE5 		cmn	r3, #1	@ tmp144,
 177 0124 010073E3 		bne	.L8	@,
 178 0128 0300001A 		.loc 1 130 0
 129:SRC/RTOS/list.c **** 	{
 130:SRC/RTOS/list.c **** 		pxIterator = pxList->xListEnd.pxPrevious;
 179              		r3, [sp, #4]	@ tmp145, pxList
 180 012c 04309DE5 		ldr	r3, [r3, #16]	@ tmp146, <variable>.xListEnd.pxPrevious
 181 0130 103093E5 		str	r3, [sp, #8]	@ tmp146, pxIterator
 182 0134 08308DE5 		b	.L9	@
 183 0138 0C0000EA 	.L8:
 184              		.loc 1 150 0
 131:SRC/RTOS/list.c **** 	}
 132:SRC/RTOS/list.c **** 	else
 133:SRC/RTOS/list.c **** 	{
 134:SRC/RTOS/list.c **** 		/* *** NOTE ***********************************************************
 135:SRC/RTOS/list.c **** 		If you find your application is crashing here then likely causes are:
 136:SRC/RTOS/list.c **** 			1) Stack overflow - 
 137:SRC/RTOS/list.c **** 			   see http://www.freertos.org/Stacks-and-stack-overflow-checking.html
 138:SRC/RTOS/list.c **** 			2) Incorrect interrupt priority assignment, especially on Cortex M3 
 139:SRC/RTOS/list.c **** 			   parts where numerically high priority values denote low actual 
 140:SRC/RTOS/list.c **** 			   interrupt priories, which can seem counter intuitive.  See 
 141:SRC/RTOS/list.c **** 			   configMAX_SYSCALL_INTERRUPT_PRIORITY on http://www.freertos.org/a00110.html
 142:SRC/RTOS/list.c **** 			3) Calling an API function from within a critical section or when
 143:SRC/RTOS/list.c **** 			   the scheduler is suspended.
 144:SRC/RTOS/list.c **** 			4) Using a queue or semaphore before it has been initialised or
 145:SRC/RTOS/list.c **** 			   before the scheduler has been started (are interrupts firing
 146:SRC/RTOS/list.c **** 			   before vTaskStartScheduler() has been called?).
 147:SRC/RTOS/list.c **** 		See http://www.freertos.org/FAQHelp.html for more tips. 
 148:SRC/RTOS/list.c **** 		**********************************************************************/
 149:SRC/RTOS/list.c **** 		
 150:SRC/RTOS/list.c **** 		for( pxIterator = ( xListItem * ) &( pxList->xListEnd ); pxIterator->pxNext->xItemValue <= xValue
 185              	3, [sp, #4]	@ tmp147, pxList
 186 013c 04309DE5 		add	r3, r3, #8	@ D.3201, tmp147,
 187 0140 083083E2 		str	r3, [sp, #8]	@ D.3201, pxIterator
 188 0144 08308DE5 		b	.L10	@
ARM GAS  C:\DOCUME~1\ZAQUAD~1\USTAWI~1\Temp/cc8ScQWs.s 			page 7


 189 0148 020000EA 	.L11:
 190              		ldr	r3, [sp, #8]	@ tmp148, pxIterator
 191 014c 08309DE5 		ldr	r3, [r3, #4]	@ tmp149, <variable>.pxNext
 192 0150 043093E5 		str	r3, [sp, #8]	@ tmp149, pxIterator
 193 0154 08308DE5 	.L10:
 194              		ldr	r3, [sp, #8]	@ tmp150, pxIterator
 195 0158 08309DE5 		ldr	r3, [r3, #4]	@ D.3202, <variable>.pxNext
 196 015c 043093E5 		ldr	r2, [r3, #0]	@ D.3203, <variable>.xItemValue
 197 0160 002093E5 		ldr	r3, [sp, #12]	@ tmp151, xValueOfInsertion
 198 0164 0C309DE5 		cmp	r2, r3	@ D.3203, tmp151
 199 0168 030052E1 		bls	.L11	@,
 200 016c F6FFFF9A 	.L9:
 201              		.loc 1 157 0
 151:SRC/RTOS/list.c **** 		{
 152:SRC/RTOS/list.c **** 			/* There is nothing to do here, we are just iterating to the
 153:SRC/RTOS/list.c **** 			wanted insertion position. */
 154:SRC/RTOS/list.c **** 		}
 155:SRC/RTOS/list.c **** 	}
 156:SRC/RTOS/list.c **** 
 157:SRC/RTOS/list.c **** 	pxNewListItem->pxNext = pxIterator->pxNext;
 202              		@ tmp152, pxIterator
 203 0170 08309DE5 		ldr	r2, [r3, #4]	@ D.3204, <variable>.pxNext
 204 0174 042093E5 		ldr	r3, [sp, #0]	@ tmp153, pxNewListItem
 205 0178 00309DE5 		str	r2, [r3, #4]	@ D.3204, <variable>.pxNext
 206 017c 042083E5 		.loc 1 158 0
 158:SRC/RTOS/list.c **** 	pxNewListItem->pxNext->pxPrevious = ( volatile xListItem * ) pxNewListItem;
 207              	r3, [sp, #0]	@ tmp154, pxNewListItem
 208 0180 00309DE5 		ldr	r2, [r3, #4]	@ D.3205, <variable>.pxNext
 209 0184 042093E5 		ldr	r3, [sp, #0]	@ pxNewListItem.3, pxNewListItem
 210 0188 00309DE5 		str	r3, [r2, #8]	@ pxNewListItem.3, <variable>.pxPrevious
 211 018c 083082E5 		.loc 1 159 0
 159:SRC/RTOS/list.c **** 	pxNewListItem->pxPrevious = pxIterator;
 212              	r2, [sp, #0]	@ tmp155, pxNewListItem
 213 0190 00209DE5 		ldr	r3, [sp, #8]	@ tmp156, pxIterator
 214 0194 08309DE5 		str	r3, [r2, #8]	@ tmp156, <variable>.pxPrevious
 215 0198 083082E5 		.loc 1 160 0
 160:SRC/RTOS/list.c **** 	pxIterator->pxNext = ( volatile xListItem * ) pxNewListItem;
 216              		r2, [sp, #0]	@ pxNewListItem.4, pxNewListItem
 217 019c 00209DE5 		ldr	r3, [sp, #8]	@ tmp157, pxIterator
 218 01a0 08309DE5 		str	r2, [r3, #4]	@ pxNewListItem.4, <variable>.pxNext
 219 01a4 042083E5 		.loc 1 164 0
 161:SRC/RTOS/list.c **** 
 162:SRC/RTOS/list.c **** 	/* Remember which list the item is in.  This allows fast removal of the
 163:SRC/RTOS/list.c **** 	item later. */
 164:SRC/RTOS/list.c **** 	pxNewListItem->pvContainer = ( void * ) pxList;
 220              		r2, [sp, #0]	@ tmp158, pxNewListItem
 221 01a8 00209DE5 		ldr	r3, [sp, #4]	@ tmp159, pxList
 222 01ac 04309DE5 		str	r3, [r2, #16]	@ tmp159, <variable>.pvContainer
 223 01b0 103082E5 		.loc 1 166 0
 165:SRC/RTOS/list.c **** 
 166:SRC/RTOS/list.c **** 	( pxList->uxNumberOfItems )++;
 224              		r3, [sp, #4]	@ tmp160, pxList
 225 01b4 04309DE5 		ldr	r3, [r3, #0]	@ D.3208, <variable>.uxNumberOfItems
 226 01b8 003093E5 		add	r2, r3, #1	@ D.3209, D.3208,
 227 01bc 012083E2 		ldr	r3, [sp, #4]	@ tmp161, pxList
 228 01c0 04309DE5 		str	r2, [r3, #0]	@ D.3209, <variable>.uxNumberOfItems
 229 01c4 002083E5 		.loc 1 167 0
ARM GAS  C:\DOCUME~1\ZAQUAD~1\USTAWI~1\Temp/cc8ScQWs.s 			page 8


 167:SRC/RTOS/list.c **** }
 230              	p, sp, #16	@,,
 231 01c8 10D08DE2 		bx	lr
 232 01cc 1EFF2FE1 	.LFE5:
 233              		.size	vListInsert, .-vListInsert
 234              		.align	2
 235              		.global	vListRemove
 236              		.type	vListRemove, %function
 237              	vListRemove:
 238              	.LFB6:
 239              		.loc 1 171 0
 168:SRC/RTOS/list.c **** /*-----------------------------------------------------------*/
 169:SRC/RTOS/list.c **** 
 170:SRC/RTOS/list.c **** void vListRemove( xListItem *pxItemToRemove )
 171:SRC/RTOS/list.c **** {
 240              	n supports interworking.
 241              		@ args = 0, pretend = 0, frame = 8
 242              		@ frame_needed = 0, uses_anonymous_args = 0
 243              		@ link register save eliminated.
 244              		sub	sp, sp, #8	@,,
 245 01d0 08D04DE2 	.LCFI4:
 246              		str	r0, [sp, #0]	@ pxItemToRemove, pxItemToRemove
 247 01d4 00008DE5 		.loc 1 174 0
 172:SRC/RTOS/list.c **** xList * pxList;
 173:SRC/RTOS/list.c **** 
 174:SRC/RTOS/list.c **** 	pxItemToRemove->pxNext->pxPrevious = pxItemToRemove->pxPrevious;
 248              	 [sp, #0]	@ tmp143, pxItemToRemove
 249 01d8 00309DE5 		ldr	r2, [r3, #4]	@ D.3217, <variable>.pxNext
 250 01dc 042093E5 		ldr	r3, [sp, #0]	@ tmp144, pxItemToRemove
 251 01e0 00309DE5 		ldr	r3, [r3, #8]	@ D.3218, <variable>.pxPrevious
 252 01e4 083093E5 		str	r3, [r2, #8]	@ D.3218, <variable>.pxPrevious
 253 01e8 083082E5 		.loc 1 175 0
 175:SRC/RTOS/list.c **** 	pxItemToRemove->pxPrevious->pxNext = pxItemToRemove->pxNext;
 254              	3, [sp, #0]	@ tmp145, pxItemToRemove
 255 01ec 00309DE5 		ldr	r2, [r3, #8]	@ D.3219, <variable>.pxPrevious
 256 01f0 082093E5 		ldr	r3, [sp, #0]	@ tmp146, pxItemToRemove
 257 01f4 00309DE5 		ldr	r3, [r3, #4]	@ D.3220, <variable>.pxNext
 258 01f8 043093E5 		str	r3, [r2, #4]	@ D.3220, <variable>.pxNext
 259 01fc 043082E5 		.loc 1 179 0
 176:SRC/RTOS/list.c **** 	
 177:SRC/RTOS/list.c **** 	/* The list item knows which list it is in.  Obtain the list from the list
 178:SRC/RTOS/list.c **** 	item. */
 179:SRC/RTOS/list.c **** 	pxList = ( xList * ) pxItemToRemove->pvContainer;
 260              	3, [sp, #0]	@ tmp147, pxItemToRemove
 261 0200 00309DE5 		ldr	r3, [r3, #16]	@ D.3221, <variable>.pvContainer
 262 0204 103093E5 		str	r3, [sp, #4]	@ D.3221, pxList
 263 0208 04308DE5 		.loc 1 182 0
 180:SRC/RTOS/list.c **** 
 181:SRC/RTOS/list.c **** 	/* Make sure the index is left pointing to a valid item. */
 182:SRC/RTOS/list.c **** 	if( pxList->pxIndex == pxItemToRemove )
 264              		r3, [sp, #4]	@ tmp148, pxList
 265 020c 04309DE5 		ldr	r2, [r3, #4]	@ D.3222, <variable>.pxIndex
 266 0210 042093E5 		ldr	r3, [sp, #0]	@ pxItemToRemove.5, pxItemToRemove
 267 0214 00309DE5 		cmp	r2, r3	@ D.3222, pxItemToRemove.5
 268 0218 030052E1 		bne	.L14	@,
 269 021c 0300001A 		.loc 1 184 0
 183:SRC/RTOS/list.c **** 	{
ARM GAS  C:\DOCUME~1\ZAQUAD~1\USTAWI~1\Temp/cc8ScQWs.s 			page 9


 184:SRC/RTOS/list.c **** 		pxList->pxIndex = pxItemToRemove->pxPrevious;
 270              	3, [sp, #0]	@ tmp149, pxItemToRemove
 271 0220 00309DE5 		ldr	r2, [r3, #8]	@ D.3224, <variable>.pxPrevious
 272 0224 082093E5 		ldr	r3, [sp, #4]	@ tmp150, pxList
 273 0228 04309DE5 		str	r2, [r3, #4]	@ D.3224, <variable>.pxIndex
 274 022c 042083E5 	.L14:
 275              		.loc 1 187 0
 185:SRC/RTOS/list.c **** 	}
 186:SRC/RTOS/list.c **** 
 187:SRC/RTOS/list.c **** 	pxItemToRemove->pvContainer = NULL;
 276              	2, [sp, #0]	@ tmp151, pxItemToRemove
 277 0230 00209DE5 		mov	r3, #0	@ tmp152,
 278 0234 0030A0E3 		str	r3, [r2, #16]	@ tmp152, <variable>.pvContainer
 279 0238 103082E5 		.loc 1 188 0
 188:SRC/RTOS/list.c **** 	( pxList->uxNumberOfItems )--;
 280              		r3, [sp, #4]	@ tmp153, pxList
 281 023c 04309DE5 		ldr	r3, [r3, #0]	@ D.3225, <variable>.uxNumberOfItems
 282 0240 003093E5 		sub	r2, r3, #1	@ D.3226, D.3225,
 283 0244 012043E2 		ldr	r3, [sp, #4]	@ tmp154, pxList
 284 0248 04309DE5 		str	r2, [r3, #0]	@ D.3226, <variable>.uxNumberOfItems
 285 024c 002083E5 		.loc 1 189 0
 189:SRC/RTOS/list.c **** }
 286              	p, sp, #8	@,,
 287 0250 08D08DE2 		bx	lr
 288 0254 1EFF2FE1 	.LFE6:
 289              		.size	vListRemove, .-vListRemove
 290              		.section	.debug_frame,"",%progbits
 291              	.Lframe0:
 292              		.4byte	.LECIE0-.LSCIE0
 293 0000 0C000000 	.LSCIE0:
 294              		.4byte	0xffffffff
 295 0004 FFFFFFFF 		.byte	0x1
 296 0008 01       		.ascii	"\000"
 297 0009 00       		.uleb128 0x1
 298 000a 01       		.sleb128 -4
 299 000b 7C       		.byte	0xe
 300 000c 0E       		.byte	0xc
 301 000d 0C       		.uleb128 0xd
 302 000e 0D       		.uleb128 0x0
 303 000f 00       		.align	2
 304              	.LECIE0:
 305              	.LSFDE0:
 306              		.4byte	.LEFDE0-.LASFDE0
 307 0010 10000000 	.LASFDE0:
 308              		.4byte	.Lframe0
 309 0014 00000000 		.4byte	.LFB2
 310 0018 00000000 		.4byte	.LFE2-.LFB2
 311 001c 64000000 		.byte	0x4
 312 0020 44       		.4byte	.LCFI0-.LFB2
 313              		.byte	0xe
 314 0021 0E       		.uleb128 0x4
 315 0022 04       		.align	2
 316 0023 00       	.LEFDE0:
 317              	.LSFDE2:
 318              		.4byte	.LEFDE2-.LASFDE2
 319 0024 10000000 	.LASFDE2:
 320              		.4byte	.Lframe0
ARM GAS  C:\DOCUME~1\ZAQUAD~1\USTAWI~1\Temp/cc8ScQWs.s 			page 10


 321 0028 00000000 		.4byte	.LFB3
 322 002c 64000000 		.4byte	.LFE3-.LFB3
 323 0030 1C000000 		.byte	0x4
 324 0034 44       		.4byte	.LCFI1-.LFB3
 325              		.byte	0xe
 326 0035 0E       		.uleb128 0x4
 327 0036 04       		.align	2
 328 0037 00       	.LEFDE2:
 329              	.LSFDE4:
 330              		.4byte	.LEFDE4-.LASFDE4
 331 0038 10000000 	.LASFDE4:
 332              		.4byte	.Lframe0
 333 003c 00000000 		.4byte	.LFB4
 334 0040 80000000 		.4byte	.LFE4-.LFB4
 335 0044 88000000 		.byte	0x4
 336 0048 44       		.4byte	.LCFI2-.LFB4
 337              		.byte	0xe
 338 0049 0E       		.uleb128 0xc
 339 004a 0C       		.align	2
 340 004b 00       	.LEFDE4:
 341              	.LSFDE6:
 342              		.4byte	.LEFDE6-.LASFDE6
 343 004c 10000000 	.LASFDE6:
 344              		.4byte	.Lframe0
 345 0050 00000000 		.4byte	.LFB5
 346 0054 08010000 		.4byte	.LFE5-.LFB5
 347 0058 C8000000 		.byte	0x4
 348 005c 44       		.4byte	.LCFI3-.LFB5
 349              		.byte	0xe
 350 005d 0E       		.uleb128 0x10
 351 005e 10       		.align	2
 352 005f 00       	.LEFDE6:
 353              	.LSFDE8:
 354              		.4byte	.LEFDE8-.LASFDE8
 355 0060 10000000 	.LASFDE8:
 356              		.4byte	.Lframe0
 357 0064 00000000 		.4byte	.LFB6
 358 0068 D0010000 		.4byte	.LFE6-.LFB6
 359 006c 88000000 		.byte	0x4
 360 0070 44       		.4byte	.LCFI4-.LFB6
 361              		.byte	0xe
 362 0071 0E       		.uleb128 0x8
 363 0072 08       		.align	2
 364 0073 00       	.LEFDE8:
 365              		.text
 366              	.Letext0: