ARM GAS  C:\DOCUME~1\ZAQUAD~1\USTAWI~1\Temp/ccPlq3Kz.s 			page 1


   1              		.file	"port.c"
   2              	@ GNU C (GCC) version 4.3.3 (arm-elf)
   3              	@	compiled by GNU C version 3.4.5 (mingw special), GMP version 4.2.2, MPFR version 2.3.1.
   4              	@ GGC heuristics: --param ggc-min-expand=100 --param ggc-min-heapsize=131072
   5              	@ options passed:  -I . -IINC/ -IINC/RTOS/ -imultilib interwork -iprefix
   6              	@ d:\programy\mikrokontrolery\arm\yagarto\bin\../lib/gcc/arm-elf/4.3.3/ -MD
   7              	@ SRC/RTOS/port.d -MF .dep/port.o.d -MP -MQ SRC/RTOS/port.o
   8              	@ -D__USES_INITFINI__ SRC/RTOS/port.c -mcpu=arm7tdmi -mthumb-interwork
   9              	@ -auxbase-strip SRC/RTOS/port.o -gdwarf-2 -O0 -Wall -Wstrict-prototypes
  10              	@ -fomit-frame-pointer -fverbose-asm
  11              	@ options enabled:  -falign-loops -fargument-alias -fauto-inc-dec
  12              	@ -fbranch-count-reg -fcommon -fearly-inlining
  13              	@ -feliminate-unused-debug-types -ffunction-cse -fgcse-lm -fident -fivopts
  14              	@ -fkeep-static-consts -fleading-underscore -fmath-errno
  15              	@ -fmerge-debug-strings -fmove-loop-invariants -fomit-frame-pointer
  16              	@ -fpeephole -freg-struct-return -fsched-interblock -fsched-spec
  17              	@ -fsched-stalled-insns-dep -fsigned-zeros -fsplit-ivs-in-unroller
  18              	@ -ftoplevel-reorder -ftrapping-math -ftree-cselim -ftree-loop-im
  19              	@ -ftree-loop-ivcanon -ftree-loop-optimize -ftree-parallelize-loops=
  20              	@ -ftree-reassoc -ftree-scev-cprop -ftree-vect-loop-version -fverbose-asm
  21              	@ -fzero-initialized-in-bss -mlittle-endian -msched-prolog
  22              	@ -mthumb-interwork
  23              	
  30 0000 A2000000 		.text
  30      02005300 
  30      00000201 
  30      FB0E0D00 
  30      01010101 
  31              	.Ltext0:
  32              	@ Compiler executable checksum: aefe8b2555dadc8858779d7450a1d1fb
  33              	
  34              		.align	2
  35              		.global	pxPortInitialiseStack
  36              		.type	pxPortInitialiseStack, %function
  37              	pxPortInitialiseStack:
  38              	.LFB2:
  39              		.file 1 "SRC/RTOS/port.c"
   1:SRC/RTOS/port.c **** /*
   2:SRC/RTOS/port.c ****     FreeRTOS V6.0.2 - Copyright (C) 2010 Real Time Engineers Ltd.
   3:SRC/RTOS/port.c **** 
   4:SRC/RTOS/port.c ****     ***************************************************************************
   5:SRC/RTOS/port.c ****     *                                                                         *
   6:SRC/RTOS/port.c ****     * If you are:                                                             *
   7:SRC/RTOS/port.c ****     *                                                                         *
   8:SRC/RTOS/port.c ****     *    + New to FreeRTOS,                                                   *
   9:SRC/RTOS/port.c ****     *    + Wanting to learn FreeRTOS or multitasking in general quickly       *
  10:SRC/RTOS/port.c ****     *    + Looking for basic training,                                        *
  11:SRC/RTOS/port.c ****     *    + Wanting to improve your FreeRTOS skills and productivity           *
  12:SRC/RTOS/port.c ****     *                                                                         *
  13:SRC/RTOS/port.c ****     * then take a look at the FreeRTOS eBook                                  *
  14:SRC/RTOS/port.c ****     *                                                                         *
ARM GAS  C:\DOCUME~1\ZAQUAD~1\USTAWI~1\Temp/ccPlq3Kz.s 			page 2


  15:SRC/RTOS/port.c ****     *        "Using the FreeRTOS Real Time Kernel - a Practical Guide"        *
  16:SRC/RTOS/port.c ****     *                  http://www.FreeRTOS.org/Documentation                  *
  17:SRC/RTOS/port.c ****     *                                                                         *
  18:SRC/RTOS/port.c ****     * A pdf reference manual is also available.  Both are usually delivered   *
  19:SRC/RTOS/port.c ****     * to your inbox within 20 minutes to two hours when purchased between 8am *
  20:SRC/RTOS/port.c ****     * and 8pm GMT (although please allow up to 24 hours in case of            *
  21:SRC/RTOS/port.c ****     * exceptional circumstances).  Thank you for your support!                *
  22:SRC/RTOS/port.c ****     *                                                                         *
  23:SRC/RTOS/port.c ****     ***************************************************************************
  24:SRC/RTOS/port.c **** 
  25:SRC/RTOS/port.c ****     This file is part of the FreeRTOS distribution.
  26:SRC/RTOS/port.c **** 
  27:SRC/RTOS/port.c ****     FreeRTOS is free software; you can redistribute it and/or modify it under
  28:SRC/RTOS/port.c ****     the terms of the GNU General Public License (version 2) as published by the
  29:SRC/RTOS/port.c ****     Free Software Foundation AND MODIFIED BY the FreeRTOS exception.
  30:SRC/RTOS/port.c ****     ***NOTE*** The exception to the GPL is included to allow you to distribute
  31:SRC/RTOS/port.c ****     a combined work that includes FreeRTOS without being obliged to provide the
  32:SRC/RTOS/port.c ****     source code for proprietary components outside of the FreeRTOS kernel.
  33:SRC/RTOS/port.c ****     FreeRTOS is distributed in the hope that it will be useful, but WITHOUT
  34:SRC/RTOS/port.c ****     ANY WARRANTY; without even the implied warranty of MERCHANTABILITY or
  35:SRC/RTOS/port.c ****     FITNESS FOR A PARTICULAR PURPOSE.  See the GNU General Public License for
  36:SRC/RTOS/port.c ****     more details. You should have received a copy of the GNU General Public 
  37:SRC/RTOS/port.c ****     License and the FreeRTOS license exception along with FreeRTOS; if not it 
  38:SRC/RTOS/port.c ****     can be viewed here: http://www.freertos.org/a00114.html and also obtained 
  39:SRC/RTOS/port.c ****     by writing to Richard Barry, contact details for whom are available on the
  40:SRC/RTOS/port.c ****     FreeRTOS WEB site.
  41:SRC/RTOS/port.c **** 
  42:SRC/RTOS/port.c ****     1 tab == 4 spaces!
  43:SRC/RTOS/port.c **** 
  44:SRC/RTOS/port.c ****     http://www.FreeRTOS.org - Documentation, latest information, license and
  45:SRC/RTOS/port.c ****     contact details.
  46:SRC/RTOS/port.c **** 
  47:SRC/RTOS/port.c ****     http://www.SafeRTOS.com - A version that is certified for use in safety
  48:SRC/RTOS/port.c ****     critical systems.
  49:SRC/RTOS/port.c **** 
  50:SRC/RTOS/port.c ****     http://www.OpenRTOS.com - Commercial support, development, porting,
  51:SRC/RTOS/port.c ****     licensing and training services.
  52:SRC/RTOS/port.c **** */
  53:SRC/RTOS/port.c **** 
  54:SRC/RTOS/port.c **** 
  55:SRC/RTOS/port.c **** /*-----------------------------------------------------------
  56:SRC/RTOS/port.c ****  * Implementation of functions defined in portable.h for the ARM7 port.
  57:SRC/RTOS/port.c ****  *
  58:SRC/RTOS/port.c ****  * Components that can be compiled to either ARM or THUMB mode are
  59:SRC/RTOS/port.c ****  * contained in this file.  The ISR routines, which can only be compiled
  60:SRC/RTOS/port.c ****  * to ARM mode are contained in portISR.c.
  61:SRC/RTOS/port.c ****  *----------------------------------------------------------*/
  62:SRC/RTOS/port.c **** 
  63:SRC/RTOS/port.c **** /*
  64:SRC/RTOS/port.c **** 	Changes from V2.5.2
  65:SRC/RTOS/port.c **** 		
  66:SRC/RTOS/port.c **** 	+ ulCriticalNesting is now saved as part of the task context, as is 
  67:SRC/RTOS/port.c **** 	  therefore added to the initial task stack during pxPortInitialiseStack.
  68:SRC/RTOS/port.c **** */
  69:SRC/RTOS/port.c **** 
  70:SRC/RTOS/port.c **** 
  71:SRC/RTOS/port.c **** /* Standard includes. */
ARM GAS  C:\DOCUME~1\ZAQUAD~1\USTAWI~1\Temp/ccPlq3Kz.s 			page 3


  72:SRC/RTOS/port.c **** #include <stdlib.h>
  73:SRC/RTOS/port.c **** 
  74:SRC/RTOS/port.c **** /* Scheduler includes. */
  75:SRC/RTOS/port.c **** #include "FreeRTOS.h"
  76:SRC/RTOS/port.c **** #include "task.h"
  77:SRC/RTOS/port.c **** 
  78:SRC/RTOS/port.c **** /* Processor constants. */
  79:SRC/RTOS/port.c **** #include "AT91SAM7X256.h"
  80:SRC/RTOS/port.c **** 
  81:SRC/RTOS/port.c **** /* Constants required to setup the task context. */
  82:SRC/RTOS/port.c **** #define portINITIAL_SPSR				( ( portSTACK_TYPE ) 0x1f ) /* System mode, ARM mode, interrupts enable
  83:SRC/RTOS/port.c **** #define portTHUMB_MODE_BIT				( ( portSTACK_TYPE ) 0x20 )
  84:SRC/RTOS/port.c **** #define portINSTRUCTION_SIZE			( ( portSTACK_TYPE ) 4 )
  85:SRC/RTOS/port.c **** #define portNO_CRITICAL_SECTION_NESTING	( ( portSTACK_TYPE ) 0 )
  86:SRC/RTOS/port.c **** 
  87:SRC/RTOS/port.c **** /* Constants required to setup the tick ISR. */
  88:SRC/RTOS/port.c **** #define portENABLE_TIMER			( ( unsigned char ) 0x01 )
  89:SRC/RTOS/port.c **** #define portPRESCALE_VALUE			0x00
  90:SRC/RTOS/port.c **** #define portINTERRUPT_ON_MATCH		( ( unsigned long ) 0x01 )
  91:SRC/RTOS/port.c **** #define portRESET_COUNT_ON_MATCH	( ( unsigned long ) 0x02 )
  92:SRC/RTOS/port.c **** 
  93:SRC/RTOS/port.c **** /* Constants required to setup the PIT. */
  94:SRC/RTOS/port.c **** #define portPIT_CLOCK_DIVISOR			( ( unsigned long ) 16 )
  95:SRC/RTOS/port.c **** #define portPIT_COUNTER_VALUE			( ( ( configCPU_CLOCK_HZ / portPIT_CLOCK_DIVISOR ) / 1000UL ) * por
  96:SRC/RTOS/port.c **** 
  97:SRC/RTOS/port.c **** #define portINT_LEVEL_SENSITIVE  0
  98:SRC/RTOS/port.c **** #define portPIT_ENABLE      	( ( unsigned short ) 0x1 << 24 )
  99:SRC/RTOS/port.c **** #define portPIT_INT_ENABLE     	( ( unsigned short ) 0x1 << 25 )
 100:SRC/RTOS/port.c **** /*-----------------------------------------------------------*/
 101:SRC/RTOS/port.c **** 
 102:SRC/RTOS/port.c **** /* Setup the timer to generate the tick interrupts. */
 103:SRC/RTOS/port.c **** static void prvSetupTimerInterrupt( void );
 104:SRC/RTOS/port.c **** 
 105:SRC/RTOS/port.c **** /* 
 106:SRC/RTOS/port.c ****  * The scheduler can only be started from ARM mode, so 
 107:SRC/RTOS/port.c ****  * vPortISRStartFirstSTask() is defined in portISR.c. 
 108:SRC/RTOS/port.c ****  */
 109:SRC/RTOS/port.c **** extern void vPortISRStartFirstTask( void );
 110:SRC/RTOS/port.c **** 
 111:SRC/RTOS/port.c **** /*-----------------------------------------------------------*/
 112:SRC/RTOS/port.c **** 
 113:SRC/RTOS/port.c **** /* 
 114:SRC/RTOS/port.c ****  * Initialise the stack of a task to look exactly as if a call to 
 115:SRC/RTOS/port.c ****  * portSAVE_CONTEXT had been called.
 116:SRC/RTOS/port.c ****  *
 117:SRC/RTOS/port.c ****  * See header file for description. 
 118:SRC/RTOS/port.c ****  */
 119:SRC/RTOS/port.c **** portSTACK_TYPE *pxPortInitialiseStack( portSTACK_TYPE *pxTopOfStack, pdTASK_CODE pxCode, void *pvPa
 120:SRC/RTOS/port.c **** {
  40              	rworking.
  41              		@ args = 0, pretend = 0, frame = 16
  42              		@ frame_needed = 0, uses_anonymous_args = 0
  43              		@ link register save eliminated.
  44              		sub	sp, sp, #16	@,,
  45 0000 10D04DE2 	.LCFI0:
  46              		str	r0, [sp, #8]	@ pxTopOfStack, pxTopOfStack
  47 0004 08008DE5 		str	r1, [sp, #4]	@ pxCode, pxCode
ARM GAS  C:\DOCUME~1\ZAQUAD~1\USTAWI~1\Temp/ccPlq3Kz.s 			page 4


  48 0008 04108DE5 		str	r2, [sp, #0]	@ pvParameters, pvParameters
  49 000c 00208DE5 		.loc 1 123 0
 121:SRC/RTOS/port.c **** portSTACK_TYPE *pxOriginalTOS;
 122:SRC/RTOS/port.c **** 
 123:SRC/RTOS/port.c **** 	pxOriginalTOS = pxTopOfStack;
  50              	sp, #8]	@ tmp139, pxTopOfStack
  51 0010 08309DE5 		str	r3, [sp, #12]	@ tmp139, pxOriginalTOS
  52 0014 0C308DE5 		.loc 1 131 0
 124:SRC/RTOS/port.c **** 
 125:SRC/RTOS/port.c **** 	/* Setup the initial stack of the task.  The stack is set exactly as 
 126:SRC/RTOS/port.c **** 	expected by the portRESTORE_CONTEXT() macro. */
 127:SRC/RTOS/port.c **** 
 128:SRC/RTOS/port.c **** 	/* First on the stack is the return address - which in this case is the
 129:SRC/RTOS/port.c **** 	start of the task.  The offset is added to make the return address appear
 130:SRC/RTOS/port.c **** 	as it would within an IRQ ISR. */
 131:SRC/RTOS/port.c **** 	*pxTopOfStack = ( portSTACK_TYPE ) pxCode + portINSTRUCTION_SIZE;		
  53              	r	r3, [sp, #4]	@ tmp140, pxCode
  54 0018 04309DE5 		add	r3, r3, #4	@ D.3285, tmp140,
  55 001c 043083E2 		mov	r2, r3	@ D.3286, D.3285
  56 0020 0320A0E1 		ldr	r3, [sp, #8]	@ tmp141, pxTopOfStack
  57 0024 08309DE5 		str	r2, [r3, #0]	@ D.3286,
  58 0028 002083E5 		.loc 1 132 0
 132:SRC/RTOS/port.c **** 	pxTopOfStack--;
  59              	3, [sp, #8]	@ tmp142, pxTopOfStack
  60 002c 08309DE5 		sub	r3, r3, #4	@ tmp143, tmp142,
  61 0030 043043E2 		str	r3, [sp, #8]	@ tmp143, pxTopOfStack
  62 0034 08308DE5 		.loc 1 134 0
 133:SRC/RTOS/port.c **** 
 134:SRC/RTOS/port.c **** 	*pxTopOfStack = ( portSTACK_TYPE ) 0x00000000;	/* R14 */
  63              		r2, [sp, #8]	@ tmp144, pxTopOfStack
  64 0038 08209DE5 		mov	r3, #0	@ tmp145,
  65 003c 0030A0E3 		str	r3, [r2, #0]	@ tmp145,
  66 0040 003082E5 		.loc 1 135 0
 135:SRC/RTOS/port.c **** 	pxTopOfStack--;	
  67              		r3, [sp, #8]	@ tmp146, pxTopOfStack
  68 0044 08309DE5 		sub	r3, r3, #4	@ tmp147, tmp146,
  69 0048 043043E2 		str	r3, [sp, #8]	@ tmp147, pxTopOfStack
  70 004c 08308DE5 		.loc 1 136 0
 136:SRC/RTOS/port.c **** 	*pxTopOfStack = ( portSTACK_TYPE ) pxOriginalTOS; /* Stack used when task starts goes in R13. */
  71              		r2, [sp, #12]	@ pxOriginalTOS.0, pxOriginalTOS
  72 0050 0C209DE5 		ldr	r3, [sp, #8]	@ tmp148, pxTopOfStack
  73 0054 08309DE5 		str	r2, [r3, #0]	@ pxOriginalTOS.0,
  74 0058 002083E5 		.loc 1 137 0
 137:SRC/RTOS/port.c **** 	pxTopOfStack--;
  75              		r3, [sp, #8]	@ tmp149, pxTopOfStack
  76 005c 08309DE5 		sub	r3, r3, #4	@ tmp150, tmp149,
  77 0060 043043E2 		str	r3, [sp, #8]	@ tmp150, pxTopOfStack
  78 0064 08308DE5 		.loc 1 138 0
 138:SRC/RTOS/port.c **** 	*pxTopOfStack = ( portSTACK_TYPE ) 0x12121212;	/* R12 */
  79              		r2, [sp, #8]	@ tmp151, pxTopOfStack
  80 0068 08209DE5 		mov	r3, #4608	@ tmp152,
  81 006c 123CA0E3 		add	r3, r3, #18	@ tmp152, tmp152,
  82 0070 123083E2 		orr	r3, r3, r3, asl #16	@, tmp152, tmp152, tmp152,
  83 0074 033883E1 		str	r3, [r2, #0]	@ tmp152,
  84 0078 003082E5 		.loc 1 139 0
 139:SRC/RTOS/port.c **** 	pxTopOfStack--;	
  85              	3, [sp, #8]	@ tmp153, pxTopOfStack
ARM GAS  C:\DOCUME~1\ZAQUAD~1\USTAWI~1\Temp/ccPlq3Kz.s 			page 5


  86 007c 08309DE5 		sub	r3, r3, #4	@ tmp154, tmp153,
  87 0080 043043E2 		str	r3, [sp, #8]	@ tmp154, pxTopOfStack
  88 0084 08308DE5 		.loc 1 140 0
 140:SRC/RTOS/port.c **** 	*pxTopOfStack = ( portSTACK_TYPE ) 0x11111111;	/* R11 */
  89              		r2, [sp, #8]	@ tmp155, pxTopOfStack
  90 0088 08209DE5 		mov	r3, #4352	@ tmp156,
  91 008c 113CA0E3 		add	r3, r3, #17	@ tmp156, tmp156,
  92 0090 113083E2 		orr	r3, r3, r3, asl #16	@, tmp156, tmp156, tmp156,
  93 0094 033883E1 		str	r3, [r2, #0]	@ tmp156,
  94 0098 003082E5 		.loc 1 141 0
 141:SRC/RTOS/port.c **** 	pxTopOfStack--;	
  95              	3, [sp, #8]	@ tmp157, pxTopOfStack
  96 009c 08309DE5 		sub	r3, r3, #4	@ tmp158, tmp157,
  97 00a0 043043E2 		str	r3, [sp, #8]	@ tmp158, pxTopOfStack
  98 00a4 08308DE5 		.loc 1 142 0
 142:SRC/RTOS/port.c **** 	*pxTopOfStack = ( portSTACK_TYPE ) 0x10101010;	/* R10 */
  99              		r2, [sp, #8]	@ tmp159, pxTopOfStack
 100 00a8 08209DE5 		mov	r3, #4096	@ tmp160,
 101 00ac 013AA0E3 		add	r3, r3, #16	@ tmp160, tmp160,
 102 00b0 103083E2 		orr	r3, r3, r3, asl #16	@, tmp160, tmp160, tmp160,
 103 00b4 033883E1 		str	r3, [r2, #0]	@ tmp160,
 104 00b8 003082E5 		.loc 1 143 0
 143:SRC/RTOS/port.c **** 	pxTopOfStack--;	
 105              	3, [sp, #8]	@ tmp161, pxTopOfStack
 106 00bc 08309DE5 		sub	r3, r3, #4	@ tmp162, tmp161,
 107 00c0 043043E2 		str	r3, [sp, #8]	@ tmp162, pxTopOfStack
 108 00c4 08308DE5 		.loc 1 144 0
 144:SRC/RTOS/port.c **** 	*pxTopOfStack = ( portSTACK_TYPE ) 0x09090909;	/* R9 */
 109              		r2, [sp, #8]	@ tmp163, pxTopOfStack
 110 00c8 08209DE5 		mov	r3, #2304	@ tmp164,
 111 00cc 093CA0E3 		add	r3, r3, #9	@ tmp164, tmp164,
 112 00d0 093083E2 		orr	r3, r3, r3, asl #16	@, tmp164, tmp164, tmp164,
 113 00d4 033883E1 		str	r3, [r2, #0]	@ tmp164,
 114 00d8 003082E5 		.loc 1 145 0
 145:SRC/RTOS/port.c **** 	pxTopOfStack--;	
 115              	3, [sp, #8]	@ tmp165, pxTopOfStack
 116 00dc 08309DE5 		sub	r3, r3, #4	@ tmp166, tmp165,
 117 00e0 043043E2 		str	r3, [sp, #8]	@ tmp166, pxTopOfStack
 118 00e4 08308DE5 		.loc 1 146 0
 146:SRC/RTOS/port.c **** 	*pxTopOfStack = ( portSTACK_TYPE ) 0x08080808;	/* R8 */
 119              		r2, [sp, #8]	@ tmp167, pxTopOfStack
 120 00e8 08209DE5 		mov	r3, #2048	@ tmp168,
 121 00ec 023BA0E3 		add	r3, r3, #8	@ tmp168, tmp168,
 122 00f0 083083E2 		orr	r3, r3, r3, asl #16	@, tmp168, tmp168, tmp168,
 123 00f4 033883E1 		str	r3, [r2, #0]	@ tmp168,
 124 00f8 003082E5 		.loc 1 147 0
 147:SRC/RTOS/port.c **** 	pxTopOfStack--;	
 125              	3, [sp, #8]	@ tmp169, pxTopOfStack
 126 00fc 08309DE5 		sub	r3, r3, #4	@ tmp170, tmp169,
 127 0100 043043E2 		str	r3, [sp, #8]	@ tmp170, pxTopOfStack
 128 0104 08308DE5 		.loc 1 148 0
 148:SRC/RTOS/port.c **** 	*pxTopOfStack = ( portSTACK_TYPE ) 0x07070707;	/* R7 */
 129              		r2, [sp, #8]	@ tmp171, pxTopOfStack
 130 0108 08209DE5 		mov	r3, #1792	@ tmp172,
 131 010c 073CA0E3 		add	r3, r3, #7	@ tmp172, tmp172,
 132 0110 073083E2 		orr	r3, r3, r3, asl #16	@, tmp172, tmp172, tmp172,
 133 0114 033883E1 		str	r3, [r2, #0]	@ tmp172,
ARM GAS  C:\DOCUME~1\ZAQUAD~1\USTAWI~1\Temp/ccPlq3Kz.s 			page 6


 134 0118 003082E5 		.loc 1 149 0
 149:SRC/RTOS/port.c **** 	pxTopOfStack--;	
 135              	3, [sp, #8]	@ tmp173, pxTopOfStack
 136 011c 08309DE5 		sub	r3, r3, #4	@ tmp174, tmp173,
 137 0120 043043E2 		str	r3, [sp, #8]	@ tmp174, pxTopOfStack
 138 0124 08308DE5 		.loc 1 150 0
 150:SRC/RTOS/port.c **** 	*pxTopOfStack = ( portSTACK_TYPE ) 0x06060606;	/* R6 */
 139              		r2, [sp, #8]	@ tmp175, pxTopOfStack
 140 0128 08209DE5 		mov	r3, #1536	@ tmp176,
 141 012c 063CA0E3 		add	r3, r3, #6	@ tmp176, tmp176,
 142 0130 063083E2 		orr	r3, r3, r3, asl #16	@, tmp176, tmp176, tmp176,
 143 0134 033883E1 		str	r3, [r2, #0]	@ tmp176,
 144 0138 003082E5 		.loc 1 151 0
 151:SRC/RTOS/port.c **** 	pxTopOfStack--;	
 145              	3, [sp, #8]	@ tmp177, pxTopOfStack
 146 013c 08309DE5 		sub	r3, r3, #4	@ tmp178, tmp177,
 147 0140 043043E2 		str	r3, [sp, #8]	@ tmp178, pxTopOfStack
 148 0144 08308DE5 		.loc 1 152 0
 152:SRC/RTOS/port.c **** 	*pxTopOfStack = ( portSTACK_TYPE ) 0x05050505;	/* R5 */
 149              		r2, [sp, #8]	@ tmp179, pxTopOfStack
 150 0148 08209DE5 		mov	r3, #1280	@ tmp180,
 151 014c 053CA0E3 		add	r3, r3, #5	@ tmp180, tmp180,
 152 0150 053083E2 		orr	r3, r3, r3, asl #16	@, tmp180, tmp180, tmp180,
 153 0154 033883E1 		str	r3, [r2, #0]	@ tmp180,
 154 0158 003082E5 		.loc 1 153 0
 153:SRC/RTOS/port.c **** 	pxTopOfStack--;	
 155              	3, [sp, #8]	@ tmp181, pxTopOfStack
 156 015c 08309DE5 		sub	r3, r3, #4	@ tmp182, tmp181,
 157 0160 043043E2 		str	r3, [sp, #8]	@ tmp182, pxTopOfStack
 158 0164 08308DE5 		.loc 1 154 0
 154:SRC/RTOS/port.c **** 	*pxTopOfStack = ( portSTACK_TYPE ) 0x04040404;	/* R4 */
 159              		r2, [sp, #8]	@ tmp183, pxTopOfStack
 160 0168 08209DE5 		mov	r3, #1024	@ tmp184,
 161 016c 013BA0E3 		add	r3, r3, #4	@ tmp184, tmp184,
 162 0170 043083E2 		orr	r3, r3, r3, asl #16	@, tmp184, tmp184, tmp184,
 163 0174 033883E1 		str	r3, [r2, #0]	@ tmp184,
 164 0178 003082E5 		.loc 1 155 0
 155:SRC/RTOS/port.c **** 	pxTopOfStack--;	
 165              	3, [sp, #8]	@ tmp185, pxTopOfStack
 166 017c 08309DE5 		sub	r3, r3, #4	@ tmp186, tmp185,
 167 0180 043043E2 		str	r3, [sp, #8]	@ tmp186, pxTopOfStack
 168 0184 08308DE5 		.loc 1 156 0
 156:SRC/RTOS/port.c **** 	*pxTopOfStack = ( portSTACK_TYPE ) 0x03030303;	/* R3 */
 169              		r2, [sp, #8]	@ tmp187, pxTopOfStack
 170 0188 08209DE5 		mov	r3, #768	@ tmp188,
 171 018c 033CA0E3 		add	r3, r3, #3	@ tmp188, tmp188,
 172 0190 033083E2 		orr	r3, r3, r3, asl #16	@, tmp188, tmp188, tmp188,
 173 0194 033883E1 		str	r3, [r2, #0]	@ tmp188,
 174 0198 003082E5 		.loc 1 157 0
 157:SRC/RTOS/port.c **** 	pxTopOfStack--;	
 175              	3, [sp, #8]	@ tmp189, pxTopOfStack
 176 019c 08309DE5 		sub	r3, r3, #4	@ tmp190, tmp189,
 177 01a0 043043E2 		str	r3, [sp, #8]	@ tmp190, pxTopOfStack
 178 01a4 08308DE5 		.loc 1 158 0
 158:SRC/RTOS/port.c **** 	*pxTopOfStack = ( portSTACK_TYPE ) 0x02020202;	/* R2 */
 179              		r2, [sp, #8]	@ tmp191, pxTopOfStack
 180 01a8 08209DE5 		mov	r3, #512	@ tmp192,
ARM GAS  C:\DOCUME~1\ZAQUAD~1\USTAWI~1\Temp/ccPlq3Kz.s 			page 7


 181 01ac 023CA0E3 		add	r3, r3, #2	@ tmp192, tmp192,
 182 01b0 023083E2 		orr	r3, r3, r3, asl #16	@, tmp192, tmp192, tmp192,
 183 01b4 033883E1 		str	r3, [r2, #0]	@ tmp192,
 184 01b8 003082E5 		.loc 1 159 0
 159:SRC/RTOS/port.c **** 	pxTopOfStack--;	
 185              	3, [sp, #8]	@ tmp193, pxTopOfStack
 186 01bc 08309DE5 		sub	r3, r3, #4	@ tmp194, tmp193,
 187 01c0 043043E2 		str	r3, [sp, #8]	@ tmp194, pxTopOfStack
 188 01c4 08308DE5 		.loc 1 160 0
 160:SRC/RTOS/port.c **** 	*pxTopOfStack = ( portSTACK_TYPE ) 0x01010101;	/* R1 */
 189              		r2, [sp, #8]	@ tmp195, pxTopOfStack
 190 01c8 08209DE5 		mov	r3, #256	@ tmp196,
 191 01cc 013CA0E3 		add	r3, r3, #1	@ tmp196, tmp196,
 192 01d0 013083E2 		orr	r3, r3, r3, asl #16	@, tmp196, tmp196, tmp196,
 193 01d4 033883E1 		str	r3, [r2, #0]	@ tmp196,
 194 01d8 003082E5 		.loc 1 161 0
 161:SRC/RTOS/port.c **** 	pxTopOfStack--;	
 195              	3, [sp, #8]	@ tmp197, pxTopOfStack
 196 01dc 08309DE5 		sub	r3, r3, #4	@ tmp198, tmp197,
 197 01e0 043043E2 		str	r3, [sp, #8]	@ tmp198, pxTopOfStack
 198 01e4 08308DE5 		.loc 1 165 0
 162:SRC/RTOS/port.c **** 
 163:SRC/RTOS/port.c **** 	/* When the task starts is will expect to find the function parameter in
 164:SRC/RTOS/port.c **** 	R0. */
 165:SRC/RTOS/port.c **** 	*pxTopOfStack = ( portSTACK_TYPE ) pvParameters; /* R0 */
 199              		r2, [sp, #0]	@ pvParameters.1, pvParameters
 200 01e8 00209DE5 		ldr	r3, [sp, #8]	@ tmp199, pxTopOfStack
 201 01ec 08309DE5 		str	r2, [r3, #0]	@ pvParameters.1,
 202 01f0 002083E5 		.loc 1 166 0
 166:SRC/RTOS/port.c **** 	pxTopOfStack--;
 203              		r3, [sp, #8]	@ tmp200, pxTopOfStack
 204 01f4 08309DE5 		sub	r3, r3, #4	@ tmp201, tmp200,
 205 01f8 043043E2 		str	r3, [sp, #8]	@ tmp201, pxTopOfStack
 206 01fc 08308DE5 		.loc 1 170 0
 167:SRC/RTOS/port.c **** 
 168:SRC/RTOS/port.c **** 	/* The last thing onto the stack is the status register, which is set for
 169:SRC/RTOS/port.c **** 	system mode, with interrupts enabled. */
 170:SRC/RTOS/port.c **** 	*pxTopOfStack = ( portSTACK_TYPE ) portINITIAL_SPSR;
 207              		r2, [sp, #8]	@ tmp202, pxTopOfStack
 208 0200 08209DE5 		mov	r3, #31	@ tmp203,
 209 0204 1F30A0E3 		str	r3, [r2, #0]	@ tmp203,
 210 0208 003082E5 		.loc 1 179 0
 171:SRC/RTOS/port.c **** 
 172:SRC/RTOS/port.c **** 	#ifdef THUMB_INTERWORK
 173:SRC/RTOS/port.c **** 	{
 174:SRC/RTOS/port.c **** 		/* We want the task to start in thumb mode. */
 175:SRC/RTOS/port.c **** 		*pxTopOfStack |= portTHUMB_MODE_BIT;
 176:SRC/RTOS/port.c **** 	}
 177:SRC/RTOS/port.c **** 	#endif
 178:SRC/RTOS/port.c **** 
 179:SRC/RTOS/port.c **** 	pxTopOfStack--;
 211              		r3, [sp, #8]	@ tmp204, pxTopOfStack
 212 020c 08309DE5 		sub	r3, r3, #4	@ tmp205, tmp204,
 213 0210 043043E2 		str	r3, [sp, #8]	@ tmp205, pxTopOfStack
 214 0214 08308DE5 		.loc 1 185 0
 180:SRC/RTOS/port.c **** 
 181:SRC/RTOS/port.c **** 	/* Some optimisation levels use the stack differently to others.  This 
ARM GAS  C:\DOCUME~1\ZAQUAD~1\USTAWI~1\Temp/ccPlq3Kz.s 			page 8


 182:SRC/RTOS/port.c **** 	means the interrupt flags cannot always be stored on the stack and will
 183:SRC/RTOS/port.c **** 	instead be stored in a variable, which is then saved as part of the
 184:SRC/RTOS/port.c **** 	tasks context. */
 185:SRC/RTOS/port.c **** 	*pxTopOfStack = portNO_CRITICAL_SECTION_NESTING;
 215              		r2, [sp, #8]	@ tmp206, pxTopOfStack
 216 0218 08209DE5 		mov	r3, #0	@ tmp207,
 217 021c 0030A0E3 		str	r3, [r2, #0]	@ tmp207,
 218 0220 003082E5 		.loc 1 187 0
 186:SRC/RTOS/port.c **** 
 187:SRC/RTOS/port.c **** 	return pxTopOfStack;
 219              		r3, [sp, #8]	@ D.3289, pxTopOfStack
 220 0224 08309DE5 		.loc 1 188 0
 188:SRC/RTOS/port.c **** }
 221              	ov	r0, r3	@, <result>
 222 0228 0300A0E1 		add	sp, sp, #16	@,,
 223 022c 10D08DE2 		bx	lr
 224 0230 1EFF2FE1 	.LFE2:
 225              		.size	pxPortInitialiseStack, .-pxPortInitialiseStack
 226              		.align	2
 227              		.global	xPortStartScheduler
 228              		.type	xPortStartScheduler, %function
 229              	xPortStartScheduler:
 230              	.LFB3:
 231              		.loc 1 192 0
 189:SRC/RTOS/port.c **** /*-----------------------------------------------------------*/
 190:SRC/RTOS/port.c **** 
 191:SRC/RTOS/port.c **** portBASE_TYPE xPortStartScheduler( void )
 192:SRC/RTOS/port.c **** {
 232              	 supports interworking.
 233              		@ args = 0, pretend = 0, frame = 0
 234              		@ frame_needed = 0, uses_anonymous_args = 0
 235              		str	lr, [sp, #-4]!	@,
 236 0234 04E02DE5 	.LCFI1:
 237              		.loc 1 195 0
 193:SRC/RTOS/port.c **** 	/* Start the timer that generates the tick ISR.  Interrupts are disabled
 194:SRC/RTOS/port.c **** 	here already. */
 195:SRC/RTOS/port.c **** 	prvSetupTimerInterrupt();
 238              	vSetupTimerInterrupt	@
 239 0238 050000EB 		.loc 1 198 0
 196:SRC/RTOS/port.c **** 
 197:SRC/RTOS/port.c **** 	/* Start the first task. */
 198:SRC/RTOS/port.c **** 	vPortISRStartFirstTask();	
 240              	l	vPortISRStartFirstTask	@
 241 023c FEFFFFEB 		.loc 1 201 0
 199:SRC/RTOS/port.c **** 
 200:SRC/RTOS/port.c **** 	/* Should not get here! */
 201:SRC/RTOS/port.c **** 	return 0;
 242              	ov	r3, #0	@ D.3294,
 243 0240 0030A0E3 		.loc 1 202 0
 202:SRC/RTOS/port.c **** }
 244              	ov	r0, r3	@, <result>
 245 0244 0300A0E1 		ldr	lr, [sp], #4
 246 0248 04E09DE4 		bx	lr
 247 024c 1EFF2FE1 	.LFE3:
 248              		.size	xPortStartScheduler, .-xPortStartScheduler
 249              		.align	2
 250              		.global	vPortEndScheduler
ARM GAS  C:\DOCUME~1\ZAQUAD~1\USTAWI~1\Temp/ccPlq3Kz.s 			page 9


 251              		.type	vPortEndScheduler, %function
 252              	vPortEndScheduler:
 253              	.LFB4:
 254              		.loc 1 206 0
 203:SRC/RTOS/port.c **** /*-----------------------------------------------------------*/
 204:SRC/RTOS/port.c **** 
 205:SRC/RTOS/port.c **** void vPortEndScheduler( void )
 206:SRC/RTOS/port.c **** {
 255              	 supports interworking.
 256              		@ args = 0, pretend = 0, frame = 0
 257              		@ frame_needed = 0, uses_anonymous_args = 0
 258              		@ link register save eliminated.
 259              		.loc 1 209 0
 207:SRC/RTOS/port.c **** 	/* It is unlikely that the ARM port will require this function as there
 208:SRC/RTOS/port.c **** 	is nothing to return to.  */
 209:SRC/RTOS/port.c **** }
 260              	r	@
 261 0250 1EFF2FE1 	.LFE4:
 262              		.size	vPortEndScheduler, .-vPortEndScheduler
 263              		.align	2
 264              		.type	prvSetupTimerInterrupt, %function
 265              	prvSetupTimerInterrupt:
 266              	.LFB5:
 267              		.loc 1 216 0
 210:SRC/RTOS/port.c **** /*-----------------------------------------------------------*/
 211:SRC/RTOS/port.c **** 
 212:SRC/RTOS/port.c **** /*
 213:SRC/RTOS/port.c ****  * Setup the timer 0 to generate the tick interrupts at the required frequency.
 214:SRC/RTOS/port.c ****  */
 215:SRC/RTOS/port.c **** static void prvSetupTimerInterrupt( void )
 216:SRC/RTOS/port.c **** {
 268              	ion supports interworking.
 269              		@ args = 0, pretend = 0, frame = 8
 270              		@ frame_needed = 0, uses_anonymous_args = 0
 271              		@ link register save eliminated.
 272              		sub	sp, sp, #8	@,,
 273 0254 08D04DE2 	.LCFI2:
 274              		.loc 1 217 0
 217:SRC/RTOS/port.c **** AT91PS_PITC pxPIT = AT91C_BASE_PITC;
 275              	, #-1509949440	@ tmp139,
 276 0258 A634A0E3 		mov	r3, r3, asr #21	@ tmp139, tmp139,
 277 025c C33AA0E1 		str	r3, [sp, #0]	@ tmp139, pxPIT
 278 0260 00308DE5 	.LBB2:
 279              		.loc 1 229 0
 218:SRC/RTOS/port.c **** 
 219:SRC/RTOS/port.c **** 	/* Setup the AIC for PIT interrupts.  The interrupt routine chosen depends
 220:SRC/RTOS/port.c **** 	on whether the preemptive or cooperative scheduler is being used. */
 221:SRC/RTOS/port.c **** 	#if configUSE_PREEMPTION == 0
 222:SRC/RTOS/port.c **** 
 223:SRC/RTOS/port.c **** 		extern void ( vNonPreemptiveTick ) ( void );
 224:SRC/RTOS/port.c **** 		AT91F_AIC_ConfigureIt( AT91C_ID_SYS, AT91C_AIC_PRIOR_HIGHEST, portINT_LEVEL_SENSITIVE, ( void (*)
 225:SRC/RTOS/port.c **** 
 226:SRC/RTOS/port.c **** 	#else
 227:SRC/RTOS/port.c **** 		
 228:SRC/RTOS/port.c **** 		extern void ( vPreemptiveTick )( void );
 229:SRC/RTOS/port.c **** 		AT91F_AIC_ConfigureIt( AT91C_ID_SYS, AT91C_AIC_PRIOR_HIGHEST, portINT_LEVEL_SENSITIVE, ( void (*)
 280              	r3, #2	@ tmp140,
ARM GAS  C:\DOCUME~1\ZAQUAD~1\USTAWI~1\Temp/ccPlq3Kz.s 			page 10


 281 0264 0230A0E3 		str	r3, [sp, #4]	@ tmp140, mask
 282 0268 04308DE5 		mov	r3, #-2147483648	@ D.3307,
 283 026c 0231A0E3 		mov	r3, r3, asr #19	@ D.3307, D.3307,
 284 0270 C339A0E1 		ldr	r2, [sp, #4]	@ tmp141, mask
 285 0274 04209DE5 		str	r2, [r3, #292]	@ tmp141, <variable>.AIC_IDCR
 286 0278 242183E5 		mov	r3, #-2147483648	@ D.3308,
 287 027c 0231A0E3 		mov	r3, r3, asr #19	@ D.3308, D.3308,
 288 0280 C339A0E1 		ldr	r2, .L9	@ vPreemptiveTick.2,
 289 0284 4C209FE5 		str	r2, [r3, #132]	@ vPreemptiveTick.2, <variable>.AIC_SVR
 290 0288 842083E5 		mov	r3, #-2147483648	@ D.3310,
 291 028c 0231A0E3 		mov	r3, r3, asr #19	@ D.3310, D.3310,
 292 0290 C339A0E1 		mov	r2, #7	@ tmp142,
 293 0294 0720A0E3 		str	r2, [r3, #4]	@ tmp142, <variable>.AIC_SMR
 294 0298 042083E5 		mov	r3, #-2147483648	@ D.3311,
 295 029c 0231A0E3 		mov	r3, r3, asr #19	@ D.3311, D.3311,
 296 02a0 C339A0E1 		ldr	r2, [sp, #4]	@ tmp143, mask
 297 02a4 04209DE5 		str	r2, [r3, #296]	@ tmp143, <variable>.AIC_ICCR
 298 02a8 282183E5 	.LBE2:
 299              		.loc 1 234 0
 230:SRC/RTOS/port.c **** 
 231:SRC/RTOS/port.c **** 	#endif
 232:SRC/RTOS/port.c **** 
 233:SRC/RTOS/port.c **** 	/* Configure the PIT period. */
 234:SRC/RTOS/port.c **** 	pxPIT->PITC_PIMR = portPIT_ENABLE | portPIT_INT_ENABLE | portPIT_COUNTER_VALUE;
 300              	tmp144, pxPIT
 301 02ac 00209DE5 		mov	r3, #50331648	@ tmp145,
 302 02b0 0334A0E3 		add	r3, r3, #3424	@ tmp145, tmp145,
 303 02b4 D63E83E2 		add	r3, r3, #13	@ tmp145, tmp145,
 304 02b8 0D3083E2 		str	r3, [r2, #0]	@ tmp145, <variable>.PITC_PIMR
 305 02bc 003082E5 		.loc 1 238 0
 235:SRC/RTOS/port.c **** 
 236:SRC/RTOS/port.c **** 	/* Enable the interrupt.  Global interrupts are disables at this point so 
 237:SRC/RTOS/port.c **** 	this is safe. */
 238:SRC/RTOS/port.c ****     AT91C_BASE_AIC->AIC_IECR = 0x1 << AT91C_ID_SYS;
 306              	3, #-2147483648	@ D.3312,
 307 02c0 0231A0E3 		mov	r3, r3, asr #19	@ D.3312, D.3312,
 308 02c4 C339A0E1 		mov	r2, #2	@ tmp146,
 309 02c8 0220A0E3 		str	r2, [r3, #288]	@ tmp146, <variable>.AIC_IECR
 310 02cc 202183E5 		.loc 1 239 0
 239:SRC/RTOS/port.c **** }
 311              	sp, sp, #8	@,,
 312 02d0 08D08DE2 		bx	lr
 313 02d4 1EFF2FE1 	.L10:
 314              		.align	2
 315              	.L9:
 316              		.word	vPreemptiveTick
 317 02d8 00000000 	.LFE5:
 318              		.size	prvSetupTimerInterrupt, .-prvSetupTimerInterrupt
 319              		.section	.debug_frame,"",%progbits
 320              	.Lframe0:
 321              		.4byte	.LECIE0-.LSCIE0
 322 0000 0C000000 	.LSCIE0:
 323              		.4byte	0xffffffff
 324 0004 FFFFFFFF 		.byte	0x1
 325 0008 01       		.ascii	"\000"
 326 0009 00       		.uleb128 0x1
 327 000a 01       		.sleb128 -4
ARM GAS  C:\DOCUME~1\ZAQUAD~1\USTAWI~1\Temp/ccPlq3Kz.s 			page 11


 328 000b 7C       		.byte	0xe
 329 000c 0E       		.byte	0xc
 330 000d 0C       		.uleb128 0xd
 331 000e 0D       		.uleb128 0x0
 332 000f 00       		.align	2
 333              	.LECIE0:
 334              	.LSFDE0:
 335              		.4byte	.LEFDE0-.LASFDE0
 336 0010 10000000 	.LASFDE0:
 337              		.4byte	.Lframe0
 338 0014 00000000 		.4byte	.LFB2
 339 0018 00000000 		.4byte	.LFE2-.LFB2
 340 001c 34020000 		.byte	0x4
 341 0020 44       		.4byte	.LCFI0-.LFB2
 342              		.byte	0xe
 343 0021 0E       		.uleb128 0x10
 344 0022 10       		.align	2
 345 0023 00       	.LEFDE0:
 346              	.LSFDE2:
 347              		.4byte	.LEFDE2-.LASFDE2
 348 0024 14000000 	.LASFDE2:
 349              		.4byte	.Lframe0
 350 0028 00000000 		.4byte	.LFB3
 351 002c 34020000 		.4byte	.LFE3-.LFB3
 352 0030 1C000000 		.byte	0x4
 353 0034 44       		.4byte	.LCFI1-.LFB3
 354              		.byte	0xe
 355 0035 0E       		.uleb128 0x4
 356 0036 04       		.byte	0x8e
 357 0037 8E       		.uleb128 0x1
 358 0038 01       		.align	2
 359 0039 000000   	.LEFDE2:
 360              	.LSFDE4:
 361              		.4byte	.LEFDE4-.LASFDE4
 362 003c 0C000000 	.LASFDE4:
 363              		.4byte	.Lframe0
 364 0040 00000000 		.4byte	.LFB4
 365 0044 50020000 		.4byte	.LFE4-.LFB4
 366 0048 04000000 		.align	2
 367              	.LEFDE4:
 368              	.LSFDE6:
 369              		.4byte	.LEFDE6-.LASFDE6
 370 004c 10000000 	.LASFDE6:
 371              		.4byte	.Lframe0
 372 0050 00000000 		.4byte	.LFB5
 373 0054 54020000 		.4byte	.LFE5-.LFB5
 374 0058 88000000 		.byte	0x4
 375 005c 44       		.4byte	.LCFI2-.LFB5
 376              		.byte	0xe
 377 005d 0E       		.uleb128 0x8
 378 005e 08       		.align	2
 379 005f 00       	.LEFDE6:
 380              		.text
 381              	.Letext0: