ARM GAS  C:\DOCUME~1\ZAQUAD~1\USTAWI~1\Temp/ccndWGJP.s 			page 1


   1              		.file	"portISR.c"
   2              	@ GNU C (GCC) version 4.3.3 (arm-elf)
   3              	@	compiled by GNU C version 3.4.5 (mingw special), GMP version 4.2.2, MPFR version 2.3.1.
   4              	@ GGC heuristics: --param ggc-min-expand=100 --param ggc-min-heapsize=131072
   5              	@ options passed:  -I . -IINC/ -IINC/RTOS/ -imultilib interwork -iprefix
   6              	@ d:\programy\mikrokontrolery\arm\yagarto\bin\../lib/gcc/arm-elf/4.3.3/ -MD
   7              	@ SRC/RTOS/portISR.d -MF .dep/portISR.o.d -MP -MQ SRC/RTOS/portISR.o
   8              	@ -D__USES_INITFINI__ SRC/RTOS/portISR.c -mcpu=arm7tdmi -mthumb-interwork
   9              	@ -auxbase-strip SRC/RTOS/portISR.o -gdwarf-2 -O0 -Wall -Wstrict-prototypes
  10              	@ -fomit-frame-pointer -fverbose-asm
  11              	@ options enabled:  -falign-loops -fargument-alias -fauto-inc-dec
  12              	@ -fbranch-count-reg -fcommon -fearly-inlining
  13              	@ -feliminate-unused-debug-types -ffunction-cse -fgcse-lm -fident -fivopts
  14              	@ -fkeep-static-consts -fleading-underscore -fmath-errno
  15              	@ -fmerge-debug-strings -fmove-loop-invariants -fomit-frame-pointer
  16              	@ -fpeephole -freg-struct-return -fsched-interblock -fsched-spec
  17              	@ -fsched-stalled-insns-dep -fsigned-zeros -fsplit-ivs-in-unroller
  18              	@ -ftoplevel-reorder -ftrapping-math -ftree-cselim -ftree-loop-im
  19              	@ -ftree-loop-ivcanon -ftree-loop-optimize -ftree-parallelize-loops=
  20              	@ -ftree-reassoc -ftree-scev-cprop -ftree-vect-loop-version -fverbose-asm
  21              	@ -fzero-initialized-in-bss -mlittle-endian -msched-prolog
  22              	@ -mthumb-interwork
  23              	
  30 0000 85000000 		.text
  30      02003F00 
  30      00000201 
  30      FB0E0D00 
  30      01010101 
  31              	.Ltext0:
  32              	@ Compiler executable checksum: aefe8b2555dadc8858779d7450a1d1fb
  33              	
  34              		.global	ulCriticalNesting
  35              		.data
  36              		.align	2
  37              		.type	ulCriticalNesting, %object
  38              		.size	ulCriticalNesting, 4
  39              	ulCriticalNesting:
  40 0000 0F270000 		.word	9999
  41              		.text
  42              		.align	2
  43              		.global	vPortISRStartFirstTask
  44              		.type	vPortISRStartFirstTask, %function
  45              	vPortISRStartFirstTask:
  46              	.LFB2:
  47              		.file 1 "SRC/RTOS/portISR.c"
   1:SRC/RTOS/portISR.c **** /*
   2:SRC/RTOS/portISR.c ****     FreeRTOS V6.0.2 - Copyright (C) 2010 Real Time Engineers Ltd.
   3:SRC/RTOS/portISR.c **** 
   4:SRC/RTOS/portISR.c ****     ***************************************************************************
   5:SRC/RTOS/portISR.c ****     *                                                                         *
   6:SRC/RTOS/portISR.c ****     * If you are:                                                             *
ARM GAS  C:\DOCUME~1\ZAQUAD~1\USTAWI~1\Temp/ccndWGJP.s 			page 2


   7:SRC/RTOS/portISR.c ****     *                                                                         *
   8:SRC/RTOS/portISR.c ****     *    + New to FreeRTOS,                                                   *
   9:SRC/RTOS/portISR.c ****     *    + Wanting to learn FreeRTOS or multitasking in general quickly       *
  10:SRC/RTOS/portISR.c ****     *    + Looking for basic training,                                        *
  11:SRC/RTOS/portISR.c ****     *    + Wanting to improve your FreeRTOS skills and productivity           *
  12:SRC/RTOS/portISR.c ****     *                                                                         *
  13:SRC/RTOS/portISR.c ****     * then take a look at the FreeRTOS eBook                                  *
  14:SRC/RTOS/portISR.c ****     *                                                                         *
  15:SRC/RTOS/portISR.c ****     *        "Using the FreeRTOS Real Time Kernel - a Practical Guide"        *
  16:SRC/RTOS/portISR.c ****     *                  http://www.FreeRTOS.org/Documentation                  *
  17:SRC/RTOS/portISR.c ****     *                                                                         *
  18:SRC/RTOS/portISR.c ****     * A pdf reference manual is also available.  Both are usually delivered   *
  19:SRC/RTOS/portISR.c ****     * to your inbox within 20 minutes to two hours when purchased between 8am *
  20:SRC/RTOS/portISR.c ****     * and 8pm GMT (although please allow up to 24 hours in case of            *
  21:SRC/RTOS/portISR.c ****     * exceptional circumstances).  Thank you for your support!                *
  22:SRC/RTOS/portISR.c ****     *                                                                         *
  23:SRC/RTOS/portISR.c ****     ***************************************************************************
  24:SRC/RTOS/portISR.c **** 
  25:SRC/RTOS/portISR.c ****     This file is part of the FreeRTOS distribution.
  26:SRC/RTOS/portISR.c **** 
  27:SRC/RTOS/portISR.c ****     FreeRTOS is free software; you can redistribute it and/or modify it under
  28:SRC/RTOS/portISR.c ****     the terms of the GNU General Public License (version 2) as published by the
  29:SRC/RTOS/portISR.c ****     Free Software Foundation AND MODIFIED BY the FreeRTOS exception.
  30:SRC/RTOS/portISR.c ****     ***NOTE*** The exception to the GPL is included to allow you to distribute
  31:SRC/RTOS/portISR.c ****     a combined work that includes FreeRTOS without being obliged to provide the
  32:SRC/RTOS/portISR.c ****     source code for proprietary components outside of the FreeRTOS kernel.
  33:SRC/RTOS/portISR.c ****     FreeRTOS is distributed in the hope that it will be useful, but WITHOUT
  34:SRC/RTOS/portISR.c ****     ANY WARRANTY; without even the implied warranty of MERCHANTABILITY or
  35:SRC/RTOS/portISR.c ****     FITNESS FOR A PARTICULAR PURPOSE.  See the GNU General Public License for
  36:SRC/RTOS/portISR.c ****     more details. You should have received a copy of the GNU General Public 
  37:SRC/RTOS/portISR.c ****     License and the FreeRTOS license exception along with FreeRTOS; if not it 
  38:SRC/RTOS/portISR.c ****     can be viewed here: http://www.freertos.org/a00114.html and also obtained 
  39:SRC/RTOS/portISR.c ****     by writing to Richard Barry, contact details for whom are available on the
  40:SRC/RTOS/portISR.c ****     FreeRTOS WEB site.
  41:SRC/RTOS/portISR.c **** 
  42:SRC/RTOS/portISR.c ****     1 tab == 4 spaces!
  43:SRC/RTOS/portISR.c **** 
  44:SRC/RTOS/portISR.c ****     http://www.FreeRTOS.org - Documentation, latest information, license and
  45:SRC/RTOS/portISR.c ****     contact details.
  46:SRC/RTOS/portISR.c **** 
  47:SRC/RTOS/portISR.c ****     http://www.SafeRTOS.com - A version that is certified for use in safety
  48:SRC/RTOS/portISR.c ****     critical systems.
  49:SRC/RTOS/portISR.c **** 
  50:SRC/RTOS/portISR.c ****     http://www.OpenRTOS.com - Commercial support, development, porting,
  51:SRC/RTOS/portISR.c ****     licensing and training services.
  52:SRC/RTOS/portISR.c **** */
  53:SRC/RTOS/portISR.c **** 
  54:SRC/RTOS/portISR.c **** 
  55:SRC/RTOS/portISR.c **** /*-----------------------------------------------------------
  56:SRC/RTOS/portISR.c ****  * Components that can be compiled to either ARM or THUMB mode are
  57:SRC/RTOS/portISR.c ****  * contained in port.c  The ISR routines, which can only be compiled
  58:SRC/RTOS/portISR.c ****  * to ARM mode, are contained in this file.
  59:SRC/RTOS/portISR.c ****  *----------------------------------------------------------*/
  60:SRC/RTOS/portISR.c **** 
  61:SRC/RTOS/portISR.c **** /*
  62:SRC/RTOS/portISR.c **** 	Changes from V3.2.4
  63:SRC/RTOS/portISR.c **** 
ARM GAS  C:\DOCUME~1\ZAQUAD~1\USTAWI~1\Temp/ccndWGJP.s 			page 3


  64:SRC/RTOS/portISR.c **** 	+ The assembler statements are now included in a single asm block rather
  65:SRC/RTOS/portISR.c **** 	  than each line having its own asm block.
  66:SRC/RTOS/portISR.c **** */
  67:SRC/RTOS/portISR.c **** 
  68:SRC/RTOS/portISR.c **** /* Scheduler includes. */
  69:SRC/RTOS/portISR.c **** #include "FreeRTOS.h"
  70:SRC/RTOS/portISR.c **** #include "task.h"
  71:SRC/RTOS/portISR.c **** 
  72:SRC/RTOS/portISR.c **** #include "AT91SAM7X256.h"
  73:SRC/RTOS/portISR.c **** 
  74:SRC/RTOS/portISR.c **** /* Constants required to handle interrupts. */
  75:SRC/RTOS/portISR.c **** #define portTIMER_MATCH_ISR_BIT		( ( unsigned char ) 0x01 )
  76:SRC/RTOS/portISR.c **** #define portCLEAR_VIC_INTERRUPT		( ( unsigned long ) 0 )
  77:SRC/RTOS/portISR.c **** 
  78:SRC/RTOS/portISR.c **** /* Constants required to handle critical sections. */
  79:SRC/RTOS/portISR.c **** #define portNO_CRITICAL_NESTING		( ( unsigned long ) 0 )
  80:SRC/RTOS/portISR.c **** volatile unsigned long ulCriticalNesting = 9999UL;
  81:SRC/RTOS/portISR.c **** 
  82:SRC/RTOS/portISR.c **** /*-----------------------------------------------------------*/
  83:SRC/RTOS/portISR.c **** 
  84:SRC/RTOS/portISR.c **** /* ISR to handle manual context switches (from a call to taskYIELD()). */
  85:SRC/RTOS/portISR.c **** void vPortYieldProcessor( void ) __attribute__((interrupt("SWI"), naked));
  86:SRC/RTOS/portISR.c **** 
  87:SRC/RTOS/portISR.c **** /* 
  88:SRC/RTOS/portISR.c ****  * The scheduler can only be started from ARM mode, hence the inclusion of this
  89:SRC/RTOS/portISR.c ****  * function here.
  90:SRC/RTOS/portISR.c ****  */
  91:SRC/RTOS/portISR.c **** void vPortISRStartFirstTask( void );
  92:SRC/RTOS/portISR.c **** /*-----------------------------------------------------------*/
  93:SRC/RTOS/portISR.c **** 
  94:SRC/RTOS/portISR.c **** void vPortISRStartFirstTask( void )
  95:SRC/RTOS/portISR.c **** {
  48              	
  49              		@ args = 0, pretend = 0, frame = 8
  50              		@ frame_needed = 0, uses_anonymous_args = 0
  51              		@ link register save eliminated.
  52              		sub	sp, sp, #8	@,,
  53 0000 08D04DE2 	.LCFI0:
  54              		.loc 1 98 0
  96:SRC/RTOS/portISR.c **** 	/* Simply start the scheduler.  This is included here as it can only be
  97:SRC/RTOS/portISR.c **** 	called from ARM mode. */
  98:SRC/RTOS/portISR.c **** 	portRESTORE_CONTEXT();
  55              	SRC/RTOS/portISR.c" 1
  56              		LDR		R0, =pxCurrentTCB								
  57 0004 68029FE5 		LDR		R0, [R0]										
  58 0008 000090E5 		LDR		LR, [R0]										
  59 000c 00E090E5 		LDR		R0, =ulCriticalNesting							
  60 0010 60029FE5 		LDMFD	LR!, {R1}											
  61 0014 0200BEE8 		STR		R1, [R0]										
  62 0018 001080E5 		LDMFD	LR!, {R0}											
  63 001c 0100BEE8 		MSR		SPSR, R0										
  64 0020 00F069E1 		LDMFD	LR, {R0-R14}^										
  65 0024 FF7FDEE8 		NOP														
  66 0028 0000A0E1 		LDR		LR, [LR, #+60]									
  67 002c 3CE09EE5 		SUBS	PC, LR, #4											
  68 0030 04F05EE2 		
  69              	@ 0 "" 2
ARM GAS  C:\DOCUME~1\ZAQUAD~1\USTAWI~1\Temp/ccndWGJP.s 			page 4


  70              		ldr	r3, .L3	@ tmp135,
  71 0034 10309FE5 		ldr	r3, [r3, #0]	@, ulCriticalNesting
  72 0038 003093E5 		ldr	r3, .L3+4	@ tmp136,
  73 003c 0C309FE5 		ldr	r3, [r3, #0]	@, pxCurrentTCB
  74 0040 003093E5 		.loc 1 99 0
  99:SRC/RTOS/portISR.c **** }
  75              		bx	lr
  76 0044 08D08DE2 	.L4:
  77 0048 1EFF2FE1 		.align	2
  78              	.L3:
  79              		.word	ulCriticalNesting
  80              		.word	pxCurrentTCB
  81 004c 00000000 	.LFE2:
  82 0050 00000000 		.size	vPortISRStartFirstTask, .-vPortISRStartFirstTask
  83              		.align	2
  84              		.global	vPortYieldProcessor
  85              		.type	vPortYieldProcessor, %function
  86              	vPortYieldProcessor:
  87              	.LFB3:
  88              		.loc 1 111 0
  89              		@ ARM Exception Handler.
 100:SRC/RTOS/portISR.c **** /*-----------------------------------------------------------*/
 101:SRC/RTOS/portISR.c **** 
 102:SRC/RTOS/portISR.c **** /*
 103:SRC/RTOS/portISR.c ****  * Called by portYIELD() or taskYIELD() to manually force a context switch.
 104:SRC/RTOS/portISR.c ****  *
 105:SRC/RTOS/portISR.c ****  * When a context switch is performed from the task level the saved task 
 106:SRC/RTOS/portISR.c ****  * context is made to look as if it occurred from within the tick ISR.  This
 107:SRC/RTOS/portISR.c ****  * way the same restore context function can be used when restoring the context
 108:SRC/RTOS/portISR.c ****  * saved from the ISR or that saved from a call to vPortYieldProcessor.
 109:SRC/RTOS/portISR.c ****  */
 110:SRC/RTOS/portISR.c **** void vPortYieldProcessor( void )
 111:SRC/RTOS/portISR.c **** {
  90              	on: prologue and epilogue provided by programmer.
  91              		@ args = 0, pretend = 0, frame = 16
  92              		@ frame_needed = 0, uses_anonymous_args = 0
  93              		.loc 1 115 0
  94              	@ 115 "SRC/RTOS/portISR.c" 1
 112:SRC/RTOS/portISR.c **** 	/* Within an IRQ ISR the link register has an offset from the true return 
 113:SRC/RTOS/portISR.c **** 	address, but an SWI ISR does not.  Add the offset manually so the same 
 114:SRC/RTOS/portISR.c **** 	ISR return code can be used in both cases. */
 115:SRC/RTOS/portISR.c **** 	asm volatile ( "ADD		LR, LR, #4" );
  95              		LR, LR, #4
  96              	@ 0 "" 2
  97 0054 04E08EE2 		.loc 1 118 0
  98              	@ 118 "SRC/RTOS/portISR.c" 1
 116:SRC/RTOS/portISR.c **** 
 117:SRC/RTOS/portISR.c **** 	/* Perform the context switch.  First save the context of the current task. */
 118:SRC/RTOS/portISR.c **** 	portSAVE_CONTEXT();
  99              	DB	SP!, {R0}											
 100              		STMDB	SP,{SP}^											
 101 0058 01002DE9 		NOP														
 102 005c 00204DE9 		SUB	SP, SP, #4											
 103 0060 0000A0E1 		LDMIA	SP!,{R0}											
 104 0064 04D04DE2 		STMDB	R0!, {LR}											
 105 0068 0100BDE8 		MOV	LR, R0												
 106 006c 004020E9 		LDMIA	SP!, {R0}											
ARM GAS  C:\DOCUME~1\ZAQUAD~1\USTAWI~1\Temp/ccndWGJP.s 			page 5


 107 0070 00E0A0E1 		STMDB	LR,{R0-LR}^											
 108 0074 0100BDE8 		NOP														
 109 0078 FF7F4EE9 		SUB	LR, LR, #60											
 110 007c 0000A0E1 		MRS	R0, SPSR											
 111 0080 3CE04EE2 		STMDB	LR!, {R0}											
 112 0084 00004FE1 		LDR	R0, =ulCriticalNesting								
 113 0088 01002EE9 		LDR	R0, [R0]											
 114 008c E4019FE5 		STMDB	LR!, {R0}											
 115 0090 000090E5 		LDR	R0, =pxCurrentTCB									
 116 0094 01002EE9 		LDR	R0, [R0]											
 117 0098 D4019FE5 		STR	LR, [R0]											
 118 009c 000090E5 		
 119 00a0 00E080E5 	@ 0 "" 2
 120              		ldr	r3, .L7	@ tmp137,
 121              		ldr	r3, [r3, #0]	@, ulCriticalNesting
 122 00a4 4C309FE5 		ldr	r3, .L7+4	@ tmp138,
 123 00a8 003093E5 		ldr	r3, [r3, #0]	@, pxCurrentTCB
 124 00ac 48309FE5 		.loc 1 121 0
 125 00b0 003093E5 		bl	vTaskSwitchContext	@
 119:SRC/RTOS/portISR.c **** 
 120:SRC/RTOS/portISR.c **** 	/* Find the highest priority task that is ready to run. */
 121:SRC/RTOS/portISR.c **** 	vTaskSwitchContext();
 126              	OS/portISR.c" 1
 127 00b4 FEFFFFEB 		LDR		R0, =pxCurrentTCB								
 122:SRC/RTOS/portISR.c **** 
 123:SRC/RTOS/portISR.c **** 	/* Restore the context of the new task. */
 124:SRC/RTOS/portISR.c **** 	portRESTORE_CONTEXT();	
 128              	DR		R0, [R0]										
 129              		LDR		LR, [R0]										
 130 00b8 B4019FE5 		LDR		R0, =ulCriticalNesting							
 131 00bc 000090E5 		LDMFD	LR!, {R1}											
 132 00c0 00E090E5 		STR		R1, [R0]										
 133 00c4 AC019FE5 		LDMFD	LR!, {R0}											
 134 00c8 0200BEE8 		MSR		SPSR, R0										
 135 00cc 001080E5 		LDMFD	LR, {R0-R14}^										
 136 00d0 0100BEE8 		NOP														
 137 00d4 00F069E1 		LDR		LR, [LR, #+60]									
 138 00d8 FF7FDEE8 		SUBS	PC, LR, #4											
 139 00dc 0000A0E1 		
 140 00e0 3CE09EE5 	@ 0 "" 2
 141 00e4 04F05EE2 		ldr	r3, .L7	@ tmp139,
 142              		ldr	r3, [r3, #0]	@, ulCriticalNesting
 143              		ldr	r3, .L7+4	@ tmp140,
 144 00e8 08309FE5 		ldr	r3, [r3, #0]	@, pxCurrentTCB
 145 00ec 003093E5 		.loc 1 125 0
 146 00f0 04309FE5 	.L8:
 147 00f4 003093E5 		.align	2
 125:SRC/RTOS/portISR.c **** }
 148              	alNesting
 149              		.word	pxCurrentTCB
 150              	.LFE3:
 151              		.size	vPortYieldProcessor, .-vPortYieldProcessor
 152 00f8 00000000 		.align	2
 153 00fc 00000000 		.global	vPreemptiveTick
 154              		.type	vPreemptiveTick, %function
 155              	vPreemptiveTick:
 156              	.LFB4:
ARM GAS  C:\DOCUME~1\ZAQUAD~1\USTAWI~1\Temp/ccndWGJP.s 			page 6


 157              		.loc 1 160 0
 158              		@ Function supports interworking.
 159              		@ Naked Function: prologue and epilogue provided by programmer.
 160              		@ args = 0, pretend = 0, frame = 16
 126:SRC/RTOS/portISR.c **** /*-----------------------------------------------------------*/
 127:SRC/RTOS/portISR.c **** 
 128:SRC/RTOS/portISR.c **** /* 
 129:SRC/RTOS/portISR.c ****  * The ISR used for the scheduler tick depends on whether the cooperative or
 130:SRC/RTOS/portISR.c ****  * the preemptive scheduler is being used.
 131:SRC/RTOS/portISR.c ****  */
 132:SRC/RTOS/portISR.c **** 
 133:SRC/RTOS/portISR.c **** #if configUSE_PREEMPTION == 0
 134:SRC/RTOS/portISR.c **** 
 135:SRC/RTOS/portISR.c **** 	/* The cooperative scheduler requires a normal IRQ service routine to 
 136:SRC/RTOS/portISR.c **** 	simply increment the system tick. */
 137:SRC/RTOS/portISR.c **** 	void vNonPreemptiveTick( void ) __attribute__ ((interrupt ("IRQ")));
 138:SRC/RTOS/portISR.c **** 	void vNonPreemptiveTick( void )
 139:SRC/RTOS/portISR.c **** 	{		
 140:SRC/RTOS/portISR.c **** 		unsigned long ulDummy;
 141:SRC/RTOS/portISR.c **** 		
 142:SRC/RTOS/portISR.c **** 		/* Increment the tick count - which may wake some tasks but as the
 143:SRC/RTOS/portISR.c **** 		preemptive scheduler is not being used any woken task is not given
 144:SRC/RTOS/portISR.c **** 		processor time no matter what its priority. */
 145:SRC/RTOS/portISR.c **** 		vTaskIncrementTick();
 146:SRC/RTOS/portISR.c **** 		
 147:SRC/RTOS/portISR.c **** 		/* Clear the PIT interrupt. */
 148:SRC/RTOS/portISR.c **** 		ulDummy = AT91C_BASE_PITC->PITC_PIVR;
 149:SRC/RTOS/portISR.c **** 		
 150:SRC/RTOS/portISR.c **** 		/* End the interrupt in the AIC. */
 151:SRC/RTOS/portISR.c **** 		AT91C_BASE_AIC->AIC_EOICR = ulDummy;
 152:SRC/RTOS/portISR.c **** 	}
 153:SRC/RTOS/portISR.c **** 
 154:SRC/RTOS/portISR.c **** #else
 155:SRC/RTOS/portISR.c **** 
 156:SRC/RTOS/portISR.c **** 	/* The preemptive scheduler is defined as "naked" as the full context is
 157:SRC/RTOS/portISR.c **** 	saved on entry as part of the context switch. */
 158:SRC/RTOS/portISR.c **** 	void vPreemptiveTick( void ) __attribute__((naked));
 159:SRC/RTOS/portISR.c **** 	void vPreemptiveTick( void )
 160:SRC/RTOS/portISR.c **** 	{
 161              	ed = 0, uses_anonymous_args = 0
 162              		.loc 1 162 0
 163              	@ 162 "SRC/RTOS/portISR.c" 1
 164              		STMDB	SP!, {R0}											
 165              		STMDB	SP,{SP}^											
 161:SRC/RTOS/portISR.c **** 		/* Save the context of the current task. */
 162:SRC/RTOS/portISR.c **** 		portSAVE_CONTEXT();			
 166              														
 167              		SUB	SP, SP, #4											
 168 0100 01002DE9 		LDMIA	SP!,{R0}											
 169 0104 00204DE9 		STMDB	R0!, {LR}											
 170 0108 0000A0E1 		MOV	LR, R0												
 171 010c 04D04DE2 		LDMIA	SP!, {R0}											
 172 0110 0100BDE8 		STMDB	LR,{R0-LR}^											
 173 0114 004020E9 		NOP														
 174 0118 00E0A0E1 		SUB	LR, LR, #60											
 175 011c 0100BDE8 		MRS	R0, SPSR											
 176 0120 FF7F4EE9 		STMDB	LR!, {R0}											
ARM GAS  C:\DOCUME~1\ZAQUAD~1\USTAWI~1\Temp/ccndWGJP.s 			page 7


 177 0124 0000A0E1 		LDR	R0, =ulCriticalNesting								
 178 0128 3CE04EE2 		LDR	R0, [R0]											
 179 012c 00004FE1 		STMDB	LR!, {R0}											
 180 0130 01002EE9 		LDR	R0, =pxCurrentTCB									
 181 0134 3C019FE5 		LDR	R0, [R0]											
 182 0138 000090E5 		STR	LR, [R0]											
 183 013c 01002EE9 		
 184 0140 2C019FE5 	@ 0 "" 2
 185 0144 000090E5 		ldr	r3, .L11	@ tmp140,
 186 0148 00E080E5 		ldr	r3, [r3, #0]	@, ulCriticalNesting
 187              		ldr	r3, .L11+4	@ tmp141,
 188              		ldr	r3, [r3, #0]	@, pxCurrentTCB
 189 014c 68309FE5 		.loc 1 165 0
 190 0150 003093E5 		bl	vTaskIncrementTick	@
 191 0154 64309FE5 		.loc 1 168 0
 192 0158 003093E5 		bl	vTaskSwitchContext	@
 163:SRC/RTOS/portISR.c **** 
 164:SRC/RTOS/portISR.c **** 		/* Increment the tick count - this may wake a task. */
 165:SRC/RTOS/portISR.c **** 		vTaskIncrementTick();
 193              	47483648	@ D.2950,
 194 015c FEFFFFEB 		mov	r2, r2, asr #19	@ D.2950, D.2950,
 166:SRC/RTOS/portISR.c **** 
 167:SRC/RTOS/portISR.c **** 		/* Find the highest priority task that is ready to run. */
 168:SRC/RTOS/portISR.c **** 		vTaskSwitchContext();
 195              	ov	r3, #-1509949440	@ D.2951,
 196 0160 FEFFFFEB 		mov	r3, r3, asr #21	@ D.2951, D.2951,
 169:SRC/RTOS/portISR.c **** 		
 170:SRC/RTOS/portISR.c **** 		/* End the interrupt in the AIC. */
 171:SRC/RTOS/portISR.c **** 		AT91C_BASE_AIC->AIC_EOICR = AT91C_BASE_PITC->PITC_PIVR;;
 197              	dr	r3, [r3, #8]	@ D.2952, <variable>.PITC_PIVR
 198 0164 0221A0E3 		str	r3, [r2, #304]	@ D.2952, <variable>.AIC_EOICR
 199 0168 C229A0E1 		.loc 1 173 0
 200 016c A634A0E3 	@ 173 "SRC/RTOS/portISR.c" 1
 201 0170 C33AA0E1 		LDR		R0, =pxCurrentTCB								
 202 0174 083093E5 		LDR		R0, [R0]										
 203 0178 303182E5 		LDR		LR, [R0]										
 172:SRC/RTOS/portISR.c **** 		
 173:SRC/RTOS/portISR.c **** 		portRESTORE_CONTEXT();
 204              	0, =ulCriticalNesting							
 205              		LDMFD	LR!, {R1}											
 206 017c F0009FE5 		STR		R1, [R0]										
 207 0180 000090E5 		LDMFD	LR!, {R0}											
 208 0184 00E090E5 		MSR		SPSR, R0										
 209 0188 E8009FE5 		LDMFD	LR, {R0-R14}^										
 210 018c 0200BEE8 		NOP														
 211 0190 001080E5 		LDR		LR, [LR, #+60]									
 212 0194 0100BEE8 		SUBS	PC, LR, #4											
 213 0198 00F069E1 		
 214 019c FF7FDEE8 	@ 0 "" 2
 215 01a0 0000A0E1 		ldr	r3, .L11	@ tmp142,
 216 01a4 3CE09EE5 		ldr	r3, [r3, #0]	@, ulCriticalNesting
 217 01a8 04F05EE2 		ldr	r3, .L11+4	@ tmp143,
 218              		ldr	r3, [r3, #0]	@, pxCurrentTCB
 219              		.loc 1 174 0
 220 01ac 08309FE5 	.L12:
 221 01b0 003093E5 		.align	2
 222 01b4 04309FE5 	.L11:
ARM GAS  C:\DOCUME~1\ZAQUAD~1\USTAWI~1\Temp/ccndWGJP.s 			page 8


 223 01b8 003093E5 		.word	ulCriticalNesting
 174:SRC/RTOS/portISR.c **** 	}
 224              	.LFE4:
 225              		.size	vPreemptiveTick, .-vPreemptiveTick
 226              		.align	2
 227              		.global	vPortDisableInterruptsFromThumb
 228 01bc 00000000 		.type	vPortDisableInterruptsFromThumb, %function
 229 01c0 00000000 	vPortDisableInterruptsFromThumb:
 230              	.LFB5:
 231              		.loc 1 189 0
 232              		@ Function supports interworking.
 233              		@ Naked Function: prologue and epilogue provided by programmer.
 234              		@ args = 0, pretend = 0, frame = 0
 235              		@ frame_needed = 0, uses_anonymous_args = 0
 236              		.loc 1 190 0
 175:SRC/RTOS/portISR.c **** 
 176:SRC/RTOS/portISR.c **** #endif
 177:SRC/RTOS/portISR.c **** /*-----------------------------------------------------------*/
 178:SRC/RTOS/portISR.c **** 
 179:SRC/RTOS/portISR.c **** /*
 180:SRC/RTOS/portISR.c ****  * The interrupt management utilities can only be called from ARM mode.  When
 181:SRC/RTOS/portISR.c ****  * THUMB_INTERWORK is defined the utilities are defined as functions here to
 182:SRC/RTOS/portISR.c ****  * ensure a switch to ARM mode.  When THUMB_INTERWORK is not defined then
 183:SRC/RTOS/portISR.c ****  * the utilities are defined as macros in portmacro.h - as per other ports.
 184:SRC/RTOS/portISR.c ****  */
 185:SRC/RTOS/portISR.c **** void vPortDisableInterruptsFromThumb( void ) __attribute__ ((naked));
 186:SRC/RTOS/portISR.c **** void vPortEnableInterruptsFromThumb( void ) __attribute__ ((naked));
 187:SRC/RTOS/portISR.c **** 
 188:SRC/RTOS/portISR.c **** void vPortDisableInterruptsFromThumb( void )
 189:SRC/RTOS/portISR.c **** {
 237              	OS/portISR.c" 1
 238              		STMDB	SP!, {R0}		
 239              		MRS	R0, CPSR		
 240              		ORR	R0, R0, #0xC0	
 241              		MSR	CPSR, R0		
 190:SRC/RTOS/portISR.c **** 	asm volatile ( 
 242              	A	SP!, {R0}		
 243              		BX		R14
 244 01c4 01002DE9 	@ 0 "" 2
 245 01c8 00000FE1 		.loc 1 197 0
 246 01cc C00080E3 	.LFE5:
 247 01d0 00F029E1 		.size	vPortDisableInterruptsFromThumb, .-vPortDisableInterruptsFromThumb
 248 01d4 0100BDE8 		.align	2
 249 01d8 1EFF2FE1 		.global	vPortEnableInterruptsFromThumb
 250              		.type	vPortEnableInterruptsFromThumb, %function
 191:SRC/RTOS/portISR.c **** 		"STMDB	SP!, {R0}		\n\t"	/* Push R0.									*/
 192:SRC/RTOS/portISR.c **** 		"MRS	R0, CPSR		\n\t"	/* Get CPSR.								*/
 193:SRC/RTOS/portISR.c **** 		"ORR	R0, R0, #0xC0	\n\t"	/* Disable IRQ, FIQ.						*/
 194:SRC/RTOS/portISR.c **** 		"MSR	CPSR, R0		\n\t"	/* Write back modified value.				*/
 195:SRC/RTOS/portISR.c **** 		"LDMIA	SP!, {R0}		\n\t"	/* Pop R0.									*/
 196:SRC/RTOS/portISR.c **** 		"BX		R14" );					/* Return back to thumb.					*/
 197:SRC/RTOS/portISR.c **** }
 251              	leInterruptsFromThumb:
 252              	.LFB6:
 253              		.loc 1 200 0
 254              		@ Function supports interworking.
 255              		@ Naked Function: prologue and epilogue provided by programmer.
ARM GAS  C:\DOCUME~1\ZAQUAD~1\USTAWI~1\Temp/ccndWGJP.s 			page 9


 256              		@ args = 0, pretend = 0, frame = 0
 257              		@ frame_needed = 0, uses_anonymous_args = 0
 258              		.loc 1 201 0
 198:SRC/RTOS/portISR.c **** 		
 199:SRC/RTOS/portISR.c **** void vPortEnableInterruptsFromThumb( void )
 200:SRC/RTOS/portISR.c **** {
 259              	RC/RTOS/portISR.c" 1
 260              		STMDB	SP!, {R0}		
 261              		MRS	R0, CPSR		
 262              		BIC	R0, R0, #0xC0	
 263              		MSR	CPSR, R0		
 201:SRC/RTOS/portISR.c **** 	asm volatile ( 
 264              	A	SP!, {R0}		
 265              		BX		R14
 266 01dc 01002DE9 	@ 0 "" 2
 267 01e0 00000FE1 		.loc 1 208 0
 268 01e4 C000C0E3 	.LFE6:
 269 01e8 00F029E1 		.size	vPortEnableInterruptsFromThumb, .-vPortEnableInterruptsFromThumb
 270 01ec 0100BDE8 		.align	2
 271 01f0 1EFF2FE1 		.global	vPortEnterCritical
 272              		.type	vPortEnterCritical, %function
 202:SRC/RTOS/portISR.c **** 		"STMDB	SP!, {R0}		\n\t"	/* Push R0.									*/	
 203:SRC/RTOS/portISR.c **** 		"MRS	R0, CPSR		\n\t"	/* Get CPSR.								*/	
 204:SRC/RTOS/portISR.c **** 		"BIC	R0, R0, #0xC0	\n\t"	/* Enable IRQ, FIQ.							*/	
 205:SRC/RTOS/portISR.c **** 		"MSR	CPSR, R0		\n\t"	/* Write back modified value.				*/	
 206:SRC/RTOS/portISR.c **** 		"LDMIA	SP!, {R0}		\n\t"	/* Pop R0.									*/
 207:SRC/RTOS/portISR.c **** 		"BX		R14" );					/* Return back to thumb.					*/
 208:SRC/RTOS/portISR.c **** }
 273              	rCritical:
 274              	.LFB7:
 275              		.loc 1 216 0
 276              		@ Function supports interworking.
 277              		@ args = 0, pretend = 0, frame = 0
 278              		@ frame_needed = 0, uses_anonymous_args = 0
 279              		@ link register save eliminated.
 280              		.loc 1 218 0
 209:SRC/RTOS/portISR.c **** 
 210:SRC/RTOS/portISR.c **** 
 211:SRC/RTOS/portISR.c **** /* The code generated by the GCC compiler uses the stack in different ways at
 212:SRC/RTOS/portISR.c **** different optimisation levels.  The interrupt flags can therefore not always
 213:SRC/RTOS/portISR.c **** be saved to the stack.  Instead the critical section nesting level is stored
 214:SRC/RTOS/portISR.c **** in a variable, which is then saved as part of the stack context. */
 215:SRC/RTOS/portISR.c **** void vPortEnterCritical( void )
 216:SRC/RTOS/portISR.c **** {
 281              	RC/RTOS/portISR.c" 1
 282              		STMDB	SP!, {R0}			
 283              		MRS	R0, CPSR			
 284              		ORR	R0, R0, #0xC0		
 285              		MSR	CPSR, R0			
 217:SRC/RTOS/portISR.c **** 	/* Disable interrupts as per portDISABLE_INTERRUPTS(); 							*/
 218:SRC/RTOS/portISR.c **** 	asm volatile ( 
 286              	A	SP!, {R0}
 287              	@ 0 "" 2
 288 01f4 01002DE9 		.loc 1 228 0
 289 01f8 00000FE1 		ldr	r3, .L19	@ tmp135,
 290 01fc C00080E3 		ldr	r3, [r3, #0]	@ ulCriticalNesting.10, ulCriticalNesting
 291 0200 00F029E1 		add	r2, r3, #1	@ ulCriticalNesting.11, ulCriticalNesting.10,
ARM GAS  C:\DOCUME~1\ZAQUAD~1\USTAWI~1\Temp/ccndWGJP.s 			page 10


 292 0204 0100BDE8 		ldr	r3, .L19	@ tmp136,
 293              		str	r2, [r3, #0]	@ ulCriticalNesting.11, ulCriticalNesting
 219:SRC/RTOS/portISR.c **** 		"STMDB	SP!, {R0}			\n\t"	/* Push R0.								*/
 220:SRC/RTOS/portISR.c **** 		"MRS	R0, CPSR			\n\t"	/* Get CPSR.							*/
 221:SRC/RTOS/portISR.c **** 		"ORR	R0, R0, #0xC0		\n\t"	/* Disable IRQ, FIQ.					*/
 222:SRC/RTOS/portISR.c **** 		"MSR	CPSR, R0			\n\t"	/* Write back modified value.			*/
 223:SRC/RTOS/portISR.c **** 		"LDMIA	SP!, {R0}" );				/* Pop R0.								*/
 224:SRC/RTOS/portISR.c **** 
 225:SRC/RTOS/portISR.c **** 	/* Now interrupts are disabled ulCriticalNesting can be accessed 
 226:SRC/RTOS/portISR.c **** 	directly.  Increment ulCriticalNesting to keep a count of how many times
 227:SRC/RTOS/portISR.c **** 	portENTER_CRITICAL() has been called. */
 228:SRC/RTOS/portISR.c **** 	ulCriticalNesting++;
 294              	229 0
 295 0208 10309FE5 		bx	lr	@
 296 020c 003093E5 	.L20:
 297 0210 012083E2 		.align	2
 298 0214 04309FE5 	.L19:
 299 0218 002083E5 		.word	ulCriticalNesting
 229:SRC/RTOS/portISR.c **** }
 300              	
 301 021c 1EFF2FE1 		.size	vPortEnterCritical, .-vPortEnterCritical
 302              		.align	2
 303              		.global	vPortExitCritical
 304              		.type	vPortExitCritical, %function
 305 0220 00000000 	vPortExitCritical:
 306              	.LFB8:
 307              		.loc 1 232 0
 308              		@ Function supports interworking.
 309              		@ args = 0, pretend = 0, frame = 0
 310              		@ frame_needed = 0, uses_anonymous_args = 0
 311              		@ link register save eliminated.
 312              		.loc 1 233 0
 230:SRC/RTOS/portISR.c **** 
 231:SRC/RTOS/portISR.c **** void vPortExitCritical( void )
 232:SRC/RTOS/portISR.c **** {
 313              	4	@ tmp137,
 314              		ldr	r3, [r3, #0]	@ ulCriticalNesting.12, ulCriticalNesting
 315              		cmp	r3, #0	@ ulCriticalNesting.12,
 316              		beq	.L23	@,
 317              		.loc 1 236 0
 233:SRC/RTOS/portISR.c **** 	if( ulCriticalNesting > portNO_CRITICAL_NESTING )
 318              	r3, .L24	@ tmp138,
 319 0224 44309FE5 		ldr	r3, [r3, #0]	@ ulCriticalNesting.13, ulCriticalNesting
 320 0228 003093E5 		sub	r2, r3, #1	@ ulCriticalNesting.14, ulCriticalNesting.13,
 321 022c 000053E3 		ldr	r3, .L24	@ tmp139,
 322 0230 0D00000A 		str	r2, [r3, #0]	@ ulCriticalNesting.14, ulCriticalNesting
 234:SRC/RTOS/portISR.c **** 	{
 235:SRC/RTOS/portISR.c **** 		/* Decrement the nesting count as we are leaving a critical section. */
 236:SRC/RTOS/portISR.c **** 		ulCriticalNesting--;
 323              	 1 240 0
 324 0234 34309FE5 		ldr	r3, .L24	@ tmp140,
 325 0238 003093E5 		ldr	r3, [r3, #0]	@ ulCriticalNesting.15, ulCriticalNesting
 326 023c 012043E2 		cmp	r3, #0	@ ulCriticalNesting.15,
 327 0240 28309FE5 		bne	.L23	@,
 328 0244 002083E5 		.loc 1 243 0
 237:SRC/RTOS/portISR.c **** 
 238:SRC/RTOS/portISR.c **** 		/* If the nesting level has reached zero then interrupts should be
ARM GAS  C:\DOCUME~1\ZAQUAD~1\USTAWI~1\Temp/ccndWGJP.s 			page 11


 239:SRC/RTOS/portISR.c **** 		re-enabled. */
 240:SRC/RTOS/portISR.c **** 		if( ulCriticalNesting == portNO_CRITICAL_NESTING )
 329              	"SRC/RTOS/portISR.c" 1
 330 0248 20309FE5 		STMDB	SP!, {R0}		
 331 024c 003093E5 		MRS	R0, CPSR		
 332 0250 000053E3 		BIC	R0, R0, #0xC0	
 333 0254 0400001A 		MSR	CPSR, R0		
 241:SRC/RTOS/portISR.c **** 		{
 242:SRC/RTOS/portISR.c **** 			/* Enable interrupts as per portEXIT_CRITICAL().					*/
 243:SRC/RTOS/portISR.c **** 			asm volatile ( 
 334              	A	SP!, {R0}
 335              	@ 0 "" 2
 336 0258 01002DE9 	.L23:
 337 025c 00000FE1 		.loc 1 251 0
 338 0260 C000C0E3 		bx	lr	@
 339 0264 00F029E1 	.L25:
 340 0268 0100BDE8 		.align	2
 341              	.L24:
 342              		.word	ulCriticalNesting
 244:SRC/RTOS/portISR.c **** 				"STMDB	SP!, {R0}		\n\t"	/* Push R0.						*/	
 245:SRC/RTOS/portISR.c **** 				"MRS	R0, CPSR		\n\t"	/* Get CPSR.					*/	
 246:SRC/RTOS/portISR.c **** 				"BIC	R0, R0, #0xC0	\n\t"	/* Enable IRQ, FIQ.				*/	
 247:SRC/RTOS/portISR.c **** 				"MSR	CPSR, R0		\n\t"	/* Write back modified value.	*/	
 248:SRC/RTOS/portISR.c **** 				"LDMIA	SP!, {R0}" );			/* Pop R0.						*/
 249:SRC/RTOS/portISR.c **** 		}
 250:SRC/RTOS/portISR.c **** 	}
 251:SRC/RTOS/portISR.c **** }
 343              	size	vPortExitCritical, .-vPortExitCritical
 344 026c 1EFF2FE1 		.section	.debug_frame,"",%progbits
 345              	.Lframe0:
 346              		.4byte	.LECIE0-.LSCIE0
 347              	.LSCIE0:
 348 0270 00000000 		.4byte	0xffffffff
 349              		.byte	0x1
 350              		.ascii	"\000"
 351              		.uleb128 0x1
 352              		.sleb128 -4
 353 0000 0C000000 		.byte	0xe
 354              		.byte	0xc
 355 0004 FFFFFFFF 		.uleb128 0xd
 356 0008 01       		.uleb128 0x0
 357 0009 00       		.align	2
 358 000a 01       	.LECIE0:
 359 000b 7C       	.LSFDE0:
 360 000c 0E       		.4byte	.LEFDE0-.LASFDE0
 361 000d 0C       	.LASFDE0:
 362 000e 0D       		.4byte	.Lframe0
 363 000f 00       		.4byte	.LFB2
 364              		.4byte	.LFE2-.LFB2
 365              		.byte	0x4
 366              		.4byte	.LCFI0-.LFB2
 367 0010 10000000 		.byte	0xe
 368              		.uleb128 0x8
 369 0014 00000000 		.align	2
 370 0018 00000000 	.LEFDE0:
 371 001c 54000000 	.LSFDE2:
 372 0020 44       		.4byte	.LEFDE2-.LASFDE2
ARM GAS  C:\DOCUME~1\ZAQUAD~1\USTAWI~1\Temp/ccndWGJP.s 			page 12


 373              	.LASFDE2:
 374 0021 0E       		.4byte	.Lframe0
 375 0022 08       		.4byte	.LFB3
 376 0023 00       		.4byte	.LFE3-.LFB3
 377              		.align	2
 378              	.LEFDE2:
 379 0024 0C000000 	.LSFDE4:
 380              		.4byte	.LEFDE4-.LASFDE4
 381 0028 00000000 	.LASFDE4:
 382 002c 54000000 		.4byte	.Lframe0
 383 0030 AC000000 		.4byte	.LFB4
 384              		.4byte	.LFE4-.LFB4
 385              		.align	2
 386              	.LEFDE4:
 387 0034 0C000000 	.LSFDE6:
 388              		.4byte	.LEFDE6-.LASFDE6
 389 0038 00000000 	.LASFDE6:
 390 003c 00010000 		.4byte	.Lframe0
 391 0040 C4000000 		.4byte	.LFB5
 392              		.4byte	.LFE5-.LFB5
 393              		.align	2
 394              	.LEFDE6:
 395 0044 0C000000 	.LSFDE8:
 396              		.4byte	.LEFDE8-.LASFDE8
 397 0048 00000000 	.LASFDE8:
 398 004c C4010000 		.4byte	.Lframe0
 399 0050 18000000 		.4byte	.LFB6
 400              		.4byte	.LFE6-.LFB6
 401              		.align	2
 402              	.LEFDE8:
 403 0054 0C000000 	.LSFDE10:
 404              		.4byte	.LEFDE10-.LASFDE10
 405 0058 00000000 	.LASFDE10:
 406 005c DC010000 		.4byte	.Lframe0
 407 0060 18000000 		.4byte	.LFB7
 408              		.4byte	.LFE7-.LFB7
 409              		.align	2
 410              	.LEFDE10:
 411 0064 0C000000 	.LSFDE12:
 412              		.4byte	.LEFDE12-.LASFDE12
 413 0068 00000000 	.LASFDE12:
 414 006c F4010000 		.4byte	.Lframe0
 415 0070 30000000 		.4byte	.LFB8
 416              		.4byte	.LFE8-.LFB8
 417              		.align	2
 418              	.LEFDE12:
 419 0074 0C000000 		.text
 420              	.Letext0: