ARM GAS  C:\DOCUME~1\ZAQUAD~1\USTAWI~1\Temp/ccIVGP1b.s 			page 1


   1              		.file	"tasks.c"
   2              	@ GNU C (GCC) version 4.3.3 (arm-elf)
   3              	@	compiled by GNU C version 3.4.5 (mingw special), GMP version 4.2.2, MPFR version 2.3.1.
   4              	@ GGC heuristics: --param ggc-min-expand=100 --param ggc-min-heapsize=131072
   5              	@ options passed:  -I . -IINC/ -IINC/RTOS/ -imultilib interwork -iprefix
   6              	@ d:\programy\mikrokontrolery\arm\yagarto\bin\../lib/gcc/arm-elf/4.3.3/ -MD
   7              	@ SRC/RTOS/tasks.d -MF .dep/tasks.o.d -MP -MQ SRC/RTOS/tasks.o
   8              	@ -D__USES_INITFINI__ SRC/RTOS/tasks.c -mcpu=arm7tdmi -mthumb-interwork
   9              	@ -auxbase-strip SRC/RTOS/tasks.o -gdwarf-2 -O0 -Wall -Wstrict-prototypes
  10              	@ -fomit-frame-pointer -fverbose-asm
  11              	@ options enabled:  -falign-loops -fargument-alias -fauto-inc-dec
  12              	@ -fbranch-count-reg -fcommon -fearly-inlining
  13              	@ -feliminate-unused-debug-types -ffunction-cse -fgcse-lm -fident -fivopts
  14              	@ -fkeep-static-consts -fleading-underscore -fmath-errno
  15              	@ -fmerge-debug-strings -fmove-loop-invariants -fomit-frame-pointer
  16              	@ -fpeephole -freg-struct-return -fsched-interblock -fsched-spec
  17              	@ -fsched-stalled-insns-dep -fsigned-zeros -fsplit-ivs-in-unroller
  18              	@ -ftoplevel-reorder -ftrapping-math -ftree-cselim -ftree-loop-im
  19              	@ -ftree-loop-ivcanon -ftree-loop-optimize -ftree-parallelize-loops=
  20              	@ -ftree-reassoc -ftree-scev-cprop -ftree-vect-loop-version -fverbose-asm
  21              	@ -fzero-initialized-in-bss -mlittle-endian -msched-prolog
  22              	@ -mthumb-interwork
  23              	
  30 0000 83020000 		.text
  30      02006100 
  30      00000201 
  30      FB0E0D00 
  30      01010101 
  31              	.Ltext0:
  32              	@ Compiler executable checksum: aefe8b2555dadc8858779d7450a1d1fb
  33              	
  34              		.global	pxCurrentTCB
  35              		.bss
  36              		.align	2
  37              		.type	pxCurrentTCB, %object
  38              		.size	pxCurrentTCB, 4
  39              	pxCurrentTCB:
  40 0000 00000000 		.space	4
  41              		.align	2
  42              	uxTasksDeleted:
  43 0004 00000000 		.space	4
  44              		.align	2
  45              	uxCurrentNumberOfTasks:
  46 0008 00000000 		.space	4
  47              		.align	2
  48              	xTickCount:
  49 000c 00000000 		.space	4
  50              		.align	2
  51              	uxTopUsedPriority:
  52 0010 00000000 		.space	4
  53              		.align	2
ARM GAS  C:\DOCUME~1\ZAQUAD~1\USTAWI~1\Temp/ccIVGP1b.s 			page 2


  54              	uxTopReadyPriority:
  55 0014 00000000 		.space	4
  56              		.align	2
  57              	xSchedulerRunning:
  58 0018 00000000 		.space	4
  59              		.align	2
  60              	uxSchedulerSuspended:
  61 001c 00000000 		.space	4
  62              		.align	2
  63              	uxMissedTicks:
  64 0020 00000000 		.space	4
  65              		.align	2
  66              	xMissedYield:
  67 0024 00000000 		.space	4
  68              		.align	2
  69              	xNumOfOverflows:
  70 0028 00000000 		.space	4
  71              		.align	2
  72              	uxTaskNumber:
  73 002c 00000000 		.space	4
  74              		.align	2
  75              	xTracing:
  76 0030 00000000 		.space	4
  77              		.data
  78              		.align	2
  79              		.type	uxPreviousTask, %object
  80              		.size	uxPreviousTask, 4
  81              	uxPreviousTask:
  82 0000 FF000000 		.word	255
  83              		.text
  84              		.align	2
  85              		.global	xTaskGenericCreate
  86              		.type	xTaskGenericCreate, %function
  87              	xTaskGenericCreate:
  88              	.LFB2:
  89              		.file 1 "SRC/RTOS/tasks.c"
   1:SRC/RTOS/tasks.c **** /*
   2:SRC/RTOS/tasks.c ****     FreeRTOS V6.0.2 - Copyright (C) 2010 Real Time Engineers Ltd.
   3:SRC/RTOS/tasks.c **** 
   4:SRC/RTOS/tasks.c ****     ***************************************************************************
   5:SRC/RTOS/tasks.c ****     *                                                                         *
   6:SRC/RTOS/tasks.c ****     * If you are:                                                             *
   7:SRC/RTOS/tasks.c ****     *                                                                         *
   8:SRC/RTOS/tasks.c ****     *    + New to FreeRTOS,                                                   *
   9:SRC/RTOS/tasks.c ****     *    + Wanting to learn FreeRTOS or multitasking in general quickly       *
  10:SRC/RTOS/tasks.c ****     *    + Looking for basic training,                                        *
  11:SRC/RTOS/tasks.c ****     *    + Wanting to improve your FreeRTOS skills and productivity           *
  12:SRC/RTOS/tasks.c ****     *                                                                         *
  13:SRC/RTOS/tasks.c ****     * then take a look at the FreeRTOS eBook                                  *
  14:SRC/RTOS/tasks.c ****     *                                                                         *
  15:SRC/RTOS/tasks.c ****     *        "Using the FreeRTOS Real Time Kernel - a Practical Guide"        *
  16:SRC/RTOS/tasks.c ****     *                  http://www.FreeRTOS.org/Documentation                  *
  17:SRC/RTOS/tasks.c ****     *                                                                         *
  18:SRC/RTOS/tasks.c ****     * A pdf reference manual is also available.  Both are usually delivered   *
  19:SRC/RTOS/tasks.c ****     * to your inbox within 20 minutes to two hours when purchased between 8am *
  20:SRC/RTOS/tasks.c ****     * and 8pm GMT (although please allow up to 24 hours in case of            *
  21:SRC/RTOS/tasks.c ****     * exceptional circumstances).  Thank you for your support!                *
ARM GAS  C:\DOCUME~1\ZAQUAD~1\USTAWI~1\Temp/ccIVGP1b.s 			page 3


  22:SRC/RTOS/tasks.c ****     *                                                                         *
  23:SRC/RTOS/tasks.c ****     ***************************************************************************
  24:SRC/RTOS/tasks.c **** 
  25:SRC/RTOS/tasks.c ****     This file is part of the FreeRTOS distribution.
  26:SRC/RTOS/tasks.c **** 
  27:SRC/RTOS/tasks.c ****     FreeRTOS is free software; you can redistribute it and/or modify it under
  28:SRC/RTOS/tasks.c ****     the terms of the GNU General Public License (version 2) as published by the
  29:SRC/RTOS/tasks.c ****     Free Software Foundation AND MODIFIED BY the FreeRTOS exception.
  30:SRC/RTOS/tasks.c ****     ***NOTE*** The exception to the GPL is included to allow you to distribute
  31:SRC/RTOS/tasks.c ****     a combined work that includes FreeRTOS without being obliged to provide the
  32:SRC/RTOS/tasks.c ****     source code for proprietary components outside of the FreeRTOS kernel.
  33:SRC/RTOS/tasks.c ****     FreeRTOS is distributed in the hope that it will be useful, but WITHOUT
  34:SRC/RTOS/tasks.c ****     ANY WARRANTY; without even the implied warranty of MERCHANTABILITY or
  35:SRC/RTOS/tasks.c ****     FITNESS FOR A PARTICULAR PURPOSE.  See the GNU General Public License for
  36:SRC/RTOS/tasks.c ****     more details. You should have received a copy of the GNU General Public
  37:SRC/RTOS/tasks.c ****     License and the FreeRTOS license exception along with FreeRTOS; if not it
  38:SRC/RTOS/tasks.c ****     can be viewed here: http://www.freertos.org/a00114.html and also obtained
  39:SRC/RTOS/tasks.c ****     by writing to Richard Barry, contact details for whom are available on the
  40:SRC/RTOS/tasks.c ****     FreeRTOS WEB site.
  41:SRC/RTOS/tasks.c **** 
  42:SRC/RTOS/tasks.c ****     1 tab == 4 spaces!
  43:SRC/RTOS/tasks.c **** 
  44:SRC/RTOS/tasks.c ****     http://www.FreeRTOS.org - Documentation, latest information, license and
  45:SRC/RTOS/tasks.c ****     contact details.
  46:SRC/RTOS/tasks.c **** 
  47:SRC/RTOS/tasks.c ****     http://www.SafeRTOS.com - A version that is certified for use in safety
  48:SRC/RTOS/tasks.c ****     critical systems.
  49:SRC/RTOS/tasks.c **** 
  50:SRC/RTOS/tasks.c ****     http://www.OpenRTOS.com - Commercial support, development, porting,
  51:SRC/RTOS/tasks.c ****     licensing and training services.
  52:SRC/RTOS/tasks.c **** */
  53:SRC/RTOS/tasks.c **** 
  54:SRC/RTOS/tasks.c **** 
  55:SRC/RTOS/tasks.c **** #include <stdio.h>
  56:SRC/RTOS/tasks.c **** #include <stdlib.h>
  57:SRC/RTOS/tasks.c **** #include <string.h>
  58:SRC/RTOS/tasks.c **** 
  59:SRC/RTOS/tasks.c **** /* Defining MPU_WRAPPERS_INCLUDED_FROM_API_FILE prevents task.h from redefining
  60:SRC/RTOS/tasks.c **** all the API functions to use the MPU wrappers.  That should only be done when
  61:SRC/RTOS/tasks.c **** task.h is included from an application file. */
  62:SRC/RTOS/tasks.c **** #define MPU_WRAPPERS_INCLUDED_FROM_API_FILE
  63:SRC/RTOS/tasks.c **** 
  64:SRC/RTOS/tasks.c **** #include "FreeRTOS.h"
  65:SRC/RTOS/tasks.c **** #include "task.h"
  66:SRC/RTOS/tasks.c **** #include "StackMacros.h"
  67:SRC/RTOS/tasks.c **** 
  68:SRC/RTOS/tasks.c **** #undef MPU_WRAPPERS_INCLUDED_FROM_API_FILE
  69:SRC/RTOS/tasks.c **** 
  70:SRC/RTOS/tasks.c **** /*
  71:SRC/RTOS/tasks.c ****  * Macro to define the amount of stack available to the idle task.
  72:SRC/RTOS/tasks.c ****  */
  73:SRC/RTOS/tasks.c **** #define tskIDLE_STACK_SIZE	configMINIMAL_STACK_SIZE
  74:SRC/RTOS/tasks.c **** 
  75:SRC/RTOS/tasks.c **** #define tskIDLE_PRIORITY			( ( unsigned portBASE_TYPE ) 0 )
  76:SRC/RTOS/tasks.c **** 
  77:SRC/RTOS/tasks.c **** /*
  78:SRC/RTOS/tasks.c ****  * Task control block.  A task control block (TCB) is allocated to each task,
ARM GAS  C:\DOCUME~1\ZAQUAD~1\USTAWI~1\Temp/ccIVGP1b.s 			page 4


  79:SRC/RTOS/tasks.c ****  * and stores the context of the task.
  80:SRC/RTOS/tasks.c ****  */
  81:SRC/RTOS/tasks.c **** typedef struct tskTaskControlBlock
  82:SRC/RTOS/tasks.c **** {
  83:SRC/RTOS/tasks.c **** 	volatile portSTACK_TYPE	*pxTopOfStack;		/*< Points to the location of the last item placed on the 
  84:SRC/RTOS/tasks.c **** 
  85:SRC/RTOS/tasks.c **** 	#if ( portUSING_MPU_WRAPPERS == 1 )
  86:SRC/RTOS/tasks.c **** 		xMPU_SETTINGS xMPUSettings;				/*< The MPU settings are defined as part of the port layer.  THIS 
  87:SRC/RTOS/tasks.c **** 	#endif
  88:SRC/RTOS/tasks.c **** 
  89:SRC/RTOS/tasks.c **** 	xListItem				xGenericListItem;	/*< List item used to place the TCB in ready and blocked queues. */
  90:SRC/RTOS/tasks.c **** 	xListItem				xEventListItem;		/*< List item used to place the TCB in event lists. */
  91:SRC/RTOS/tasks.c **** 	unsigned portBASE_TYPE	uxPriority;			/*< The priority of the task where 0 is the lowest priority. 
  92:SRC/RTOS/tasks.c **** 	portSTACK_TYPE			*pxStack;			/*< Points to the start of the stack. */
  93:SRC/RTOS/tasks.c **** 	signed char				pcTaskName[ configMAX_TASK_NAME_LEN ];/*< Descriptive name given to the task when c
  94:SRC/RTOS/tasks.c **** 
  95:SRC/RTOS/tasks.c **** 	#if ( portSTACK_GROWTH > 0 )
  96:SRC/RTOS/tasks.c **** 		portSTACK_TYPE *pxEndOfStack;			/*< Used for stack overflow checking on architectures where the s
  97:SRC/RTOS/tasks.c **** 	#endif
  98:SRC/RTOS/tasks.c **** 
  99:SRC/RTOS/tasks.c **** 	#if ( portCRITICAL_NESTING_IN_TCB == 1 )
 100:SRC/RTOS/tasks.c **** 		unsigned portBASE_TYPE uxCriticalNesting;
 101:SRC/RTOS/tasks.c **** 	#endif
 102:SRC/RTOS/tasks.c **** 
 103:SRC/RTOS/tasks.c **** 	#if ( configUSE_TRACE_FACILITY == 1 )
 104:SRC/RTOS/tasks.c **** 		unsigned portBASE_TYPE	uxTCBNumber;	/*< This is used for tracing the scheduler and making debuggi
 105:SRC/RTOS/tasks.c **** 	#endif
 106:SRC/RTOS/tasks.c **** 
 107:SRC/RTOS/tasks.c **** 	#if ( configUSE_MUTEXES == 1 )
 108:SRC/RTOS/tasks.c **** 		unsigned portBASE_TYPE uxBasePriority;	/*< The priority last assigned to the task - used by the p
 109:SRC/RTOS/tasks.c **** 	#endif
 110:SRC/RTOS/tasks.c **** 
 111:SRC/RTOS/tasks.c **** 	#if ( configUSE_APPLICATION_TASK_TAG == 1 )
 112:SRC/RTOS/tasks.c **** 		pdTASK_HOOK_CODE pxTaskTag;
 113:SRC/RTOS/tasks.c **** 	#endif
 114:SRC/RTOS/tasks.c **** 
 115:SRC/RTOS/tasks.c **** 	#if ( configGENERATE_RUN_TIME_STATS == 1 )
 116:SRC/RTOS/tasks.c **** 		unsigned long ulRunTimeCounter;		/*< Used for calculating how much CPU time each task is utilisin
 117:SRC/RTOS/tasks.c **** 	#endif
 118:SRC/RTOS/tasks.c **** 
 119:SRC/RTOS/tasks.c **** } tskTCB;
 120:SRC/RTOS/tasks.c **** 
 121:SRC/RTOS/tasks.c **** 
 122:SRC/RTOS/tasks.c **** /*
 123:SRC/RTOS/tasks.c ****  * Some kernel aware debuggers require data to be viewed to be global, rather
 124:SRC/RTOS/tasks.c ****  * than file scope.
 125:SRC/RTOS/tasks.c ****  */
 126:SRC/RTOS/tasks.c **** #ifdef portREMOVE_STATIC_QUALIFIER
 127:SRC/RTOS/tasks.c **** 	#define static
 128:SRC/RTOS/tasks.c **** #endif
 129:SRC/RTOS/tasks.c **** 
 130:SRC/RTOS/tasks.c **** /*lint -e956 */
 131:SRC/RTOS/tasks.c **** PRIVILEGED_DATA tskTCB * volatile pxCurrentTCB = NULL;
 132:SRC/RTOS/tasks.c **** 
 133:SRC/RTOS/tasks.c **** /* Lists for ready and blocked tasks. --------------------*/
 134:SRC/RTOS/tasks.c **** 
 135:SRC/RTOS/tasks.c **** PRIVILEGED_DATA static xList pxReadyTasksLists[ configMAX_PRIORITIES ];	/*< Prioritised ready tasks
ARM GAS  C:\DOCUME~1\ZAQUAD~1\USTAWI~1\Temp/ccIVGP1b.s 			page 5


 136:SRC/RTOS/tasks.c **** PRIVILEGED_DATA static xList xDelayedTaskList1;							/*< Delayed tasks. */
 137:SRC/RTOS/tasks.c **** PRIVILEGED_DATA static xList xDelayedTaskList2;							/*< Delayed tasks (two lists are used - one f
 138:SRC/RTOS/tasks.c **** PRIVILEGED_DATA static xList * volatile pxDelayedTaskList ;				/*< Points to the delayed task list 
 139:SRC/RTOS/tasks.c **** PRIVILEGED_DATA static xList * volatile pxOverflowDelayedTaskList;		/*< Points to the delayed task 
 140:SRC/RTOS/tasks.c **** PRIVILEGED_DATA static xList xPendingReadyList;							/*< Tasks that have been readied while the sc
 141:SRC/RTOS/tasks.c **** 
 142:SRC/RTOS/tasks.c **** #if ( INCLUDE_vTaskDelete == 1 )
 143:SRC/RTOS/tasks.c **** 
 144:SRC/RTOS/tasks.c **** 	PRIVILEGED_DATA static volatile xList xTasksWaitingTermination;		/*< Tasks that have been deleted 
 145:SRC/RTOS/tasks.c **** 	PRIVILEGED_DATA static volatile unsigned portBASE_TYPE uxTasksDeleted = ( unsigned portBASE_TYPE )
 146:SRC/RTOS/tasks.c **** 
 147:SRC/RTOS/tasks.c **** #endif
 148:SRC/RTOS/tasks.c **** 
 149:SRC/RTOS/tasks.c **** #if ( INCLUDE_vTaskSuspend == 1 )
 150:SRC/RTOS/tasks.c **** 
 151:SRC/RTOS/tasks.c **** 	PRIVILEGED_DATA static xList xSuspendedTaskList;					/*< Tasks that are currently suspended. */
 152:SRC/RTOS/tasks.c **** 
 153:SRC/RTOS/tasks.c **** #endif
 154:SRC/RTOS/tasks.c **** 
 155:SRC/RTOS/tasks.c **** /* File private variables. --------------------------------*/
 156:SRC/RTOS/tasks.c **** PRIVILEGED_DATA static volatile unsigned portBASE_TYPE uxCurrentNumberOfTasks 	= ( unsigned portBAS
 157:SRC/RTOS/tasks.c **** PRIVILEGED_DATA static volatile portTickType xTickCount 						= ( portTickType ) 0;
 158:SRC/RTOS/tasks.c **** PRIVILEGED_DATA static unsigned portBASE_TYPE uxTopUsedPriority	 				= tskIDLE_PRIORITY;
 159:SRC/RTOS/tasks.c **** PRIVILEGED_DATA static volatile unsigned portBASE_TYPE uxTopReadyPriority 		= tskIDLE_PRIORITY;
 160:SRC/RTOS/tasks.c **** PRIVILEGED_DATA static volatile signed portBASE_TYPE xSchedulerRunning 			= pdFALSE;
 161:SRC/RTOS/tasks.c **** PRIVILEGED_DATA static volatile unsigned portBASE_TYPE uxSchedulerSuspended	 	= ( unsigned portBASE
 162:SRC/RTOS/tasks.c **** PRIVILEGED_DATA static volatile unsigned portBASE_TYPE uxMissedTicks 			= ( unsigned portBASE_TYPE 
 163:SRC/RTOS/tasks.c **** PRIVILEGED_DATA static volatile portBASE_TYPE xMissedYield 						= ( portBASE_TYPE ) pdFALSE;
 164:SRC/RTOS/tasks.c **** PRIVILEGED_DATA static volatile portBASE_TYPE xNumOfOverflows 					= ( portBASE_TYPE ) 0;
 165:SRC/RTOS/tasks.c **** PRIVILEGED_DATA static unsigned portBASE_TYPE uxTaskNumber 						= ( unsigned portBASE_TYPE ) 0;
 166:SRC/RTOS/tasks.c **** 
 167:SRC/RTOS/tasks.c **** #if ( configGENERATE_RUN_TIME_STATS == 1 )
 168:SRC/RTOS/tasks.c **** 
 169:SRC/RTOS/tasks.c **** 	PRIVILEGED_DATA static char pcStatsString[ 50 ] ;
 170:SRC/RTOS/tasks.c **** 	PRIVILEGED_DATA static unsigned long ulTaskSwitchedInTime = 0UL;	/*< Holds the value of a timer/co
 171:SRC/RTOS/tasks.c **** 	static void prvGenerateRunTimeStatsForTasksInList( const signed char *pcWriteBuffer, xList *pxList
 172:SRC/RTOS/tasks.c **** 
 173:SRC/RTOS/tasks.c **** #endif
 174:SRC/RTOS/tasks.c **** 
 175:SRC/RTOS/tasks.c **** /* Debugging and trace facilities private variables and macros. ------------*/
 176:SRC/RTOS/tasks.c **** 
 177:SRC/RTOS/tasks.c **** /*
 178:SRC/RTOS/tasks.c ****  * The value used to fill the stack of a task when the task is created.  This
 179:SRC/RTOS/tasks.c ****  * is used purely for checking the high water mark for tasks.
 180:SRC/RTOS/tasks.c ****  */
 181:SRC/RTOS/tasks.c **** #define tskSTACK_FILL_BYTE	( 0xa5 )
 182:SRC/RTOS/tasks.c **** 
 183:SRC/RTOS/tasks.c **** /*
 184:SRC/RTOS/tasks.c ****  * Macros used by vListTask to indicate which state a task is in.
 185:SRC/RTOS/tasks.c ****  */
 186:SRC/RTOS/tasks.c **** #define tskBLOCKED_CHAR		( ( signed char ) 'B' )
 187:SRC/RTOS/tasks.c **** #define tskREADY_CHAR		( ( signed char ) 'R' )
 188:SRC/RTOS/tasks.c **** #define tskDELETED_CHAR		( ( signed char ) 'D' )
 189:SRC/RTOS/tasks.c **** #define tskSUSPENDED_CHAR	( ( signed char ) 'S' )
 190:SRC/RTOS/tasks.c **** 
 191:SRC/RTOS/tasks.c **** /*
 192:SRC/RTOS/tasks.c ****  * Macros and private variables used by the trace facility.
ARM GAS  C:\DOCUME~1\ZAQUAD~1\USTAWI~1\Temp/ccIVGP1b.s 			page 6


 193:SRC/RTOS/tasks.c ****  */
 194:SRC/RTOS/tasks.c **** #if ( configUSE_TRACE_FACILITY == 1 )
 195:SRC/RTOS/tasks.c **** 
 196:SRC/RTOS/tasks.c **** 	#define tskSIZE_OF_EACH_TRACE_LINE			( ( unsigned long ) ( sizeof( unsigned long ) + sizeof( unsig
 197:SRC/RTOS/tasks.c **** 	PRIVILEGED_DATA static volatile signed char * volatile pcTraceBuffer;
 198:SRC/RTOS/tasks.c **** 	PRIVILEGED_DATA static signed char *pcTraceBufferStart;
 199:SRC/RTOS/tasks.c **** 	PRIVILEGED_DATA static signed char *pcTraceBufferEnd;
 200:SRC/RTOS/tasks.c **** 	PRIVILEGED_DATA static signed portBASE_TYPE xTracing = pdFALSE;
 201:SRC/RTOS/tasks.c **** 	static unsigned portBASE_TYPE uxPreviousTask = 255;
 202:SRC/RTOS/tasks.c **** 	PRIVILEGED_DATA static char pcStatusString[ 50 ];
 203:SRC/RTOS/tasks.c **** 
 204:SRC/RTOS/tasks.c **** #endif
 205:SRC/RTOS/tasks.c **** 
 206:SRC/RTOS/tasks.c **** /*-----------------------------------------------------------*/
 207:SRC/RTOS/tasks.c **** 
 208:SRC/RTOS/tasks.c **** /*
 209:SRC/RTOS/tasks.c ****  * Macro that writes a trace of scheduler activity to a buffer.  This trace
 210:SRC/RTOS/tasks.c ****  * shows which task is running when and is very useful as a debugging tool.
 211:SRC/RTOS/tasks.c ****  * As this macro is called each context switch it is a good idea to undefine
 212:SRC/RTOS/tasks.c ****  * it if not using the facility.
 213:SRC/RTOS/tasks.c ****  */
 214:SRC/RTOS/tasks.c **** #if ( configUSE_TRACE_FACILITY == 1 )
 215:SRC/RTOS/tasks.c **** 
 216:SRC/RTOS/tasks.c **** 	#define vWriteTraceToBuffer()																	\
 217:SRC/RTOS/tasks.c **** 	{																								\
 218:SRC/RTOS/tasks.c **** 		if( xTracing )																				\
 219:SRC/RTOS/tasks.c **** 		{																							\
 220:SRC/RTOS/tasks.c **** 			if( uxPreviousTask != pxCurrentTCB->uxTCBNumber )										\
 221:SRC/RTOS/tasks.c **** 			{																						\
 222:SRC/RTOS/tasks.c **** 				if( ( pcTraceBuffer + tskSIZE_OF_EACH_TRACE_LINE ) < pcTraceBufferEnd )				\
 223:SRC/RTOS/tasks.c **** 				{																					\
 224:SRC/RTOS/tasks.c **** 					uxPreviousTask = pxCurrentTCB->uxTCBNumber;										\
 225:SRC/RTOS/tasks.c **** 					*( unsigned long * ) pcTraceBuffer = ( unsigned long ) xTickCount;		\
 226:SRC/RTOS/tasks.c **** 					pcTraceBuffer += sizeof( unsigned long );									\
 227:SRC/RTOS/tasks.c **** 					*( unsigned long * ) pcTraceBuffer = ( unsigned long ) uxPreviousTask;	\
 228:SRC/RTOS/tasks.c **** 					pcTraceBuffer += sizeof( unsigned long );									\
 229:SRC/RTOS/tasks.c **** 				}																					\
 230:SRC/RTOS/tasks.c **** 				else																				\
 231:SRC/RTOS/tasks.c **** 				{																					\
 232:SRC/RTOS/tasks.c **** 					xTracing = pdFALSE;																\
 233:SRC/RTOS/tasks.c **** 				}																					\
 234:SRC/RTOS/tasks.c **** 			}																						\
 235:SRC/RTOS/tasks.c **** 		}																							\
 236:SRC/RTOS/tasks.c **** 	}
 237:SRC/RTOS/tasks.c **** 
 238:SRC/RTOS/tasks.c **** #else
 239:SRC/RTOS/tasks.c **** 
 240:SRC/RTOS/tasks.c **** 	#define vWriteTraceToBuffer()
 241:SRC/RTOS/tasks.c **** 
 242:SRC/RTOS/tasks.c **** #endif
 243:SRC/RTOS/tasks.c **** /*-----------------------------------------------------------*/
 244:SRC/RTOS/tasks.c **** 
 245:SRC/RTOS/tasks.c **** /*
 246:SRC/RTOS/tasks.c ****  * Place the task represented by pxTCB into the appropriate ready queue for
 247:SRC/RTOS/tasks.c ****  * the task.  It is inserted at the end of the list.  One quirk of this is
 248:SRC/RTOS/tasks.c ****  * that if the task being inserted is at the same priority as the currently
 249:SRC/RTOS/tasks.c ****  * executing task, then it will only be rescheduled after the currently
ARM GAS  C:\DOCUME~1\ZAQUAD~1\USTAWI~1\Temp/ccIVGP1b.s 			page 7


 250:SRC/RTOS/tasks.c ****  * executing task has been rescheduled.
 251:SRC/RTOS/tasks.c ****  */
 252:SRC/RTOS/tasks.c **** #define prvAddTaskToReadyQueue( pxTCB )																			\
 253:SRC/RTOS/tasks.c **** {																												\
 254:SRC/RTOS/tasks.c **** 	if( pxTCB->uxPriority > uxTopReadyPriority )																\
 255:SRC/RTOS/tasks.c **** 	{																											\
 256:SRC/RTOS/tasks.c **** 		uxTopReadyPriority = pxTCB->uxPriority;																	\
 257:SRC/RTOS/tasks.c **** 	}																											\
 258:SRC/RTOS/tasks.c **** 	vListInsertEnd( ( xList * ) &( pxReadyTasksLists[ pxTCB->uxPriority ] ), &( pxTCB->xGenericListIte
 259:SRC/RTOS/tasks.c **** }
 260:SRC/RTOS/tasks.c **** /*-----------------------------------------------------------*/
 261:SRC/RTOS/tasks.c **** 
 262:SRC/RTOS/tasks.c **** /*
 263:SRC/RTOS/tasks.c ****  * Macro that looks at the list of tasks that are currently delayed to see if
 264:SRC/RTOS/tasks.c ****  * any require waking.
 265:SRC/RTOS/tasks.c ****  *
 266:SRC/RTOS/tasks.c ****  * Tasks are stored in the queue in the order of their wake time - meaning
 267:SRC/RTOS/tasks.c ****  * once one tasks has been found whose timer has not expired we need not look
 268:SRC/RTOS/tasks.c ****  * any further down the list.
 269:SRC/RTOS/tasks.c ****  */
 270:SRC/RTOS/tasks.c **** #define prvCheckDelayedTasks()																						\
 271:SRC/RTOS/tasks.c **** {																													\
 272:SRC/RTOS/tasks.c **** register tskTCB *pxTCB;																								\
 273:SRC/RTOS/tasks.c **** 																													\
 274:SRC/RTOS/tasks.c **** 	while( ( pxTCB = ( tskTCB * ) listGET_OWNER_OF_HEAD_ENTRY( pxDelayedTaskList ) ) != NULL )						\
 275:SRC/RTOS/tasks.c **** 	{																												\
 276:SRC/RTOS/tasks.c **** 		if( xTickCount < listGET_LIST_ITEM_VALUE( &( pxTCB->xGenericListItem ) ) )									\
 277:SRC/RTOS/tasks.c **** 		{																											\
 278:SRC/RTOS/tasks.c **** 			break;																									\
 279:SRC/RTOS/tasks.c **** 		}																											\
 280:SRC/RTOS/tasks.c **** 		vListRemove( &( pxTCB->xGenericListItem ) );																\
 281:SRC/RTOS/tasks.c **** 		/* Is the task waiting on an event also? */																	\
 282:SRC/RTOS/tasks.c **** 		if( pxTCB->xEventListItem.pvContainer )																		\
 283:SRC/RTOS/tasks.c **** 		{																											\
 284:SRC/RTOS/tasks.c **** 			vListRemove( &( pxTCB->xEventListItem ) );																\
 285:SRC/RTOS/tasks.c **** 		}																											\
 286:SRC/RTOS/tasks.c **** 		prvAddTaskToReadyQueue( pxTCB );																			\
 287:SRC/RTOS/tasks.c **** 	}																												\
 288:SRC/RTOS/tasks.c **** }
 289:SRC/RTOS/tasks.c **** /*-----------------------------------------------------------*/
 290:SRC/RTOS/tasks.c **** 
 291:SRC/RTOS/tasks.c **** /*
 292:SRC/RTOS/tasks.c ****  * Several functions take an xTaskHandle parameter that can optionally be NULL,
 293:SRC/RTOS/tasks.c ****  * where NULL is used to indicate that the handle of the currently executing
 294:SRC/RTOS/tasks.c ****  * task should be used in place of the parameter.  This macro simply checks to
 295:SRC/RTOS/tasks.c ****  * see if the parameter is NULL and returns a pointer to the appropriate TCB.
 296:SRC/RTOS/tasks.c ****  */
 297:SRC/RTOS/tasks.c **** #define prvGetTCBFromHandle( pxHandle ) ( ( pxHandle == NULL ) ? ( tskTCB * ) pxCurrentTCB : ( tskT
 298:SRC/RTOS/tasks.c **** 
 299:SRC/RTOS/tasks.c **** 
 300:SRC/RTOS/tasks.c **** /* File private functions. --------------------------------*/
 301:SRC/RTOS/tasks.c **** 
 302:SRC/RTOS/tasks.c **** /*
 303:SRC/RTOS/tasks.c ****  * Utility to ready a TCB for a given task.  Mainly just copies the parameters
 304:SRC/RTOS/tasks.c ****  * into the TCB structure.
 305:SRC/RTOS/tasks.c ****  */
 306:SRC/RTOS/tasks.c **** static void prvInitialiseTCBVariables( tskTCB *pxTCB, const signed char * const pcName, unsigned po
ARM GAS  C:\DOCUME~1\ZAQUAD~1\USTAWI~1\Temp/ccIVGP1b.s 			page 8


 307:SRC/RTOS/tasks.c **** 
 308:SRC/RTOS/tasks.c **** /*
 309:SRC/RTOS/tasks.c ****  * Utility to ready all the lists used by the scheduler.  This is called
 310:SRC/RTOS/tasks.c ****  * automatically upon the creation of the first task.
 311:SRC/RTOS/tasks.c ****  */
 312:SRC/RTOS/tasks.c **** static void prvInitialiseTaskLists( void ) PRIVILEGED_FUNCTION;
 313:SRC/RTOS/tasks.c **** 
 314:SRC/RTOS/tasks.c **** /*
 315:SRC/RTOS/tasks.c ****  * The idle task, which as all tasks is implemented as a never ending loop.
 316:SRC/RTOS/tasks.c ****  * The idle task is automatically created and added to the ready lists upon
 317:SRC/RTOS/tasks.c ****  * creation of the first user task.
 318:SRC/RTOS/tasks.c ****  *
 319:SRC/RTOS/tasks.c ****  * The portTASK_FUNCTION_PROTO() macro is used to allow port/compiler specific
 320:SRC/RTOS/tasks.c ****  * language extensions.  The equivalent prototype for this function is:
 321:SRC/RTOS/tasks.c ****  *
 322:SRC/RTOS/tasks.c ****  * void prvIdleTask( void *pvParameters );
 323:SRC/RTOS/tasks.c ****  *
 324:SRC/RTOS/tasks.c ****  */
 325:SRC/RTOS/tasks.c **** static portTASK_FUNCTION_PROTO( prvIdleTask, pvParameters );
 326:SRC/RTOS/tasks.c **** 
 327:SRC/RTOS/tasks.c **** /*
 328:SRC/RTOS/tasks.c ****  * Utility to free all memory allocated by the scheduler to hold a TCB,
 329:SRC/RTOS/tasks.c ****  * including the stack pointed to by the TCB.
 330:SRC/RTOS/tasks.c ****  *
 331:SRC/RTOS/tasks.c ****  * This does not free memory allocated by the task itself (i.e. memory
 332:SRC/RTOS/tasks.c ****  * allocated by calls to pvPortMalloc from within the tasks application code).
 333:SRC/RTOS/tasks.c ****  */
 334:SRC/RTOS/tasks.c **** #if ( ( INCLUDE_vTaskDelete == 1 ) || ( INCLUDE_vTaskCleanUpResources == 1 ) )
 335:SRC/RTOS/tasks.c **** 
 336:SRC/RTOS/tasks.c **** 	static void prvDeleteTCB( tskTCB *pxTCB ) PRIVILEGED_FUNCTION;
 337:SRC/RTOS/tasks.c **** 
 338:SRC/RTOS/tasks.c **** #endif
 339:SRC/RTOS/tasks.c **** 
 340:SRC/RTOS/tasks.c **** /*
 341:SRC/RTOS/tasks.c ****  * Used only by the idle task.  This checks to see if anything has been placed
 342:SRC/RTOS/tasks.c ****  * in the list of tasks waiting to be deleted.  If so the task is cleaned up
 343:SRC/RTOS/tasks.c ****  * and its TCB deleted.
 344:SRC/RTOS/tasks.c ****  */
 345:SRC/RTOS/tasks.c **** static void prvCheckTasksWaitingTermination( void ) PRIVILEGED_FUNCTION;
 346:SRC/RTOS/tasks.c **** 
 347:SRC/RTOS/tasks.c **** /*
 348:SRC/RTOS/tasks.c ****  * Allocates memory from the heap for a TCB and associated stack.  Checks the
 349:SRC/RTOS/tasks.c ****  * allocation was successful.
 350:SRC/RTOS/tasks.c ****  */
 351:SRC/RTOS/tasks.c **** static tskTCB *prvAllocateTCBAndStack( unsigned short usStackDepth, portSTACK_TYPE *puxStackBuffer 
 352:SRC/RTOS/tasks.c **** 
 353:SRC/RTOS/tasks.c **** /*
 354:SRC/RTOS/tasks.c ****  * Called from vTaskList.  vListTasks details all the tasks currently under
 355:SRC/RTOS/tasks.c ****  * control of the scheduler.  The tasks may be in one of a number of lists.
 356:SRC/RTOS/tasks.c ****  * prvListTaskWithinSingleList accepts a list and details the tasks from
 357:SRC/RTOS/tasks.c ****  * within just that list.
 358:SRC/RTOS/tasks.c ****  *
 359:SRC/RTOS/tasks.c ****  * THIS FUNCTION IS INTENDED FOR DEBUGGING ONLY, AND SHOULD NOT BE CALLED FROM
 360:SRC/RTOS/tasks.c ****  * NORMAL APPLICATION CODE.
 361:SRC/RTOS/tasks.c ****  */
 362:SRC/RTOS/tasks.c **** #if ( configUSE_TRACE_FACILITY == 1 )
 363:SRC/RTOS/tasks.c **** 
ARM GAS  C:\DOCUME~1\ZAQUAD~1\USTAWI~1\Temp/ccIVGP1b.s 			page 9


 364:SRC/RTOS/tasks.c **** 	static void prvListTaskWithinSingleList( const signed char *pcWriteBuffer, xList *pxList, signed c
 365:SRC/RTOS/tasks.c **** 
 366:SRC/RTOS/tasks.c **** #endif
 367:SRC/RTOS/tasks.c **** 
 368:SRC/RTOS/tasks.c **** /*
 369:SRC/RTOS/tasks.c ****  * When a task is created, the stack of the task is filled with a known value.
 370:SRC/RTOS/tasks.c ****  * This function determines the 'high water mark' of the task stack by
 371:SRC/RTOS/tasks.c ****  * determining how much of the stack remains at the original preset value.
 372:SRC/RTOS/tasks.c ****  */
 373:SRC/RTOS/tasks.c **** #if ( ( configUSE_TRACE_FACILITY == 1 ) || ( INCLUDE_uxTaskGetStackHighWaterMark == 1 ) )
 374:SRC/RTOS/tasks.c **** 
 375:SRC/RTOS/tasks.c **** 	static unsigned short usTaskCheckFreeStackSpace( const unsigned char * pucStackByte ) PRIVILEGED_F
 376:SRC/RTOS/tasks.c **** 
 377:SRC/RTOS/tasks.c **** #endif
 378:SRC/RTOS/tasks.c **** 
 379:SRC/RTOS/tasks.c **** 
 380:SRC/RTOS/tasks.c **** /*lint +e956 */
 381:SRC/RTOS/tasks.c **** 
 382:SRC/RTOS/tasks.c **** 
 383:SRC/RTOS/tasks.c **** 
 384:SRC/RTOS/tasks.c **** /*-----------------------------------------------------------
 385:SRC/RTOS/tasks.c ****  * TASK CREATION API documented in task.h
 386:SRC/RTOS/tasks.c ****  *----------------------------------------------------------*/
 387:SRC/RTOS/tasks.c **** 
 388:SRC/RTOS/tasks.c **** signed portBASE_TYPE xTaskGenericCreate( pdTASK_CODE pxTaskCode, const signed char * const pcName, 
 389:SRC/RTOS/tasks.c **** {
  90              	 frame_needed = 0, uses_anonymous_args = 0
  91              		str	lr, [sp, #-4]!	@,
  92              	.LCFI0:
  93              		sub	sp, sp, #32	@,,
  94 0000 04E02DE5 	.LCFI1:
  95              		str	r0, [sp, #16]	@ pxTaskCode, pxTaskCode
  96 0004 20D04DE2 		str	r1, [sp, #12]	@ pcName, pcName
  97              		str	r3, [sp, #4]	@ pvParameters, pvParameters
  98 0008 10008DE5 		strh	r2, [sp, #8]	@ movhi	@ tmp168, usStackDepth
  99 000c 0C108DE5 		.loc 1 395 0
 100 0010 04308DE5 		ldrh	r3, [sp, #8]	@ D.3508, usStackDepth
 101 0014 B820CDE1 		mov	r0, r3	@, D.3508
 390:SRC/RTOS/tasks.c **** signed portBASE_TYPE xReturn;
 391:SRC/RTOS/tasks.c **** tskTCB * pxNewTCB;
 392:SRC/RTOS/tasks.c **** 
 393:SRC/RTOS/tasks.c **** 	/* Allocate the memory required by the TCB and stack for the new task,
 394:SRC/RTOS/tasks.c **** 	checking that the allocation was successful. */
 395:SRC/RTOS/tasks.c **** 	pxNewTCB = prvAllocateTCBAndStack( usStackDepth, puxStackBuffer );
 102              	, #44]	@, puxStackBuffer
 103 0018 B830DDE1 		bl	prvAllocateTCBAndStack	@
 104 001c 0300A0E1 		mov	r3, r0	@ pxNewTCB.0,
 105 0020 2C109DE5 		str	r3, [sp, #24]	@ pxNewTCB.0, pxNewTCB
 106 0024 700600EB 		.loc 1 397 0
 107 0028 0030A0E1 		ldr	r3, [sp, #24]	@ tmp169, pxNewTCB
 108 002c 18308DE5 		cmp	r3, #0	@ tmp169,
 396:SRC/RTOS/tasks.c **** 
 397:SRC/RTOS/tasks.c **** 	if( pxNewTCB != NULL )
 109              	2	@,
 110 0030 18309DE5 	.LBB2:
 111 0034 000053E3 		.loc 1 421 0
 112 0038 6200000A 		ldr	r3, [sp, #24]	@ tmp170, pxNewTCB
ARM GAS  C:\DOCUME~1\ZAQUAD~1\USTAWI~1\Temp/ccIVGP1b.s 			page 10


 113              		ldr	r2, [r3, #48]	@ D.3510, <variable>.pxStack
 398:SRC/RTOS/tasks.c **** 	{
 399:SRC/RTOS/tasks.c **** 		portSTACK_TYPE *pxTopOfStack;
 400:SRC/RTOS/tasks.c **** 
 401:SRC/RTOS/tasks.c **** 		#if( portUSING_MPU_WRAPPERS == 1 )
 402:SRC/RTOS/tasks.c **** 			/* Should the task be created in privileged mode? */
 403:SRC/RTOS/tasks.c **** 			portBASE_TYPE xRunPrivileged;
 404:SRC/RTOS/tasks.c **** 			if( ( uxPriority & portPRIVILEGE_BIT ) != 0x00 )
 405:SRC/RTOS/tasks.c **** 			{
 406:SRC/RTOS/tasks.c **** 				xRunPrivileged = pdTRUE;
 407:SRC/RTOS/tasks.c **** 			}
 408:SRC/RTOS/tasks.c **** 			else
 409:SRC/RTOS/tasks.c **** 			{
 410:SRC/RTOS/tasks.c **** 				xRunPrivileged = pdFALSE;
 411:SRC/RTOS/tasks.c **** 			}
 412:SRC/RTOS/tasks.c **** 			uxPriority &= ~portPRIVILEGE_BIT;
 413:SRC/RTOS/tasks.c **** 		#endif /* portUSING_MPU_WRAPPERS == 1 */
 414:SRC/RTOS/tasks.c **** 
 415:SRC/RTOS/tasks.c **** 		/* Calculate the top of stack address.  This depends on whether the
 416:SRC/RTOS/tasks.c **** 		stack grows from high memory to low (as per the 80x86) or visa versa.
 417:SRC/RTOS/tasks.c **** 		portSTACK_GROWTH is used to make the result positive or negative as
 418:SRC/RTOS/tasks.c **** 		required by the port. */
 419:SRC/RTOS/tasks.c **** 		#if( portSTACK_GROWTH < 0 )
 420:SRC/RTOS/tasks.c **** 		{
 421:SRC/RTOS/tasks.c **** 			pxTopOfStack = pxNewTCB->pxStack + ( usStackDepth - 1 );
 114              		r3, [sp, #8]	@ D.3511, usStackDepth
 115 003c 18309DE5 		rsb	r3, r3, #1	@ D.3512, D.3511,
 116 0040 302093E5 		mov	r3, r3, asl #2	@ tmp172, tmp171,
 117 0044 B830DDE1 		rsb	r3, r3, #0	@ D.3513, tmp172
 118 0048 013063E2 		add	r3, r2, r3	@ tmp173, D.3510, D.3513
 119 004c 0331A0E1 		str	r3, [sp, #28]	@ tmp173, pxTopOfStack
 120 0050 003063E2 		.loc 1 422 0
 121 0054 033082E0 		ldr	r3, [sp, #28]	@ pxTopOfStack.1, pxTopOfStack
 122 0058 1C308DE5 		bic	r3, r3, #7	@ D.3515, pxTopOfStack.1,
 422:SRC/RTOS/tasks.c **** 			pxTopOfStack = ( portSTACK_TYPE * ) ( ( ( unsigned long ) pxTopOfStack ) & ( ( unsigned long ) ~
 123              	[sp, #28]	@ D.3515, pxTopOfStack
 124 005c 1C309DE5 		.loc 1 436 0
 125 0060 0730C3E3 		ldrh	r3, [sp, #8]	@ D.3516, usStackDepth
 126 0064 1C308DE5 		str	r3, [sp, #0]	@ D.3516,
 423:SRC/RTOS/tasks.c **** 		}
 424:SRC/RTOS/tasks.c **** 		#else
 425:SRC/RTOS/tasks.c **** 		{
 426:SRC/RTOS/tasks.c **** 			pxTopOfStack = pxNewTCB->pxStack;
 427:SRC/RTOS/tasks.c **** 
 428:SRC/RTOS/tasks.c **** 			/* If we want to use stack checking on architectures that use
 429:SRC/RTOS/tasks.c **** 			a positive stack growth direction then we also need to store the
 430:SRC/RTOS/tasks.c **** 			other extreme of the stack space. */
 431:SRC/RTOS/tasks.c **** 			pxNewTCB->pxEndOfStack = pxNewTCB->pxStack + ( usStackDepth - 1 );
 432:SRC/RTOS/tasks.c **** 		}
 433:SRC/RTOS/tasks.c **** 		#endif
 434:SRC/RTOS/tasks.c **** 
 435:SRC/RTOS/tasks.c **** 		/* Setup the newly allocated TCB with the initial state of the task. */
 436:SRC/RTOS/tasks.c **** 		prvInitialiseTCBVariables( pxNewTCB, pcName, uxPriority, xRegions, usStackDepth );
 127              		r0, [sp, #24]	@, pxNewTCB
 128 0068 B830DDE1 		ldr	r1, [sp, #12]	@, pcName
 129 006c 00308DE5 		ldr	r2, [sp, #36]	@, uxPriority
 130 0070 18009DE5 		ldr	r3, [sp, #48]	@, xRegions
ARM GAS  C:\DOCUME~1\ZAQUAD~1\USTAWI~1\Temp/ccIVGP1b.s 			page 11


 131 0074 0C109DE5 		bl	prvInitialiseTCBVariables	@
 132 0078 24209DE5 		.loc 1 448 0
 133 007c 30309DE5 		ldr	r0, [sp, #28]	@, pxTopOfStack
 134 0080 C20500EB 		ldr	r1, [sp, #16]	@, pxTaskCode
 437:SRC/RTOS/tasks.c **** 
 438:SRC/RTOS/tasks.c **** 		/* Initialize the TCB stack to look as if the task was already running,
 439:SRC/RTOS/tasks.c **** 		but had been interrupted by the scheduler.  The return address is set
 440:SRC/RTOS/tasks.c **** 		to the start of the task function. Once the stack has been initialised
 441:SRC/RTOS/tasks.c **** 		the	top of stack variable is updated. */
 442:SRC/RTOS/tasks.c **** 		#if( portUSING_MPU_WRAPPERS == 1 )
 443:SRC/RTOS/tasks.c **** 		{
 444:SRC/RTOS/tasks.c **** 			pxNewTCB->pxTopOfStack = pxPortInitialiseStack( pxTopOfStack, pxTaskCode, pvParameters, xRunPriv
 445:SRC/RTOS/tasks.c **** 		}
 446:SRC/RTOS/tasks.c **** 		#else
 447:SRC/RTOS/tasks.c **** 		{
 448:SRC/RTOS/tasks.c **** 			pxNewTCB->pxTopOfStack = pxPortInitialiseStack( pxTopOfStack, pxTaskCode, pvParameters );
 135              	 [sp, #4]	@, pvParameters
 136 0084 1C009DE5 		bl	pxPortInitialiseStack	@
 137 0088 10109DE5 		mov	r3, r0	@ D.3517,
 138 008c 04209DE5 		mov	r2, r3	@ D.3518, D.3517
 139 0090 FEFFFFEB 		ldr	r3, [sp, #24]	@ tmp174, pxNewTCB
 140 0094 0030A0E1 		str	r2, [r3, #0]	@ D.3518, <variable>.pxTopOfStack
 141 0098 0320A0E1 		.loc 1 454 0
 142 009c 18309DE5 		bl	vPortEnterCritical	@
 143 00a0 002083E5 		.loc 1 456 0
 449:SRC/RTOS/tasks.c **** 		}
 450:SRC/RTOS/tasks.c **** 		#endif
 451:SRC/RTOS/tasks.c **** 
 452:SRC/RTOS/tasks.c **** 		/* We are going to manipulate the task queues to add this task to a
 453:SRC/RTOS/tasks.c **** 		ready list, so must make sure no interrupts occur. */
 454:SRC/RTOS/tasks.c **** 		portENTER_CRITICAL();
 144              	.L11	@ tmp175,
 145 00a4 FEFFFFEB 		ldr	r3, [r3, #0]	@ uxCurrentNumberOfTasks.2, uxCurrentNumberOfTasks
 455:SRC/RTOS/tasks.c **** 		{
 456:SRC/RTOS/tasks.c **** 			uxCurrentNumberOfTasks++;
 146              	dd	r2, r3, #1	@ uxCurrentNumberOfTasks.3, uxCurrentNumberOfTasks.2,
 147 00a8 84319FE5 		ldr	r3, .L11	@ tmp176,
 148 00ac 003093E5 		str	r2, [r3, #0]	@ uxCurrentNumberOfTasks.3, uxCurrentNumberOfTasks
 149 00b0 012083E2 		.loc 1 457 0
 150 00b4 78319FE5 		ldr	r3, .L11	@ tmp177,
 151 00b8 002083E5 		ldr	r3, [r3, #0]	@ uxCurrentNumberOfTasks.4, uxCurrentNumberOfTasks
 457:SRC/RTOS/tasks.c **** 			if( uxCurrentNumberOfTasks == ( unsigned portBASE_TYPE ) 1 )
 152              	3, #1	@ uxCurrentNumberOfTasks.4,
 153 00bc 70319FE5 		bne	.L3	@,
 154 00c0 003093E5 		.loc 1 460 0
 155 00c4 010053E3 		ldr	r2, .L11+4	@ tmp178,
 156 00c8 0400001A 		ldr	r3, [sp, #24]	@ tmp179, pxNewTCB
 458:SRC/RTOS/tasks.c **** 			{
 459:SRC/RTOS/tasks.c **** 				/* As this is the first task it must also be the current task. */
 460:SRC/RTOS/tasks.c **** 				pxCurrentTCB =  pxNewTCB;
 157              	r3, [r2, #0]	@ tmp179, pxCurrentTCB
 158 00cc 64219FE5 		.loc 1 465 0
 159 00d0 18309DE5 		bl	prvInitialiseTaskLists	@
 160 00d4 003082E5 		b	.L4	@
 461:SRC/RTOS/tasks.c **** 
 462:SRC/RTOS/tasks.c **** 				/* This is the first task to be created so do the preliminary
 463:SRC/RTOS/tasks.c **** 				initialisation required.  We will not recover if this call
ARM GAS  C:\DOCUME~1\ZAQUAD~1\USTAWI~1\Temp/ccIVGP1b.s 			page 12


 464:SRC/RTOS/tasks.c **** 				fails, but we will report the failure. */
 465:SRC/RTOS/tasks.c **** 				prvInitialiseTaskLists();
 161              	
 162 00d8 DE0500EB 		.loc 1 472 0
 163 00dc 0C0000EA 		ldr	r3, .L11+8	@ tmp180,
 164              		ldr	r3, [r3, #0]	@ xSchedulerRunning.5, xSchedulerRunning
 466:SRC/RTOS/tasks.c **** 			}
 467:SRC/RTOS/tasks.c **** 			else
 468:SRC/RTOS/tasks.c **** 			{
 469:SRC/RTOS/tasks.c **** 				/* If the scheduler is not already running, make this task the
 470:SRC/RTOS/tasks.c **** 				current task if it is the highest priority task to be created
 471:SRC/RTOS/tasks.c **** 				so far. */
 472:SRC/RTOS/tasks.c **** 				if( xSchedulerRunning == pdFALSE )
 165              	p	r3, #0	@ xSchedulerRunning.5,
 166 00e0 54319FE5 		bne	.L4	@,
 167 00e4 003093E5 		.loc 1 474 0
 168 00e8 000053E3 		ldr	r3, .L11+4	@ tmp181,
 169 00ec 0800001A 		ldr	r3, [r3, #0]	@ pxCurrentTCB.6, pxCurrentTCB
 473:SRC/RTOS/tasks.c **** 				{
 474:SRC/RTOS/tasks.c **** 					if( pxCurrentTCB->uxPriority <= uxPriority )
 170              	r2, [r3, #44]	@ D.3524, <variable>.uxPriority
 171 00f0 40319FE5 		ldr	r3, [sp, #36]	@ tmp182, uxPriority
 172 00f4 003093E5 		cmp	r2, r3	@ D.3524, tmp182
 173 00f8 2C2093E5 		bhi	.L4	@,
 174 00fc 24309DE5 		.loc 1 476 0
 175 0100 030052E1 		ldr	r2, .L11+4	@ tmp183,
 176 0104 0200008A 		ldr	r3, [sp, #24]	@ tmp184, pxNewTCB
 475:SRC/RTOS/tasks.c **** 					{
 476:SRC/RTOS/tasks.c **** 						pxCurrentTCB = pxNewTCB;
 177              	, [r2, #0]	@ tmp184, pxCurrentTCB
 178 0108 28219FE5 	.L4:
 179 010c 18309DE5 		.loc 1 483 0
 180 0110 003082E5 		ldr	r3, [sp, #24]	@ tmp185, pxNewTCB
 181              		ldr	r2, [r3, #44]	@ D.3525, <variable>.uxPriority
 477:SRC/RTOS/tasks.c **** 					}
 478:SRC/RTOS/tasks.c **** 				}
 479:SRC/RTOS/tasks.c **** 			}
 480:SRC/RTOS/tasks.c **** 
 481:SRC/RTOS/tasks.c **** 			/* Remember the top priority to make context switching faster.  Use
 482:SRC/RTOS/tasks.c **** 			the priority in pxNewTCB as this has been capped to a valid value. */
 483:SRC/RTOS/tasks.c **** 			if( pxNewTCB->uxPriority > uxTopUsedPriority )
 182              	r3, .L11+12	@ tmp186,
 183 0114 18309DE5 		ldr	r3, [r3, #0]	@ uxTopUsedPriority.7, uxTopUsedPriority
 184 0118 2C2093E5 		cmp	r2, r3	@ D.3525, uxTopUsedPriority.7
 185 011c 1C319FE5 		bls	.L5	@,
 186 0120 003093E5 		.loc 1 485 0
 187 0124 030052E1 		ldr	r3, [sp, #24]	@ tmp187, pxNewTCB
 188 0128 0300009A 		ldr	r2, [r3, #44]	@ uxTopUsedPriority.8, <variable>.uxPriority
 484:SRC/RTOS/tasks.c **** 			{
 485:SRC/RTOS/tasks.c **** 				uxTopUsedPriority = pxNewTCB->uxPriority;
 189              	, .L11+12	@ tmp188,
 190 012c 18309DE5 		str	r2, [r3, #0]	@ uxTopUsedPriority.8, uxTopUsedPriority
 191 0130 2C2093E5 	.L5:
 192 0134 04319FE5 		.loc 1 491 0
 193 0138 002083E5 		ldr	r3, .L11+16	@ tmp189,
 194              		ldr	r2, [r3, #0]	@ uxTaskNumber.9, uxTaskNumber
 486:SRC/RTOS/tasks.c **** 			}
ARM GAS  C:\DOCUME~1\ZAQUAD~1\USTAWI~1\Temp/ccIVGP1b.s 			page 13


 487:SRC/RTOS/tasks.c **** 
 488:SRC/RTOS/tasks.c **** 			#if ( configUSE_TRACE_FACILITY == 1 )
 489:SRC/RTOS/tasks.c **** 			{
 490:SRC/RTOS/tasks.c **** 				/* Add a counter into the TCB for tracing only. */
 491:SRC/RTOS/tasks.c **** 				pxNewTCB->uxTCBNumber = uxTaskNumber;
 195              	3, [sp, #24]	@ tmp190, pxNewTCB
 196 013c 00319FE5 		str	r2, [r3, #64]	@ uxTaskNumber.9, <variable>.uxTCBNumber
 197 0140 002093E5 		.loc 1 494 0
 198 0144 18309DE5 		ldr	r3, .L11+16	@ tmp191,
 199 0148 402083E5 		ldr	r3, [r3, #0]	@ uxTaskNumber.10, uxTaskNumber
 492:SRC/RTOS/tasks.c **** 			}
 493:SRC/RTOS/tasks.c **** 			#endif
 494:SRC/RTOS/tasks.c **** 			uxTaskNumber++;
 200              	r2, r3, #1	@ uxTaskNumber.11, uxTaskNumber.10,
 201 014c F0309FE5 		ldr	r3, .L11+16	@ tmp192,
 202 0150 003093E5 		str	r2, [r3, #0]	@ uxTaskNumber.11, uxTaskNumber
 203 0154 012083E2 		.loc 1 496 0
 204 0158 E4309FE5 		ldr	r3, [sp, #24]	@ tmp193, pxNewTCB
 205 015c 002083E5 		ldr	r2, [r3, #44]	@ D.3531, <variable>.uxPriority
 495:SRC/RTOS/tasks.c **** 
 496:SRC/RTOS/tasks.c **** 			prvAddTaskToReadyQueue( pxNewTCB );
 206              	3, .L11+20	@ tmp194,
 207 0160 18309DE5 		ldr	r3, [r3, #0]	@ uxTopReadyPriority.12, uxTopReadyPriority
 208 0164 2C2093E5 		cmp	r2, r3	@ D.3531, uxTopReadyPriority.12
 209 0168 D8309FE5 		bls	.L6	@,
 210 016c 003093E5 		ldr	r3, [sp, #24]	@ tmp195, pxNewTCB
 211 0170 030052E1 		ldr	r2, [r3, #44]	@ uxTopReadyPriority.13, <variable>.uxPriority
 212 0174 0300009A 		ldr	r3, .L11+20	@ tmp196,
 213 0178 18309DE5 		str	r2, [r3, #0]	@ uxTopReadyPriority.13, uxTopReadyPriority
 214 017c 2C2093E5 	.L6:
 215 0180 C0309FE5 		ldr	r3, [sp, #24]	@ tmp197, pxNewTCB
 216 0184 002083E5 		ldr	r3, [r3, #44]	@ D.3534, <variable>.uxPriority
 217              		mov	r2, r3, asl #2	@ tmp199, tmp198,
 218 0188 18309DE5 		mov	r3, r2, asl #2	@ tmp200, tmp199,
 219 018c 2C3093E5 		add	r2, r2, r3	@ D.3535, tmp199, tmp200
 220 0190 0321A0E1 		ldr	r3, .L11+24	@ tmp201,
 221 0194 0231A0E1 		add	r2, r2, r3	@ D.3536, D.3535, tmp201
 222 0198 032082E0 		ldr	r3, [sp, #24]	@ tmp202, pxNewTCB
 223 019c A8309FE5 		add	r3, r3, #4	@ D.3537, tmp202,
 224 01a0 032082E0 		mov	r0, r2	@, D.3536
 225 01a4 18309DE5 		mov	r1, r3	@, D.3537
 226 01a8 043083E2 		bl	vListInsertEnd	@
 227 01ac 0200A0E1 		.loc 1 498 0
 228 01b0 0310A0E1 		mov	r3, #1	@ tmp203,
 229 01b4 FEFFFFEB 		str	r3, [sp, #20]	@ tmp203, xReturn
 497:SRC/RTOS/tasks.c **** 
 498:SRC/RTOS/tasks.c **** 			xReturn = pdPASS;
 230              	xitCritical	@
 231 01b8 0130A0E3 		b	.L7	@
 232 01bc 14308DE5 	.L2:
 499:SRC/RTOS/tasks.c **** 			traceTASK_CREATE( pxNewTCB );
 500:SRC/RTOS/tasks.c **** 		}
 501:SRC/RTOS/tasks.c **** 		portEXIT_CRITICAL();
 233              	E2:
 234 01c0 FEFFFFEB 		.loc 1 505 0
 235 01c4 010000EA 		mvn	r3, #0	@ tmp204,
 236              		str	r3, [sp, #20]	@ tmp204, xReturn
ARM GAS  C:\DOCUME~1\ZAQUAD~1\USTAWI~1\Temp/ccIVGP1b.s 			page 14


 237              	.L7:
 502:SRC/RTOS/tasks.c **** 	}
 503:SRC/RTOS/tasks.c **** 	else
 504:SRC/RTOS/tasks.c **** 	{
 505:SRC/RTOS/tasks.c **** 		xReturn = errCOULD_NOT_ALLOCATE_REQUIRED_MEMORY;
 238              	 1 509 0
 239 01c8 0030E0E3 		ldr	r3, [sp, #20]	@ tmp205, xReturn
 240 01cc 14308DE5 		cmp	r3, #1	@ tmp205,
 241              		bne	.L8	@,
 506:SRC/RTOS/tasks.c **** 		traceTASK_CREATE_FAILED( pxNewTCB );
 507:SRC/RTOS/tasks.c **** 	}
 508:SRC/RTOS/tasks.c **** 
 509:SRC/RTOS/tasks.c **** 	if( xReturn == pdPASS )
 242              	c 1 511 0
 243 01d0 14309DE5 		ldr	r3, [sp, #40]	@ tmp206, pxCreatedTask
 244 01d4 010053E3 		cmp	r3, #0	@ tmp206,
 245 01d8 1000001A 		beq	.L9	@,
 510:SRC/RTOS/tasks.c **** 	{
 511:SRC/RTOS/tasks.c **** 		if( ( void * ) pxCreatedTask != NULL )
 246              	c 1 516 0
 247 01dc 28309DE5 		ldr	r2, [sp, #40]	@ tmp207, pxCreatedTask
 248 01e0 000053E3 		ldr	r3, [sp, #24]	@ tmp208, pxNewTCB
 249 01e4 0200000A 		str	r3, [r2, #0]	@ tmp208,
 512:SRC/RTOS/tasks.c **** 		{
 513:SRC/RTOS/tasks.c **** 			/* Pass the TCB out - in an anonymous way.  The calling function/
 514:SRC/RTOS/tasks.c **** 			task can use this as a handle to delete the task later if
 515:SRC/RTOS/tasks.c **** 			required.*/
 516:SRC/RTOS/tasks.c **** 			*pxCreatedTask = ( xTaskHandle ) pxNewTCB;
 250              	
 251 01e8 28209DE5 		.loc 1 519 0
 252 01ec 18309DE5 		ldr	r3, .L11+8	@ tmp209,
 253 01f0 003082E5 		ldr	r3, [r3, #0]	@ xSchedulerRunning.14, xSchedulerRunning
 254              		cmp	r3, #0	@ xSchedulerRunning.14,
 517:SRC/RTOS/tasks.c **** 		}
 518:SRC/RTOS/tasks.c **** 
 519:SRC/RTOS/tasks.c **** 		if( xSchedulerRunning != pdFALSE )
 255              		.L8	@,
 256 01f4 40309FE5 		.loc 1 523 0
 257 01f8 003093E5 		ldr	r3, .L11+4	@ tmp210,
 258 01fc 000053E3 		ldr	r3, [r3, #0]	@ pxCurrentTCB.15, pxCurrentTCB
 259 0200 0600000A 		ldr	r2, [r3, #44]	@ D.3540, <variable>.uxPriority
 520:SRC/RTOS/tasks.c **** 		{
 521:SRC/RTOS/tasks.c **** 			/* If the created task is of a higher priority than the current task
 522:SRC/RTOS/tasks.c **** 			then it should run now. */
 523:SRC/RTOS/tasks.c **** 			if( pxCurrentTCB->uxPriority < uxPriority )
 260              	r3, [sp, #36]	@ tmp211, uxPriority
 261 0204 2C309FE5 		cmp	r2, r3	@ D.3540, tmp211
 262 0208 003093E5 		bcs	.L8	@,
 263 020c 2C2093E5 		.loc 1 525 0
 264 0210 24309DE5 	@ 525 "SRC/RTOS/tasks.c" 1
 265 0214 030052E1 		SWI 0
 266 0218 0000002A 	@ 0 "" 2
 524:SRC/RTOS/tasks.c **** 			{
 525:SRC/RTOS/tasks.c **** 				portYIELD_WITHIN_API();
 267              	loc 1 530 0
 268              		ldr	r3, [sp, #20]	@ D.3541, xReturn
 269 021c 000000EF 		.loc 1 531 0
ARM GAS  C:\DOCUME~1\ZAQUAD~1\USTAWI~1\Temp/ccIVGP1b.s 			page 15


 270              		mov	r0, r3	@, <result>
 271              		add	sp, sp, #32	@,,
 526:SRC/RTOS/tasks.c **** 			}
 527:SRC/RTOS/tasks.c **** 		}
 528:SRC/RTOS/tasks.c **** 	}
 529:SRC/RTOS/tasks.c **** 
 530:SRC/RTOS/tasks.c **** 	return xReturn;
 272              	lr, [sp], #4
 273 0220 14309DE5 		bx	lr
 531:SRC/RTOS/tasks.c **** }
 274              	12:
 275 0224 0300A0E1 		.align	2
 276 0228 20D08DE2 	.L11:
 277 022c 04E09DE4 		.word	uxCurrentNumberOfTasks
 278 0230 1EFF2FE1 		.word	pxCurrentTCB
 279              		.word	xSchedulerRunning
 280              		.word	uxTopUsedPriority
 281              		.word	uxTaskNumber
 282 0234 08000000 		.word	uxTopReadyPriority
 283 0238 00000000 		.word	pxReadyTasksLists
 284 023c 18000000 	.LFE2:
 285 0240 10000000 		.size	xTaskGenericCreate, .-xTaskGenericCreate
 286 0244 2C000000 		.align	2
 287 0248 14000000 		.global	vTaskDelete
 288 024c 34000000 		.type	vTaskDelete, %function
 289              	vTaskDelete:
 290              	.LFB3:
 291              		.loc 1 537 0
 292              		@ Function supports interworking.
 293              		@ args = 0, pretend = 0, frame = 12
 294              		@ frame_needed = 0, uses_anonymous_args = 0
 295              		str	lr, [sp, #-4]!	@,
 532:SRC/RTOS/tasks.c **** /*-----------------------------------------------------------*/
 533:SRC/RTOS/tasks.c **** 
 534:SRC/RTOS/tasks.c **** #if ( INCLUDE_vTaskDelete == 1 )
 535:SRC/RTOS/tasks.c **** 
 536:SRC/RTOS/tasks.c **** 	void vTaskDelete( xTaskHandle pxTaskToDelete )
 537:SRC/RTOS/tasks.c **** 	{
 296              	12	@,,
 297              	.LCFI3:
 298              		str	r0, [sp, #4]	@ pxTaskToDelete, pxTaskToDelete
 299              		.loc 1 540 0
 300 0250 04E02DE5 		bl	vPortEnterCritical	@
 301              		.loc 1 544 0
 302 0254 0CD04DE2 		ldr	r3, .L20	@ tmp144,
 303              		ldr	r2, [r3, #0]	@ pxCurrentTCB.16, pxCurrentTCB
 304 0258 04008DE5 		ldr	r3, [sp, #4]	@ tmp145, pxTaskToDelete
 538:SRC/RTOS/tasks.c **** 	tskTCB *pxTCB;
 539:SRC/RTOS/tasks.c **** 
 540:SRC/RTOS/tasks.c **** 		portENTER_CRITICAL();
 305              	r2	@ tmp145, pxCurrentTCB.16
 306 025c FEFFFFEB 		bne	.L14	@,
 541:SRC/RTOS/tasks.c **** 		{
 542:SRC/RTOS/tasks.c **** 			/* Ensure a yield is performed if the current task is being
 543:SRC/RTOS/tasks.c **** 			deleted. */
 544:SRC/RTOS/tasks.c **** 			if( pxTaskToDelete == pxCurrentTCB )
 307              	loc 1 546 0
ARM GAS  C:\DOCUME~1\ZAQUAD~1\USTAWI~1\Temp/ccIVGP1b.s 			page 16


 308 0260 DC309FE5 		mov	r3, #0	@ tmp146,
 309 0264 002093E5 		str	r3, [sp, #4]	@ tmp146, pxTaskToDelete
 310 0268 04309DE5 	.L14:
 311 026c 020053E1 		.loc 1 550 0
 312 0270 0100001A 		ldr	r3, [sp, #4]	@ tmp147, pxTaskToDelete
 545:SRC/RTOS/tasks.c **** 			{
 546:SRC/RTOS/tasks.c **** 				pxTaskToDelete = NULL;
 313              	3, #0	@ tmp147,
 314 0274 0030A0E3 		bne	.L15	@,
 315 0278 04308DE5 		ldr	r3, .L20	@ tmp148,
 316              		ldr	r3, [r3, #0]	@, pxCurrentTCB
 547:SRC/RTOS/tasks.c **** 			}
 548:SRC/RTOS/tasks.c **** 
 549:SRC/RTOS/tasks.c **** 			/* If null is passed in here then we are deleting ourselves. */
 550:SRC/RTOS/tasks.c **** 			pxTCB = prvGetTCBFromHandle( pxTaskToDelete );
 317              		r3, [sp, #0]	@, iftmp.17
 318 027c 04309DE5 		b	.L16	@
 319 0280 000053E3 	.L15:
 320 0284 0300001A 		ldr	r3, [sp, #4]	@, pxTaskToDelete
 321 0288 B4309FE5 		str	r3, [sp, #0]	@, iftmp.17
 322 028c 003093E5 	.L16:
 323 0290 00308DE5 		ldr	r3, [sp, #0]	@, iftmp.17
 324 0294 010000EA 		str	r3, [sp, #8]	@, pxTCB
 325              		.loc 1 556 0
 326 0298 04309DE5 		ldr	r3, [sp, #8]	@ tmp149, pxTCB
 327 029c 00308DE5 		add	r3, r3, #4	@ D.3571, tmp149,
 328              		mov	r0, r3	@, D.3571
 329 02a0 00309DE5 		bl	vListRemove	@
 330 02a4 08308DE5 		.loc 1 559 0
 551:SRC/RTOS/tasks.c **** 
 552:SRC/RTOS/tasks.c **** 			/* Remove task from the ready list and place in the	termination list.
 553:SRC/RTOS/tasks.c **** 			This will stop the task from be scheduled.  The idle task will check
 554:SRC/RTOS/tasks.c **** 			the termination list and free up any memory allocated by the
 555:SRC/RTOS/tasks.c **** 			scheduler for the TCB and stack. */
 556:SRC/RTOS/tasks.c **** 			vListRemove( &( pxTCB->xGenericListItem ) );
 331              	#8]	@ tmp150, pxTCB
 332 02a8 08309DE5 		ldr	r3, [r3, #40]	@ D.3572, <variable>.xEventListItem.pvContainer
 333 02ac 043083E2 		cmp	r3, #0	@ D.3572,
 334 02b0 0300A0E1 		beq	.L17	@,
 335 02b4 FEFFFFEB 		.loc 1 561 0
 557:SRC/RTOS/tasks.c **** 
 558:SRC/RTOS/tasks.c **** 			/* Is the task waiting on an event also? */
 559:SRC/RTOS/tasks.c **** 			if( pxTCB->xEventListItem.pvContainer )
 336              	r3, [sp, #8]	@ tmp151, pxTCB
 337 02b8 08309DE5 		add	r3, r3, #24	@ D.3573, tmp151,
 338 02bc 283093E5 		mov	r0, r3	@, D.3573
 339 02c0 000053E3 		bl	vListRemove	@
 340 02c4 0300000A 	.L17:
 560:SRC/RTOS/tasks.c **** 			{
 561:SRC/RTOS/tasks.c **** 				vListRemove( &( pxTCB->xEventListItem ) );
 341              	 1 564 0
 342 02c8 08309DE5 		ldr	r3, [sp, #8]	@ tmp152, pxTCB
 343 02cc 183083E2 		add	r3, r3, #4	@ D.3574, tmp152,
 344 02d0 0300A0E1 		ldr	r0, .L20+4	@,
 345 02d4 FEFFFFEB 		mov	r1, r3	@, D.3574
 346              		bl	vListInsertEnd	@
 562:SRC/RTOS/tasks.c **** 			}
ARM GAS  C:\DOCUME~1\ZAQUAD~1\USTAWI~1\Temp/ccIVGP1b.s 			page 17


 563:SRC/RTOS/tasks.c **** 
 564:SRC/RTOS/tasks.c **** 			vListInsertEnd( ( xList * ) &xTasksWaitingTermination, &( pxTCB->xGenericListItem ) );
 347              	1 569 0
 348 02d8 08309DE5 		ldr	r3, .L20+8	@ tmp153,
 349 02dc 043083E2 		ldr	r3, [r3, #0]	@ uxTasksDeleted.18, uxTasksDeleted
 350 02e0 60009FE5 		add	r2, r3, #1	@ uxTasksDeleted.19, uxTasksDeleted.18,
 351 02e4 0310A0E1 		ldr	r3, .L20+8	@ tmp154,
 352 02e8 FEFFFFEB 		str	r2, [r3, #0]	@ uxTasksDeleted.19, uxTasksDeleted
 565:SRC/RTOS/tasks.c **** 
 566:SRC/RTOS/tasks.c **** 			/* Increment the ucTasksDeleted variable so the idle task knows
 567:SRC/RTOS/tasks.c **** 			there is a task that has been deleted and that it should therefore
 568:SRC/RTOS/tasks.c **** 			check the xTasksWaitingTermination list. */
 569:SRC/RTOS/tasks.c **** 			++uxTasksDeleted;
 353              	1 573 0
 354 02ec 58309FE5 		ldr	r3, .L20+12	@ tmp155,
 355 02f0 003093E5 		ldr	r3, [r3, #0]	@ uxTaskNumber.20, uxTaskNumber
 356 02f4 012083E2 		add	r2, r3, #1	@ uxTaskNumber.21, uxTaskNumber.20,
 357 02f8 4C309FE5 		ldr	r3, .L20+12	@ tmp156,
 358 02fc 002083E5 		str	r2, [r3, #0]	@ uxTaskNumber.21, uxTaskNumber
 570:SRC/RTOS/tasks.c **** 
 571:SRC/RTOS/tasks.c **** 			/* Increment the uxTaskNumberVariable also so kernel aware debuggers
 572:SRC/RTOS/tasks.c **** 			can detect that the task lists need re-generating. */
 573:SRC/RTOS/tasks.c **** 			uxTaskNumber++;
 359              	1 577 0
 360 0300 48309FE5 		bl	vPortExitCritical	@
 361 0304 003093E5 		.loc 1 580 0
 362 0308 012083E2 		ldr	r3, .L20+16	@ tmp157,
 363 030c 3C309FE5 		ldr	r3, [r3, #0]	@ xSchedulerRunning.22, xSchedulerRunning
 364 0310 002083E5 		cmp	r3, #0	@ xSchedulerRunning.22,
 574:SRC/RTOS/tasks.c **** 
 575:SRC/RTOS/tasks.c **** 			traceTASK_DELETE( pxTCB );
 576:SRC/RTOS/tasks.c **** 		}
 577:SRC/RTOS/tasks.c **** 		portEXIT_CRITICAL();
 365              	L19	@,
 366 0314 FEFFFFEB 		.loc 1 582 0
 578:SRC/RTOS/tasks.c **** 
 579:SRC/RTOS/tasks.c **** 		/* Force a reschedule if we have just deleted the current task. */
 580:SRC/RTOS/tasks.c **** 		if( xSchedulerRunning != pdFALSE )
 367              	dr	r3, [sp, #4]	@ tmp158, pxTaskToDelete
 368 0318 34309FE5 		cmp	r3, #0	@ tmp158,
 369 031c 003093E5 		bne	.L19	@,
 370 0320 000053E3 		.loc 1 584 0
 371 0324 0300000A 	@ 584 "SRC/RTOS/tasks.c" 1
 581:SRC/RTOS/tasks.c **** 		{
 582:SRC/RTOS/tasks.c **** 			if( ( void * ) pxTaskToDelete == NULL )
 372              	0
 373 0328 04309DE5 	@ 0 "" 2
 374 032c 000053E3 	.L19:
 375 0330 0000001A 		.loc 1 587 0
 583:SRC/RTOS/tasks.c **** 			{
 584:SRC/RTOS/tasks.c **** 				portYIELD_WITHIN_API();
 376              		sp, sp, #12	@,,
 377              		ldr	lr, [sp], #4
 378 0334 000000EF 		bx	lr
 379              	.L21:
 380              		.align	2
 585:SRC/RTOS/tasks.c **** 			}
ARM GAS  C:\DOCUME~1\ZAQUAD~1\USTAWI~1\Temp/ccIVGP1b.s 			page 18


 586:SRC/RTOS/tasks.c **** 		}
 587:SRC/RTOS/tasks.c **** 	}
 381              	
 382 0338 0CD08DE2 		.word	pxCurrentTCB
 383 033c 04E09DE4 		.word	xTasksWaitingTermination
 384 0340 1EFF2FE1 		.word	uxTasksDeleted
 385              		.word	uxTaskNumber
 386              		.word	xSchedulerRunning
 387              	.LFE3:
 388 0344 00000000 		.size	vTaskDelete, .-vTaskDelete
 389 0348 C8000000 		.align	2
 390 034c 04000000 		.global	vTaskDelayUntil
 391 0350 2C000000 		.type	vTaskDelayUntil, %function
 392 0354 18000000 	vTaskDelayUntil:
 393              	.LFB4:
 394              		.loc 1 603 0
 395              		@ Function supports interworking.
 396              		@ args = 0, pretend = 0, frame = 20
 397              		@ frame_needed = 0, uses_anonymous_args = 0
 398              		str	lr, [sp, #-4]!	@,
 399              	.LCFI4:
 588:SRC/RTOS/tasks.c **** 
 589:SRC/RTOS/tasks.c **** #endif
 590:SRC/RTOS/tasks.c **** 
 591:SRC/RTOS/tasks.c **** 
 592:SRC/RTOS/tasks.c **** 
 593:SRC/RTOS/tasks.c **** 
 594:SRC/RTOS/tasks.c **** 
 595:SRC/RTOS/tasks.c **** 
 596:SRC/RTOS/tasks.c **** /*-----------------------------------------------------------
 597:SRC/RTOS/tasks.c ****  * TASK CONTROL API documented in task.h
 598:SRC/RTOS/tasks.c ****  *----------------------------------------------------------*/
 599:SRC/RTOS/tasks.c **** 
 600:SRC/RTOS/tasks.c **** #if ( INCLUDE_vTaskDelayUntil == 1 )
 601:SRC/RTOS/tasks.c **** 
 602:SRC/RTOS/tasks.c **** 	void vTaskDelayUntil( portTickType * const pxPreviousWakeTime, portTickType xTimeIncrement )
 603:SRC/RTOS/tasks.c **** 	{
 400              	,,
 401              	.LCFI5:
 402              		str	r0, [sp, #4]	@ pxPreviousWakeTime, pxPreviousWakeTime
 403              		str	r1, [sp, #0]	@ xTimeIncrement, xTimeIncrement
 404 0358 04E02DE5 		.loc 1 605 0
 405              		mov	r3, #0	@ tmp151,
 406 035c 14D04DE2 		str	r3, [sp, #16]	@ tmp151, xShouldDelay
 407              		.loc 1 607 0
 408 0360 04008DE5 		bl	vTaskSuspendAll	@
 409 0364 00108DE5 		.loc 1 610 0
 604:SRC/RTOS/tasks.c **** 	portTickType xTimeToWake;
 605:SRC/RTOS/tasks.c **** 	portBASE_TYPE xAlreadyYielded, xShouldDelay = pdFALSE;
 410              	sp, #4]	@ tmp152, pxPreviousWakeTime
 411 0368 0030A0E3 		ldr	r2, [r3, #0]	@ D.3598,
 412 036c 10308DE5 		ldr	r3, [sp, #0]	@ tmp153, xTimeIncrement
 606:SRC/RTOS/tasks.c **** 
 607:SRC/RTOS/tasks.c **** 		vTaskSuspendAll();
 413              	d	r3, r2, r3	@ tmp154, D.3598, tmp153
 414 0370 FEFFFFEB 		str	r3, [sp, #8]	@ tmp154, xTimeToWake
 608:SRC/RTOS/tasks.c **** 		{
ARM GAS  C:\DOCUME~1\ZAQUAD~1\USTAWI~1\Temp/ccIVGP1b.s 			page 19


 609:SRC/RTOS/tasks.c **** 			/* Generate the tick time at which the task wants to wake. */
 610:SRC/RTOS/tasks.c **** 			xTimeToWake = *pxPreviousWakeTime + xTimeIncrement;
 415              	loc 1 612 0
 416 0374 04309DE5 		ldr	r3, [sp, #4]	@ tmp155, pxPreviousWakeTime
 417 0378 002093E5 		ldr	r2, [r3, #0]	@ D.3599,
 418 037c 00309DE5 		ldr	r3, .L31	@ tmp156,
 419 0380 033082E0 		ldr	r3, [r3, #0]	@ xTickCount.23, xTickCount
 420 0384 08308DE5 		cmp	r2, r3	@ D.3599, xTickCount.23
 611:SRC/RTOS/tasks.c **** 
 612:SRC/RTOS/tasks.c **** 			if( xTickCount < *pxPreviousWakeTime )
 421              	L23	@,
 422 0388 04309DE5 		.loc 1 619 0
 423 038c 002093E5 		ldr	r3, [sp, #4]	@ tmp157, pxPreviousWakeTime
 424 0390 28319FE5 		ldr	r2, [r3, #0]	@ D.3601,
 425 0394 003093E5 		ldr	r3, [sp, #8]	@ tmp158, xTimeToWake
 426 0398 030052E1 		cmp	r2, r3	@ D.3601, tmp158
 427 039c 0C00009A 		bls	.L25	@,
 613:SRC/RTOS/tasks.c **** 			{
 614:SRC/RTOS/tasks.c **** 				/* The tick count has overflowed since this function was
 615:SRC/RTOS/tasks.c **** 				lasted called.  In this case the only time we should ever
 616:SRC/RTOS/tasks.c **** 				actually delay is if the wake time has also	overflowed,
 617:SRC/RTOS/tasks.c **** 				and the wake time is greater than the tick time.  When this
 618:SRC/RTOS/tasks.c **** 				is the case it is as if neither time had overflowed. */
 619:SRC/RTOS/tasks.c **** 				if( ( xTimeToWake < *pxPreviousWakeTime ) && ( xTimeToWake > xTickCount ) )
 428              	, .L31	@ tmp159,
 429 03a0 04309DE5 		ldr	r2, [r3, #0]	@ xTickCount.24, xTickCount
 430 03a4 002093E5 		ldr	r3, [sp, #8]	@ tmp160, xTimeToWake
 431 03a8 08309DE5 		cmp	r3, r2	@ tmp160, xTickCount.24
 432 03ac 030052E1 		bls	.L25	@,
 433 03b0 1300009A 		.loc 1 621 0
 434 03b4 04319FE5 		mov	r3, #1	@ tmp161,
 435 03b8 002093E5 		str	r3, [sp, #16]	@ tmp161, xShouldDelay
 436 03bc 08309DE5 		b	.L25	@
 437 03c0 020053E1 	.L23:
 438 03c4 0E00009A 		.loc 1 629 0
 620:SRC/RTOS/tasks.c **** 				{
 621:SRC/RTOS/tasks.c **** 					xShouldDelay = pdTRUE;
 439              	p, #4]	@ tmp162, pxPreviousWakeTime
 440 03c8 0130A0E3 		ldr	r2, [r3, #0]	@ D.3605,
 441 03cc 10308DE5 		ldr	r3, [sp, #8]	@ tmp163, xTimeToWake
 442 03d0 0B0000EA 		cmp	r2, r3	@ D.3605, tmp163
 443              		bhi	.L26	@,
 622:SRC/RTOS/tasks.c **** 				}
 623:SRC/RTOS/tasks.c **** 			}
 624:SRC/RTOS/tasks.c **** 			else
 625:SRC/RTOS/tasks.c **** 			{
 626:SRC/RTOS/tasks.c **** 				/* The tick time has not overflowed.  In this case we will
 627:SRC/RTOS/tasks.c **** 				delay if either the wake time has overflowed, and/or the
 628:SRC/RTOS/tasks.c **** 				tick time is less than the wake time. */
 629:SRC/RTOS/tasks.c **** 				if( ( xTimeToWake < *pxPreviousWakeTime ) || ( xTimeToWake > xTickCount ) )
 444              	r3, .L31	@ tmp164,
 445 03d4 04309DE5 		ldr	r2, [r3, #0]	@ xTickCount.25, xTickCount
 446 03d8 002093E5 		ldr	r3, [sp, #8]	@ tmp165, xTimeToWake
 447 03dc 08309DE5 		cmp	r3, r2	@ tmp165, xTickCount.25
 448 03e0 030052E1 		bls	.L25	@,
 449 03e4 0400008A 	.L26:
 450 03e8 D0309FE5 		.loc 1 631 0
ARM GAS  C:\DOCUME~1\ZAQUAD~1\USTAWI~1\Temp/ccIVGP1b.s 			page 20


 451 03ec 002093E5 		mov	r3, #1	@ tmp166,
 452 03f0 08309DE5 		str	r3, [sp, #16]	@ tmp166, xShouldDelay
 453 03f4 020053E1 	.L25:
 454 03f8 0100009A 		.loc 1 636 0
 455              		ldr	r3, [sp, #4]	@ tmp167, pxPreviousWakeTime
 630:SRC/RTOS/tasks.c **** 				{
 631:SRC/RTOS/tasks.c **** 					xShouldDelay = pdTRUE;
 456              	, #8]	@ tmp168, xTimeToWake
 457 03fc 0130A0E3 		str	r2, [r3, #0]	@ tmp168,
 458 0400 10308DE5 		.loc 1 638 0
 459              		ldr	r3, [sp, #16]	@ tmp169, xShouldDelay
 632:SRC/RTOS/tasks.c **** 				}
 633:SRC/RTOS/tasks.c **** 			}
 634:SRC/RTOS/tasks.c **** 
 635:SRC/RTOS/tasks.c **** 			/* Update the wake time ready for the next call. */
 636:SRC/RTOS/tasks.c **** 			*pxPreviousWakeTime = xTimeToWake;
 460              		r3, #0	@ tmp169,
 461 0404 04309DE5 		beq	.L27	@,
 462 0408 08209DE5 		.loc 1 645 0
 463 040c 002083E5 		ldr	r3, .L31+4	@ tmp170,
 637:SRC/RTOS/tasks.c **** 
 638:SRC/RTOS/tasks.c **** 			if( xShouldDelay )
 464              		r3, [r3, #0]	@ pxCurrentTCB.26, pxCurrentTCB
 465 0410 10309DE5 		add	r3, r3, #4	@ D.3608, pxCurrentTCB.26,
 466 0414 000053E3 		mov	r0, r3	@, D.3608
 467 0418 1E00000A 		bl	vListRemove	@
 639:SRC/RTOS/tasks.c **** 			{
 640:SRC/RTOS/tasks.c **** 				traceTASK_DELAY_UNTIL();
 641:SRC/RTOS/tasks.c **** 
 642:SRC/RTOS/tasks.c **** 				/* We must remove ourselves from the ready list before adding
 643:SRC/RTOS/tasks.c **** 				ourselves to the blocked list as the same list item is used for
 644:SRC/RTOS/tasks.c **** 				both lists. */
 645:SRC/RTOS/tasks.c **** 				vListRemove( ( xListItem * ) &( pxCurrentTCB->xGenericListItem ) );
 468              	c 1 648 0
 469 041c A0309FE5 		ldr	r3, .L31+4	@ tmp171,
 470 0420 003093E5 		ldr	r2, [r3, #0]	@ pxCurrentTCB.27, pxCurrentTCB
 471 0424 043083E2 		ldr	r3, [sp, #8]	@ tmp172, xTimeToWake
 472 0428 0300A0E1 		str	r3, [r2, #4]	@ tmp172, <variable>.xGenericListItem.xItemValue
 473 042c FEFFFFEB 		.loc 1 650 0
 646:SRC/RTOS/tasks.c **** 
 647:SRC/RTOS/tasks.c **** 				/* The list item will be inserted in wake time order. */
 648:SRC/RTOS/tasks.c **** 				listSET_LIST_ITEM_VALUE( &( pxCurrentTCB->xGenericListItem ), xTimeToWake );
 474              	3, .L31	@ tmp173,
 475 0430 8C309FE5 		ldr	r2, [r3, #0]	@ xTickCount.28, xTickCount
 476 0434 002093E5 		ldr	r3, [sp, #8]	@ tmp174, xTimeToWake
 477 0438 08309DE5 		cmp	r3, r2	@ tmp174, xTickCount.28
 478 043c 043082E5 		bcs	.L28	@,
 649:SRC/RTOS/tasks.c **** 
 650:SRC/RTOS/tasks.c **** 				if( xTimeToWake < xTickCount )
 479              	 1 654 0
 480 0440 78309FE5 		ldr	r3, .L31+8	@ tmp175,
 481 0444 002093E5 		ldr	r2, [r3, #0]	@ pxOverflowDelayedTaskList.29, pxOverflowDelayedTaskList
 482 0448 08309DE5 		ldr	r3, .L31+4	@ tmp176,
 483 044c 020053E1 		ldr	r3, [r3, #0]	@ pxCurrentTCB.30, pxCurrentTCB
 484 0450 0800002A 		add	r3, r3, #4	@ D.3613, pxCurrentTCB.30,
 651:SRC/RTOS/tasks.c **** 				{
 652:SRC/RTOS/tasks.c **** 					/* Wake time has overflowed.  Place this item in the
ARM GAS  C:\DOCUME~1\ZAQUAD~1\USTAWI~1\Temp/ccIVGP1b.s 			page 21


 653:SRC/RTOS/tasks.c **** 					overflow list. */
 654:SRC/RTOS/tasks.c **** 					vListInsert( ( xList * ) pxOverflowDelayedTaskList, ( xListItem * ) &( pxCurrentTCB->xGenericL
 485              	0, r2	@, pxOverflowDelayedTaskList.29
 486 0454 6C309FE5 		mov	r1, r3	@, D.3613
 487 0458 002093E5 		bl	vListInsert	@
 488 045c 60309FE5 		b	.L27	@
 489 0460 003093E5 	.L28:
 490 0464 043083E2 		.loc 1 660 0
 491 0468 0200A0E1 		ldr	r3, .L31+12	@ tmp177,
 492 046c 0310A0E1 		ldr	r2, [r3, #0]	@ pxDelayedTaskList.31, pxDelayedTaskList
 493 0470 FEFFFFEB 		ldr	r3, .L31+4	@ tmp178,
 494 0474 070000EA 		ldr	r3, [r3, #0]	@ pxCurrentTCB.32, pxCurrentTCB
 495              		add	r3, r3, #4	@ D.3616, pxCurrentTCB.32,
 655:SRC/RTOS/tasks.c **** 				}
 656:SRC/RTOS/tasks.c **** 				else
 657:SRC/RTOS/tasks.c **** 				{
 658:SRC/RTOS/tasks.c **** 					/* The wake time has not overflowed, so we can use the
 659:SRC/RTOS/tasks.c **** 					current block list. */
 660:SRC/RTOS/tasks.c **** 					vListInsert( ( xList * ) pxDelayedTaskList, ( xListItem * ) &( pxCurrentTCB->xGenericListItem 
 496              		@, pxDelayedTaskList.31
 497 0478 4C309FE5 		mov	r1, r3	@, D.3616
 498 047c 002093E5 		bl	vListInsert	@
 499 0480 3C309FE5 	.L27:
 500 0484 003093E5 		.loc 1 664 0
 501 0488 043083E2 		bl	xTaskResumeAll	@
 502 048c 0200A0E1 		mov	r3, r0	@ xAlreadyYielded.33,
 503 0490 0310A0E1 		str	r3, [sp, #12]	@ xAlreadyYielded.33, xAlreadyYielded
 504 0494 FEFFFFEB 		.loc 1 668 0
 505              		ldr	r3, [sp, #12]	@ tmp179, xAlreadyYielded
 661:SRC/RTOS/tasks.c **** 				}
 662:SRC/RTOS/tasks.c **** 			}
 663:SRC/RTOS/tasks.c **** 		}
 664:SRC/RTOS/tasks.c **** 		xAlreadyYielded = xTaskResumeAll();
 506              	0	@ tmp179,
 507 0498 FEFFFFEB 		bne	.L30	@,
 508 049c 0030A0E1 		.loc 1 670 0
 509 04a0 0C308DE5 	@ 670 "SRC/RTOS/tasks.c" 1
 665:SRC/RTOS/tasks.c **** 
 666:SRC/RTOS/tasks.c **** 		/* Force a reschedule if xTaskResumeAll has not already done so, we may
 667:SRC/RTOS/tasks.c **** 		have put ourselves to sleep. */
 668:SRC/RTOS/tasks.c **** 		if( !xAlreadyYielded )
 510              	 0
 511 04a4 0C309DE5 	@ 0 "" 2
 512 04a8 000053E3 	.L30:
 513 04ac 0000001A 		.loc 1 672 0
 669:SRC/RTOS/tasks.c **** 		{
 670:SRC/RTOS/tasks.c **** 			portYIELD_WITHIN_API();
 514              		sp, sp, #20	@,,
 515              		ldr	lr, [sp], #4
 516 04b0 000000EF 		bx	lr
 517              	.L32:
 518              		.align	2
 671:SRC/RTOS/tasks.c **** 		}
 672:SRC/RTOS/tasks.c **** 	}
 519              	
 520 04b4 14D08DE2 		.word	xTickCount
 521 04b8 04E09DE4 		.word	pxCurrentTCB
ARM GAS  C:\DOCUME~1\ZAQUAD~1\USTAWI~1\Temp/ccIVGP1b.s 			page 22


 522 04bc 1EFF2FE1 		.word	pxOverflowDelayedTaskList
 523              		.word	pxDelayedTaskList
 524              	.LFE4:
 525              		.size	vTaskDelayUntil, .-vTaskDelayUntil
 526 04c0 0C000000 		.align	2
 527 04c4 00000000 		.global	vTaskDelay
 528 04c8 B0000000 		.type	vTaskDelay, %function
 529 04cc AC000000 	vTaskDelay:
 530              	.LFB5:
 531              		.loc 1 680 0
 532              		@ Function supports interworking.
 533              		@ args = 0, pretend = 0, frame = 12
 534              		@ frame_needed = 0, uses_anonymous_args = 0
 535              		str	lr, [sp, #-4]!	@,
 536              	.LCFI6:
 673:SRC/RTOS/tasks.c **** 
 674:SRC/RTOS/tasks.c **** #endif
 675:SRC/RTOS/tasks.c **** /*-----------------------------------------------------------*/
 676:SRC/RTOS/tasks.c **** 
 677:SRC/RTOS/tasks.c **** #if ( INCLUDE_vTaskDelay == 1 )
 678:SRC/RTOS/tasks.c **** 
 679:SRC/RTOS/tasks.c **** 	void vTaskDelay( portTickType xTicksToDelay )
 680:SRC/RTOS/tasks.c **** 	{
 537              	@,,
 538              	.LCFI7:
 539              		str	r0, [sp, #0]	@ xTicksToDelay, xTicksToDelay
 540              		.loc 1 682 0
 541 04d0 04E02DE5 		mov	r3, #0	@ tmp145,
 542              		str	r3, [sp, #8]	@ tmp145, xAlreadyYielded
 543 04d4 0CD04DE2 		.loc 1 685 0
 544              		ldr	r3, [sp, #0]	@ tmp146, xTicksToDelay
 545 04d8 00008DE5 		cmp	r3, #0	@ tmp146,
 681:SRC/RTOS/tasks.c **** 	portTickType xTimeToWake;
 682:SRC/RTOS/tasks.c **** 	signed portBASE_TYPE xAlreadyYielded = pdFALSE;
 546              		@,
 547 04dc 0030A0E3 		.loc 1 687 0
 548 04e0 08308DE5 		bl	vTaskSuspendAll	@
 683:SRC/RTOS/tasks.c **** 
 684:SRC/RTOS/tasks.c **** 		/* A delay time of zero just forces a reschedule. */
 685:SRC/RTOS/tasks.c **** 		if( xTicksToDelay > ( portTickType ) 0 )
 549              	oc 1 701 0
 550 04e4 00309DE5 		ldr	r3, .L39	@ tmp147,
 551 04e8 000053E3 		ldr	r2, [r3, #0]	@ xTickCount.34, xTickCount
 552 04ec 2700000A 		ldr	r3, [sp, #0]	@ tmp148, xTicksToDelay
 686:SRC/RTOS/tasks.c **** 		{
 687:SRC/RTOS/tasks.c **** 			vTaskSuspendAll();
 553              		r3, r2, r3	@ tmp149, xTickCount.34, tmp148
 554 04f0 FEFFFFEB 		str	r3, [sp, #4]	@ tmp149, xTimeToWake
 688:SRC/RTOS/tasks.c **** 			{
 689:SRC/RTOS/tasks.c **** 				traceTASK_DELAY();
 690:SRC/RTOS/tasks.c **** 
 691:SRC/RTOS/tasks.c **** 				/* A task that is removed from the event list while the
 692:SRC/RTOS/tasks.c **** 				scheduler is suspended will not get placed in the ready
 693:SRC/RTOS/tasks.c **** 				list or removed from the blocked list until the scheduler
 694:SRC/RTOS/tasks.c **** 				is resumed.
 695:SRC/RTOS/tasks.c **** 
 696:SRC/RTOS/tasks.c **** 				This task cannot be in an event list as it is the currently
ARM GAS  C:\DOCUME~1\ZAQUAD~1\USTAWI~1\Temp/ccIVGP1b.s 			page 23


 697:SRC/RTOS/tasks.c **** 				executing task. */
 698:SRC/RTOS/tasks.c **** 
 699:SRC/RTOS/tasks.c **** 				/* Calculate the time to wake - this may overflow but this is
 700:SRC/RTOS/tasks.c **** 				not a problem. */
 701:SRC/RTOS/tasks.c **** 				xTimeToWake = xTickCount + xTicksToDelay;
 555              	loc 1 706 0
 556 04f4 B0309FE5 		ldr	r3, .L39+4	@ tmp150,
 557 04f8 002093E5 		ldr	r3, [r3, #0]	@ pxCurrentTCB.35, pxCurrentTCB
 558 04fc 00309DE5 		add	r3, r3, #4	@ D.3640, pxCurrentTCB.35,
 559 0500 033082E0 		mov	r0, r3	@, D.3640
 560 0504 04308DE5 		bl	vListRemove	@
 702:SRC/RTOS/tasks.c **** 
 703:SRC/RTOS/tasks.c **** 				/* We must remove ourselves from the ready list before adding
 704:SRC/RTOS/tasks.c **** 				ourselves to the blocked list as the same list item is used for
 705:SRC/RTOS/tasks.c **** 				both lists. */
 706:SRC/RTOS/tasks.c **** 				vListRemove( ( xListItem * ) &( pxCurrentTCB->xGenericListItem ) );
 561              	1 709 0
 562 0508 A0309FE5 		ldr	r3, .L39+4	@ tmp151,
 563 050c 003093E5 		ldr	r2, [r3, #0]	@ pxCurrentTCB.36, pxCurrentTCB
 564 0510 043083E2 		ldr	r3, [sp, #4]	@ tmp152, xTimeToWake
 565 0514 0300A0E1 		str	r3, [r2, #4]	@ tmp152, <variable>.xGenericListItem.xItemValue
 566 0518 FEFFFFEB 		.loc 1 711 0
 707:SRC/RTOS/tasks.c **** 
 708:SRC/RTOS/tasks.c **** 				/* The list item will be inserted in wake time order. */
 709:SRC/RTOS/tasks.c **** 				listSET_LIST_ITEM_VALUE( &( pxCurrentTCB->xGenericListItem ), xTimeToWake );
 567              	3, .L39	@ tmp153,
 568 051c 8C309FE5 		ldr	r2, [r3, #0]	@ xTickCount.37, xTickCount
 569 0520 002093E5 		ldr	r3, [sp, #4]	@ tmp154, xTimeToWake
 570 0524 04309DE5 		cmp	r3, r2	@ tmp154, xTickCount.37
 571 0528 043082E5 		bcs	.L35	@,
 710:SRC/RTOS/tasks.c **** 
 711:SRC/RTOS/tasks.c **** 				if( xTimeToWake < xTickCount )
 572              	 1 715 0
 573 052c 78309FE5 		ldr	r3, .L39+8	@ tmp155,
 574 0530 002093E5 		ldr	r2, [r3, #0]	@ pxOverflowDelayedTaskList.38, pxOverflowDelayedTaskList
 575 0534 04309DE5 		ldr	r3, .L39+4	@ tmp156,
 576 0538 020053E1 		ldr	r3, [r3, #0]	@ pxCurrentTCB.39, pxCurrentTCB
 577 053c 0800002A 		add	r3, r3, #4	@ D.3645, pxCurrentTCB.39,
 712:SRC/RTOS/tasks.c **** 				{
 713:SRC/RTOS/tasks.c **** 					/* Wake time has overflowed.  Place this item in the
 714:SRC/RTOS/tasks.c **** 					overflow list. */
 715:SRC/RTOS/tasks.c **** 					vListInsert( ( xList * ) pxOverflowDelayedTaskList, ( xListItem * ) &( pxCurrentTCB->xGenericL
 578              	0, r2	@, pxOverflowDelayedTaskList.38
 579 0540 6C309FE5 		mov	r1, r3	@, D.3645
 580 0544 002093E5 		bl	vListInsert	@
 581 0548 60309FE5 		b	.L36	@
 582 054c 003093E5 	.L35:
 583 0550 043083E2 		.loc 1 721 0
 584 0554 0200A0E1 		ldr	r3, .L39+12	@ tmp157,
 585 0558 0310A0E1 		ldr	r2, [r3, #0]	@ pxDelayedTaskList.40, pxDelayedTaskList
 586 055c FEFFFFEB 		ldr	r3, .L39+4	@ tmp158,
 587 0560 070000EA 		ldr	r3, [r3, #0]	@ pxCurrentTCB.41, pxCurrentTCB
 588              		add	r3, r3, #4	@ D.3648, pxCurrentTCB.41,
 716:SRC/RTOS/tasks.c **** 				}
 717:SRC/RTOS/tasks.c **** 				else
 718:SRC/RTOS/tasks.c **** 				{
 719:SRC/RTOS/tasks.c **** 					/* The wake time has not overflowed, so we can use the
ARM GAS  C:\DOCUME~1\ZAQUAD~1\USTAWI~1\Temp/ccIVGP1b.s 			page 24


 720:SRC/RTOS/tasks.c **** 					current block list. */
 721:SRC/RTOS/tasks.c **** 					vListInsert( ( xList * ) pxDelayedTaskList, ( xListItem * ) &( pxCurrentTCB->xGenericListItem 
 589              		@, pxDelayedTaskList.40
 590 0564 4C309FE5 		mov	r1, r3	@, D.3648
 591 0568 002093E5 		bl	vListInsert	@
 592 056c 3C309FE5 	.L36:
 593 0570 003093E5 		.loc 1 724 0
 594 0574 043083E2 		bl	xTaskResumeAll	@
 595 0578 0200A0E1 		mov	r3, r0	@ xAlreadyYielded.42,
 596 057c 0310A0E1 		str	r3, [sp, #8]	@ xAlreadyYielded.42, xAlreadyYielded
 597 0580 FEFFFFEB 	.L34:
 598              		.loc 1 729 0
 722:SRC/RTOS/tasks.c **** 				}
 723:SRC/RTOS/tasks.c **** 			}
 724:SRC/RTOS/tasks.c **** 			xAlreadyYielded = xTaskResumeAll();
 599              	sp, #8]	@ tmp159, xAlreadyYielded
 600 0584 FEFFFFEB 		cmp	r3, #0	@ tmp159,
 601 0588 0030A0E1 		bne	.L38	@,
 602 058c 08308DE5 		.loc 1 731 0
 603              	@ 731 "SRC/RTOS/tasks.c" 1
 725:SRC/RTOS/tasks.c **** 		}
 726:SRC/RTOS/tasks.c **** 
 727:SRC/RTOS/tasks.c **** 		/* Force a reschedule if xTaskResumeAll has not already done so, we may
 728:SRC/RTOS/tasks.c **** 		have put ourselves to sleep. */
 729:SRC/RTOS/tasks.c **** 		if( !xAlreadyYielded )
 604              	0
 605 0590 08309DE5 	@ 0 "" 2
 606 0594 000053E3 	.L38:
 607 0598 0000001A 		.loc 1 733 0
 730:SRC/RTOS/tasks.c **** 		{
 731:SRC/RTOS/tasks.c **** 			portYIELD_WITHIN_API();
 608              		sp, sp, #12	@,,
 609              		ldr	lr, [sp], #4
 610 059c 000000EF 		bx	lr
 611              	.L40:
 612              		.align	2
 732:SRC/RTOS/tasks.c **** 		}
 733:SRC/RTOS/tasks.c **** 	}
 613              	
 614 05a0 0CD08DE2 		.word	xTickCount
 615 05a4 04E09DE4 		.word	pxCurrentTCB
 616 05a8 1EFF2FE1 		.word	pxOverflowDelayedTaskList
 617              		.word	pxDelayedTaskList
 618              	.LFE5:
 619              		.size	vTaskDelay, .-vTaskDelay
 620 05ac 0C000000 		.align	2
 621 05b0 00000000 		.global	uxTaskPriorityGet
 622 05b4 B0000000 		.type	uxTaskPriorityGet, %function
 623 05b8 AC000000 	uxTaskPriorityGet:
 624              	.LFB6:
 625              		.loc 1 741 0
 626              		@ Function supports interworking.
 627              		@ args = 0, pretend = 0, frame = 16
 628              		@ frame_needed = 0, uses_anonymous_args = 0
 629              		str	lr, [sp, #-4]!	@,
 630              	.LCFI8:
 734:SRC/RTOS/tasks.c **** 
ARM GAS  C:\DOCUME~1\ZAQUAD~1\USTAWI~1\Temp/ccIVGP1b.s 			page 25


 735:SRC/RTOS/tasks.c **** #endif
 736:SRC/RTOS/tasks.c **** /*-----------------------------------------------------------*/
 737:SRC/RTOS/tasks.c **** 
 738:SRC/RTOS/tasks.c **** #if ( INCLUDE_uxTaskPriorityGet == 1 )
 739:SRC/RTOS/tasks.c **** 
 740:SRC/RTOS/tasks.c **** 	unsigned portBASE_TYPE uxTaskPriorityGet( xTaskHandle pxTask )
 741:SRC/RTOS/tasks.c **** 	{
 631              	@,,
 632              	.LCFI9:
 633              		str	r0, [sp, #4]	@ pxTask, pxTask
 634              		.loc 1 745 0
 635 05bc 04E02DE5 		bl	vPortEnterCritical	@
 636              		.loc 1 749 0
 637 05c0 10D04DE2 		ldr	r3, [sp, #4]	@ tmp136, pxTask
 638              		cmp	r3, #0	@ tmp136,
 639 05c4 04008DE5 		bne	.L42	@,
 742:SRC/RTOS/tasks.c **** 	tskTCB *pxTCB;
 743:SRC/RTOS/tasks.c **** 	unsigned portBASE_TYPE uxReturn;
 744:SRC/RTOS/tasks.c **** 
 745:SRC/RTOS/tasks.c **** 		portENTER_CRITICAL();
 640              	.L45	@ tmp137,
 641 05c8 FEFFFFEB 		ldr	r3, [r3, #0]	@, pxCurrentTCB
 746:SRC/RTOS/tasks.c **** 		{
 747:SRC/RTOS/tasks.c **** 			/* If null is passed in here then we are changing the
 748:SRC/RTOS/tasks.c **** 			priority of the calling function. */
 749:SRC/RTOS/tasks.c **** 			pxTCB = prvGetTCBFromHandle( pxTask );
 642              	tr	r3, [sp, #0]	@, iftmp.43
 643 05cc 04309DE5 		b	.L43	@
 644 05d0 000053E3 	.L42:
 645 05d4 0300001A 		ldr	r3, [sp, #4]	@, pxTask
 646 05d8 3C309FE5 		str	r3, [sp, #0]	@, iftmp.43
 647 05dc 003093E5 	.L43:
 648 05e0 00308DE5 		ldr	r3, [sp, #0]	@, iftmp.43
 649 05e4 010000EA 		str	r3, [sp, #8]	@, pxTCB
 650              		.loc 1 750 0
 651 05e8 04309DE5 		ldr	r3, [sp, #8]	@ tmp138, pxTCB
 652 05ec 00308DE5 		ldr	r3, [r3, #44]	@ tmp139, <variable>.uxPriority
 653              		str	r3, [sp, #12]	@ tmp139, uxReturn
 654 05f0 00309DE5 		.loc 1 752 0
 655 05f4 08308DE5 		bl	vPortExitCritical	@
 750:SRC/RTOS/tasks.c **** 			uxReturn = pxTCB->uxPriority;
 656              		ldr	r3, [sp, #12]	@ D.3663, uxReturn
 657 05f8 08309DE5 		.loc 1 755 0
 658 05fc 2C3093E5 		mov	r0, r3	@, <result>
 659 0600 0C308DE5 		add	sp, sp, #16	@,,
 751:SRC/RTOS/tasks.c **** 		}
 752:SRC/RTOS/tasks.c **** 		portEXIT_CRITICAL();
 660              		lr, [sp], #4
 661 0604 FEFFFFEB 		bx	lr
 753:SRC/RTOS/tasks.c **** 
 754:SRC/RTOS/tasks.c **** 		return uxReturn;
 662              	46:
 663 0608 0C309DE5 		.align	2
 755:SRC/RTOS/tasks.c **** 	}
 664              	45:
 665 060c 0300A0E1 		.word	pxCurrentTCB
 666 0610 10D08DE2 	.LFE6:
ARM GAS  C:\DOCUME~1\ZAQUAD~1\USTAWI~1\Temp/ccIVGP1b.s 			page 26


 667 0614 04E09DE4 		.size	uxTaskPriorityGet, .-uxTaskPriorityGet
 668 0618 1EFF2FE1 		.align	2
 669              		.global	vTaskPrioritySet
 670              		.type	vTaskPrioritySet, %function
 671              	vTaskPrioritySet:
 672 061c 00000000 	.LFB7:
 673              		.loc 1 763 0
 674              		@ Function supports interworking.
 675              		@ args = 0, pretend = 0, frame = 24
 676              		@ frame_needed = 0, uses_anonymous_args = 0
 677              		str	lr, [sp, #-4]!	@,
 678              	.LCFI10:
 679              		sub	sp, sp, #24	@,,
 756:SRC/RTOS/tasks.c **** 
 757:SRC/RTOS/tasks.c **** #endif
 758:SRC/RTOS/tasks.c **** /*-----------------------------------------------------------*/
 759:SRC/RTOS/tasks.c **** 
 760:SRC/RTOS/tasks.c **** #if ( INCLUDE_vTaskPrioritySet == 1 )
 761:SRC/RTOS/tasks.c **** 
 762:SRC/RTOS/tasks.c **** 	void vTaskPrioritySet( xTaskHandle pxTask, unsigned portBASE_TYPE uxNewPriority )
 763:SRC/RTOS/tasks.c **** 	{
 680              	, [sp, #8]	@ pxTask, pxTask
 681              		str	r1, [sp, #4]	@ uxNewPriority, uxNewPriority
 682              		.loc 1 765 0
 683              		mov	r3, #0	@ tmp149,
 684 0620 04E02DE5 		str	r3, [sp, #20]	@ tmp149, xYieldRequired
 685              		.loc 1 768 0
 686 0624 18D04DE2 		ldr	r3, [sp, #4]	@ tmp150, uxNewPriority
 687              		cmp	r3, #3	@ tmp150,
 688 0628 08008DE5 		bls	.L48	@,
 689 062c 04108DE5 		.loc 1 770 0
 764:SRC/RTOS/tasks.c **** 	tskTCB *pxTCB;
 765:SRC/RTOS/tasks.c **** 	unsigned portBASE_TYPE uxCurrentPriority, xYieldRequired = pdFALSE;
 690              	3	@ tmp151,
 691 0630 0030A0E3 		str	r3, [sp, #4]	@ tmp151, uxNewPriority
 692 0634 14308DE5 	.L48:
 766:SRC/RTOS/tasks.c **** 
 767:SRC/RTOS/tasks.c **** 		/* Ensure the new priority is valid. */
 768:SRC/RTOS/tasks.c **** 		if( uxNewPriority >= configMAX_PRIORITIES )
 693              	oc 1 773 0
 694 0638 04309DE5 		bl	vPortEnterCritical	@
 695 063c 030053E3 		.loc 1 775 0
 696 0640 0100009A 		ldr	r3, .L60	@ tmp152,
 769:SRC/RTOS/tasks.c **** 		{
 770:SRC/RTOS/tasks.c **** 			uxNewPriority = configMAX_PRIORITIES - 1;
 697              		r2, [r3, #0]	@ pxCurrentTCB.44, pxCurrentTCB
 698 0644 0330A0E3 		ldr	r3, [sp, #8]	@ tmp153, pxTask
 699 0648 04308DE5 		cmp	r3, r2	@ tmp153, pxCurrentTCB.44
 700              		bne	.L49	@,
 771:SRC/RTOS/tasks.c **** 		}
 772:SRC/RTOS/tasks.c **** 
 773:SRC/RTOS/tasks.c **** 		portENTER_CRITICAL();
 701              	c 1 777 0
 702 064c FEFFFFEB 		mov	r3, #0	@ tmp154,
 774:SRC/RTOS/tasks.c **** 		{
 775:SRC/RTOS/tasks.c **** 			if( pxTask == pxCurrentTCB )
 703              	tr	r3, [sp, #8]	@ tmp154, pxTask
ARM GAS  C:\DOCUME~1\ZAQUAD~1\USTAWI~1\Temp/ccIVGP1b.s 			page 27


 704 0650 88319FE5 	.L49:
 705 0654 002093E5 		.loc 1 782 0
 706 0658 08309DE5 		ldr	r3, [sp, #8]	@ tmp155, pxTask
 707 065c 020053E1 		cmp	r3, #0	@ tmp155,
 708 0660 0100001A 		bne	.L50	@,
 776:SRC/RTOS/tasks.c **** 			{
 777:SRC/RTOS/tasks.c **** 				pxTask = NULL;
 709              	3, .L60	@ tmp156,
 710 0664 0030A0E3 		ldr	r3, [r3, #0]	@, pxCurrentTCB
 711 0668 08308DE5 		str	r3, [sp, #0]	@, iftmp.45
 712              		b	.L51	@
 778:SRC/RTOS/tasks.c **** 			}
 779:SRC/RTOS/tasks.c **** 
 780:SRC/RTOS/tasks.c **** 			/* If null is passed in here then we are changing the
 781:SRC/RTOS/tasks.c **** 			priority of the calling function. */
 782:SRC/RTOS/tasks.c **** 			pxTCB = prvGetTCBFromHandle( pxTask );
 713              	:
 714 066c 08309DE5 		ldr	r3, [sp, #8]	@, pxTask
 715 0670 000053E3 		str	r3, [sp, #0]	@, iftmp.45
 716 0674 0300001A 	.L51:
 717 0678 60319FE5 		ldr	r3, [sp, #0]	@, iftmp.45
 718 067c 003093E5 		str	r3, [sp, #12]	@, pxTCB
 719 0680 00308DE5 		.loc 1 788 0
 720 0684 010000EA 		ldr	r3, [sp, #12]	@ tmp157, pxTCB
 721              		ldr	r3, [r3, #68]	@ tmp158, <variable>.uxBasePriority
 722 0688 08309DE5 		str	r3, [sp, #16]	@ tmp158, uxCurrentPriority
 723 068c 00308DE5 		.loc 1 796 0
 724              		ldr	r2, [sp, #16]	@ tmp159, uxCurrentPriority
 725 0690 00309DE5 		ldr	r3, [sp, #4]	@ tmp160, uxNewPriority
 726 0694 0C308DE5 		cmp	r2, r3	@ tmp159, tmp160
 783:SRC/RTOS/tasks.c **** 
 784:SRC/RTOS/tasks.c **** 			traceTASK_PRIORITY_SET( pxTask, uxNewPriority );
 785:SRC/RTOS/tasks.c **** 
 786:SRC/RTOS/tasks.c **** 			#if ( configUSE_MUTEXES == 1 )
 787:SRC/RTOS/tasks.c **** 			{
 788:SRC/RTOS/tasks.c **** 				uxCurrentPriority = pxTCB->uxBasePriority;
 727              	.loc 1 800 0
 728 0698 0C309DE5 		ldr	r2, [sp, #4]	@ tmp161, uxNewPriority
 729 069c 443093E5 		ldr	r3, [sp, #16]	@ tmp162, uxCurrentPriority
 730 06a0 10308DE5 		cmp	r2, r3	@ tmp161, tmp162
 789:SRC/RTOS/tasks.c **** 			}
 790:SRC/RTOS/tasks.c **** 			#else
 791:SRC/RTOS/tasks.c **** 			{
 792:SRC/RTOS/tasks.c **** 				uxCurrentPriority = pxTCB->uxPriority;
 793:SRC/RTOS/tasks.c **** 			}
 794:SRC/RTOS/tasks.c **** 			#endif
 795:SRC/RTOS/tasks.c **** 
 796:SRC/RTOS/tasks.c **** 			if( uxCurrentPriority != uxNewPriority )
 731              		.L53	@,
 732 06a4 10209DE5 		.loc 1 802 0
 733 06a8 04309DE5 		ldr	r3, [sp, #8]	@ tmp163, pxTask
 734 06ac 030052E1 		cmp	r3, #0	@ tmp163,
 735 06b0 4600000A 		beq	.L55	@,
 797:SRC/RTOS/tasks.c **** 			{
 798:SRC/RTOS/tasks.c **** 				/* The priority change may have readied a task of higher
 799:SRC/RTOS/tasks.c **** 				priority than the calling task. */
 800:SRC/RTOS/tasks.c **** 				if( uxNewPriority > uxCurrentPriority )
ARM GAS  C:\DOCUME~1\ZAQUAD~1\USTAWI~1\Temp/ccIVGP1b.s 			page 28


 736              	 1 808 0
 737 06b4 04209DE5 		mov	r3, #1	@ tmp164,
 738 06b8 10309DE5 		str	r3, [sp, #20]	@ tmp164, xYieldRequired
 739 06bc 030052E1 		b	.L55	@
 740 06c0 0500009A 	.L53:
 801:SRC/RTOS/tasks.c **** 				{
 802:SRC/RTOS/tasks.c **** 					if( pxTask != NULL )
 741              	 1 811 0
 742 06c4 08309DE5 		ldr	r3, [sp, #8]	@ tmp165, pxTask
 743 06c8 000053E3 		cmp	r3, #0	@ tmp165,
 744 06cc 0700000A 		bne	.L55	@,
 803:SRC/RTOS/tasks.c **** 					{
 804:SRC/RTOS/tasks.c **** 						/* The priority of another task is being raised.  If we
 805:SRC/RTOS/tasks.c **** 						were raising the priority of the currently running task
 806:SRC/RTOS/tasks.c **** 						there would be no need to switch as it must have already
 807:SRC/RTOS/tasks.c **** 						been the highest priority task. */
 808:SRC/RTOS/tasks.c **** 						xYieldRequired = pdTRUE;
 745              	c 1 815 0
 746 06d0 0130A0E3 		mov	r3, #1	@ tmp166,
 747 06d4 14308DE5 		str	r3, [sp, #20]	@ tmp166, xYieldRequired
 748 06d8 040000EA 	.L55:
 749              		.loc 1 824 0
 809:SRC/RTOS/tasks.c **** 					}
 810:SRC/RTOS/tasks.c **** 				}
 811:SRC/RTOS/tasks.c **** 				else if( pxTask == NULL )
 750              	r3, [sp, #12]	@ tmp167, pxTCB
 751 06dc 08309DE5 		ldr	r2, [r3, #68]	@ D.3677, <variable>.uxBasePriority
 752 06e0 000053E3 		ldr	r3, [sp, #12]	@ tmp168, pxTCB
 753 06e4 0100001A 		ldr	r3, [r3, #44]	@ D.3678, <variable>.uxPriority
 812:SRC/RTOS/tasks.c **** 				{
 813:SRC/RTOS/tasks.c **** 					/* Setting our own priority down means there may now be another
 814:SRC/RTOS/tasks.c **** 					task of higher priority that is ready to execute. */
 815:SRC/RTOS/tasks.c **** 					xYieldRequired = pdTRUE;
 754              		r2, r3	@ D.3677, D.3678
 755 06e8 0130A0E3 		bne	.L56	@,
 756 06ec 14308DE5 		.loc 1 826 0
 757              		ldr	r2, [sp, #12]	@ tmp169, pxTCB
 816:SRC/RTOS/tasks.c **** 				}
 817:SRC/RTOS/tasks.c **** 
 818:SRC/RTOS/tasks.c **** 
 819:SRC/RTOS/tasks.c **** 
 820:SRC/RTOS/tasks.c **** 				#if ( configUSE_MUTEXES == 1 )
 821:SRC/RTOS/tasks.c **** 				{
 822:SRC/RTOS/tasks.c **** 					/* Only change the priority being used if the task is not
 823:SRC/RTOS/tasks.c **** 					currently using an inherited priority. */
 824:SRC/RTOS/tasks.c **** 					if( pxTCB->uxBasePriority == pxTCB->uxPriority )
 758              		r3, [sp, #4]	@ tmp170, uxNewPriority
 759 06f0 0C309DE5 		str	r3, [r2, #44]	@ tmp170, <variable>.uxPriority
 760 06f4 442093E5 	.L56:
 761 06f8 0C309DE5 		.loc 1 830 0
 762 06fc 2C3093E5 		ldr	r2, [sp, #12]	@ tmp171, pxTCB
 763 0700 030052E1 		ldr	r3, [sp, #4]	@ tmp172, uxNewPriority
 764 0704 0200001A 		str	r3, [r2, #68]	@ tmp172, <variable>.uxBasePriority
 825:SRC/RTOS/tasks.c **** 					{
 826:SRC/RTOS/tasks.c **** 						pxTCB->uxPriority = uxNewPriority;
 765              	 838 0
 766 0708 0C209DE5 		ldr	r3, [sp, #4]	@ tmp173, uxNewPriority
ARM GAS  C:\DOCUME~1\ZAQUAD~1\USTAWI~1\Temp/ccIVGP1b.s 			page 29


 767 070c 04309DE5 		rsb	r2, r3, #4	@ D.3679, tmp173,
 768 0710 2C3082E5 		ldr	r3, [sp, #12]	@ tmp174, pxTCB
 769              		str	r2, [r3, #24]	@ D.3679, <variable>.xEventListItem.xItemValue
 827:SRC/RTOS/tasks.c **** 					}
 828:SRC/RTOS/tasks.c **** 
 829:SRC/RTOS/tasks.c **** 					/* The base priority gets set whatever. */
 830:SRC/RTOS/tasks.c **** 					pxTCB->uxBasePriority = uxNewPriority;
 770              	 1 844 0
 771 0714 0C209DE5 		ldr	r3, [sp, #12]	@ tmp175, pxTCB
 772 0718 04309DE5 		ldr	r1, [r3, #20]	@ D.3680, <variable>.xGenericListItem.pvContainer
 773 071c 443082E5 		ldr	r3, [sp, #16]	@ tmp176, uxCurrentPriority
 831:SRC/RTOS/tasks.c **** 				}
 832:SRC/RTOS/tasks.c **** 				#else
 833:SRC/RTOS/tasks.c **** 				{
 834:SRC/RTOS/tasks.c **** 					pxTCB->uxPriority = uxNewPriority;
 835:SRC/RTOS/tasks.c **** 				}
 836:SRC/RTOS/tasks.c **** 				#endif
 837:SRC/RTOS/tasks.c **** 
 838:SRC/RTOS/tasks.c **** 				listSET_LIST_ITEM_VALUE( &( pxTCB->xEventListItem ), ( configMAX_PRIORITIES - ( portTickType ) 
 774              		r2, r3, asl #2	@ tmp178, tmp177,
 775 0720 04309DE5 		mov	r3, r2, asl #2	@ tmp179, tmp178,
 776 0724 042063E2 		add	r2, r2, r3	@ D.3681, tmp178, tmp179
 777 0728 0C309DE5 		ldr	r3, .L60+4	@ tmp180,
 778 072c 182083E5 		add	r3, r2, r3	@ D.3682, D.3681, tmp180
 839:SRC/RTOS/tasks.c **** 
 840:SRC/RTOS/tasks.c **** 				/* If the task is in the blocked or suspended list we need do
 841:SRC/RTOS/tasks.c **** 				nothing more than change it's priority variable. However, if
 842:SRC/RTOS/tasks.c **** 				the task is in a ready list it needs to be removed and placed
 843:SRC/RTOS/tasks.c **** 				in the queue appropriate to its new priority. */
 844:SRC/RTOS/tasks.c **** 				if( listIS_CONTAINED_WITHIN( &( pxReadyTasksLists[ uxCurrentPriority ] ), &( pxTCB->xGenericLis
 779              	r1, r3	@ D.3680, D.3682
 780 0730 0C309DE5 		bne	.L57	@,
 781 0734 141093E5 		.loc 1 849 0
 782 0738 10309DE5 		ldr	r3, [sp, #12]	@ tmp181, pxTCB
 783 073c 0321A0E1 		add	r3, r3, #4	@ D.3683, tmp181,
 784 0740 0231A0E1 		mov	r0, r3	@, D.3683
 785 0744 032082E0 		bl	vListRemove	@
 786 0748 94309FE5 		.loc 1 850 0
 787 074c 033082E0 		ldr	r3, [sp, #12]	@ tmp182, pxTCB
 788 0750 030051E1 		ldr	r2, [r3, #44]	@ D.3684, <variable>.uxPriority
 789 0754 1900001A 		ldr	r3, .L60+8	@ tmp183,
 845:SRC/RTOS/tasks.c **** 				{
 846:SRC/RTOS/tasks.c **** 					/* The task is currently in its ready list - remove before adding
 847:SRC/RTOS/tasks.c **** 					it to it's new ready list.  As we are in a critical section we
 848:SRC/RTOS/tasks.c **** 					can do this even if the scheduler is suspended. */
 849:SRC/RTOS/tasks.c **** 					vListRemove( &( pxTCB->xGenericListItem ) );
 790              	3, #0]	@ uxTopReadyPriority.46, uxTopReadyPriority
 791 0758 0C309DE5 		cmp	r2, r3	@ D.3684, uxTopReadyPriority.46
 792 075c 043083E2 		bls	.L58	@,
 793 0760 0300A0E1 		ldr	r3, [sp, #12]	@ tmp184, pxTCB
 794 0764 FEFFFFEB 		ldr	r2, [r3, #44]	@ uxTopReadyPriority.47, <variable>.uxPriority
 850:SRC/RTOS/tasks.c **** 					prvAddTaskToReadyQueue( pxTCB );
 795              	r3, .L60+8	@ tmp185,
 796 0768 0C309DE5 		str	r2, [r3, #0]	@ uxTopReadyPriority.47, uxTopReadyPriority
 797 076c 2C2093E5 	.L58:
 798 0770 70309FE5 		ldr	r3, [sp, #12]	@ tmp186, pxTCB
 799 0774 003093E5 		ldr	r3, [r3, #44]	@ D.3687, <variable>.uxPriority
ARM GAS  C:\DOCUME~1\ZAQUAD~1\USTAWI~1\Temp/ccIVGP1b.s 			page 30


 800 0778 030052E1 		mov	r2, r3, asl #2	@ tmp188, tmp187,
 801 077c 0300009A 		mov	r3, r2, asl #2	@ tmp189, tmp188,
 802 0780 0C309DE5 		add	r2, r2, r3	@ D.3688, tmp188, tmp189
 803 0784 2C2093E5 		ldr	r3, .L60+4	@ tmp190,
 804 0788 58309FE5 		add	r2, r2, r3	@ D.3689, D.3688, tmp190
 805 078c 002083E5 		ldr	r3, [sp, #12]	@ tmp191, pxTCB
 806              		add	r3, r3, #4	@ D.3690, tmp191,
 807 0790 0C309DE5 		mov	r0, r2	@, D.3689
 808 0794 2C3093E5 		mov	r1, r3	@, D.3690
 809 0798 0321A0E1 		bl	vListInsertEnd	@
 810 079c 0231A0E1 	.L57:
 811 07a0 032082E0 		.loc 1 853 0
 812 07a4 38309FE5 		ldr	r3, [sp, #20]	@ tmp192, xYieldRequired
 813 07a8 032082E0 		cmp	r3, #1	@ tmp192,
 814 07ac 0C309DE5 		bne	.L52	@,
 815 07b0 043083E2 		.loc 1 855 0
 816 07b4 0200A0E1 	@ 855 "SRC/RTOS/tasks.c" 1
 817 07b8 0310A0E1 		SWI 0
 818 07bc FEFFFFEB 	@ 0 "" 2
 819              	.L52:
 851:SRC/RTOS/tasks.c **** 				}
 852:SRC/RTOS/tasks.c **** 
 853:SRC/RTOS/tasks.c **** 				if( xYieldRequired == pdTRUE )
 820              	itCritical	@
 821 07c0 14309DE5 		.loc 1 860 0
 822 07c4 010053E3 		add	sp, sp, #24	@,,
 823 07c8 0000001A 		ldr	lr, [sp], #4
 854:SRC/RTOS/tasks.c **** 				{
 855:SRC/RTOS/tasks.c **** 					portYIELD_WITHIN_API();
 824              	lr
 825              	.L61:
 826 07cc 000000EF 		.align	2
 827              	.L60:
 828              		.word	pxCurrentTCB
 856:SRC/RTOS/tasks.c **** 				}
 857:SRC/RTOS/tasks.c **** 			}
 858:SRC/RTOS/tasks.c **** 		}
 859:SRC/RTOS/tasks.c **** 		portEXIT_CRITICAL();
 829              	d	pxReadyTasksLists
 830 07d0 FEFFFFEB 		.word	uxTopReadyPriority
 860:SRC/RTOS/tasks.c **** 	}
 831              	FE7:
 832 07d4 18D08DE2 		.size	vTaskPrioritySet, .-vTaskPrioritySet
 833 07d8 04E09DE4 		.align	2
 834 07dc 1EFF2FE1 		.global	vTaskSuspend
 835              		.type	vTaskSuspend, %function
 836              	vTaskSuspend:
 837              	.LFB8:
 838 07e0 00000000 		.loc 1 868 0
 839 07e4 34000000 		@ Function supports interworking.
 840 07e8 14000000 		@ args = 0, pretend = 0, frame = 12
 841              		@ frame_needed = 0, uses_anonymous_args = 0
 842              		str	lr, [sp, #-4]!	@,
 843              	.LCFI12:
 844              		sub	sp, sp, #12	@,,
 845              	.LCFI13:
 846              		str	r0, [sp, #4]	@ pxTaskToSuspend, pxTaskToSuspend
ARM GAS  C:\DOCUME~1\ZAQUAD~1\USTAWI~1\Temp/ccIVGP1b.s 			page 31


 847              		.loc 1 871 0
 861:SRC/RTOS/tasks.c **** 
 862:SRC/RTOS/tasks.c **** #endif
 863:SRC/RTOS/tasks.c **** /*-----------------------------------------------------------*/
 864:SRC/RTOS/tasks.c **** 
 865:SRC/RTOS/tasks.c **** #if ( INCLUDE_vTaskSuspend == 1 )
 866:SRC/RTOS/tasks.c **** 
 867:SRC/RTOS/tasks.c **** 	void vTaskSuspend( xTaskHandle pxTaskToSuspend )
 868:SRC/RTOS/tasks.c **** 	{
 848              	tical	@
 849              		.loc 1 875 0
 850              		ldr	r3, .L69	@ tmp139,
 851              		ldr	r2, [r3, #0]	@ pxCurrentTCB.48, pxCurrentTCB
 852 07ec 04E02DE5 		ldr	r3, [sp, #4]	@ tmp140, pxTaskToSuspend
 853              		cmp	r3, r2	@ tmp140, pxCurrentTCB.48
 854 07f0 0CD04DE2 		bne	.L63	@,
 855              		.loc 1 877 0
 856 07f4 04008DE5 		mov	r3, #0	@ tmp141,
 869:SRC/RTOS/tasks.c **** 	tskTCB *pxTCB;
 870:SRC/RTOS/tasks.c **** 
 871:SRC/RTOS/tasks.c **** 		portENTER_CRITICAL();
 857              	[sp, #4]	@ tmp141, pxTaskToSuspend
 858 07f8 FEFFFFEB 	.L63:
 872:SRC/RTOS/tasks.c **** 		{
 873:SRC/RTOS/tasks.c **** 			/* Ensure a yield is performed if the current task is being
 874:SRC/RTOS/tasks.c **** 			suspended. */
 875:SRC/RTOS/tasks.c **** 			if( pxTaskToSuspend == pxCurrentTCB )
 859              	loc 1 881 0
 860 07fc A4309FE5 		ldr	r3, [sp, #4]	@ tmp142, pxTaskToSuspend
 861 0800 002093E5 		cmp	r3, #0	@ tmp142,
 862 0804 04309DE5 		bne	.L64	@,
 863 0808 020053E1 		ldr	r3, .L69	@ tmp143,
 864 080c 0100001A 		ldr	r3, [r3, #0]	@, pxCurrentTCB
 876:SRC/RTOS/tasks.c **** 			{
 877:SRC/RTOS/tasks.c **** 				pxTaskToSuspend = NULL;
 865              	3, [sp, #0]	@, iftmp.49
 866 0810 0030A0E3 		b	.L65	@
 867 0814 04308DE5 	.L64:
 868              		ldr	r3, [sp, #4]	@, pxTaskToSuspend
 878:SRC/RTOS/tasks.c **** 			}
 879:SRC/RTOS/tasks.c **** 
 880:SRC/RTOS/tasks.c **** 			/* If null is passed in here then we are suspending ourselves. */
 881:SRC/RTOS/tasks.c **** 			pxTCB = prvGetTCBFromHandle( pxTaskToSuspend );
 869              		r3, [sp, #0]	@, iftmp.49
 870 0818 04309DE5 	.L65:
 871 081c 000053E3 		ldr	r3, [sp, #0]	@, iftmp.49
 872 0820 0300001A 		str	r3, [sp, #8]	@, pxTCB
 873 0824 7C309FE5 		.loc 1 886 0
 874 0828 003093E5 		ldr	r3, [sp, #8]	@ tmp144, pxTCB
 875 082c 00308DE5 		add	r3, r3, #4	@ D.3721, tmp144,
 876 0830 010000EA 		mov	r0, r3	@, D.3721
 877              		bl	vListRemove	@
 878 0834 04309DE5 		.loc 1 889 0
 879 0838 00308DE5 		ldr	r3, [sp, #8]	@ tmp145, pxTCB
 880              		ldr	r3, [r3, #40]	@ D.3722, <variable>.xEventListItem.pvContainer
 881 083c 00309DE5 		cmp	r3, #0	@ D.3722,
 882 0840 08308DE5 		beq	.L66	@,
ARM GAS  C:\DOCUME~1\ZAQUAD~1\USTAWI~1\Temp/ccIVGP1b.s 			page 32


 882:SRC/RTOS/tasks.c **** 
 883:SRC/RTOS/tasks.c **** 			traceTASK_SUSPEND( pxTCB );
 884:SRC/RTOS/tasks.c **** 
 885:SRC/RTOS/tasks.c **** 			/* Remove task from the ready/delayed list and place in the	suspended list. */
 886:SRC/RTOS/tasks.c **** 			vListRemove( &( pxTCB->xGenericListItem ) );
 883              		ldr	r3, [sp, #8]	@ tmp146, pxTCB
 884 0844 08309DE5 		add	r3, r3, #24	@ D.3723, tmp146,
 885 0848 043083E2 		mov	r0, r3	@, D.3723
 886 084c 0300A0E1 		bl	vListRemove	@
 887 0850 FEFFFFEB 	.L66:
 887:SRC/RTOS/tasks.c **** 
 888:SRC/RTOS/tasks.c **** 			/* Is the task waiting on an event also? */
 889:SRC/RTOS/tasks.c **** 			if( pxTCB->xEventListItem.pvContainer )
 888              	 1 894 0
 889 0854 08309DE5 		ldr	r3, [sp, #8]	@ tmp147, pxTCB
 890 0858 283093E5 		add	r3, r3, #4	@ D.3724, tmp147,
 891 085c 000053E3 		ldr	r0, .L69+4	@,
 892 0860 0300000A 		mov	r1, r3	@, D.3724
 890:SRC/RTOS/tasks.c **** 			{
 891:SRC/RTOS/tasks.c **** 				vListRemove( &( pxTCB->xEventListItem ) );
 893              	ListInsertEnd	@
 894 0864 08309DE5 		.loc 1 896 0
 895 0868 183083E2 		bl	vPortExitCritical	@
 896 086c 0300A0E1 		.loc 1 899 0
 897 0870 FEFFFFEB 		ldr	r3, [sp, #4]	@ tmp148, pxTaskToSuspend
 898              		cmp	r3, #0	@ tmp148,
 892:SRC/RTOS/tasks.c **** 			}
 893:SRC/RTOS/tasks.c **** 
 894:SRC/RTOS/tasks.c **** 			vListInsertEnd( ( xList * ) &xSuspendedTaskList, &( pxTCB->xGenericListItem ) );
 899              	L68	@,
 900 0874 08309DE5 		.loc 1 901 0
 901 0878 043083E2 	@ 901 "SRC/RTOS/tasks.c" 1
 902 087c 28009FE5 		SWI 0
 903 0880 0310A0E1 	@ 0 "" 2
 904 0884 FEFFFFEB 	.L68:
 895:SRC/RTOS/tasks.c **** 		}
 896:SRC/RTOS/tasks.c **** 		portEXIT_CRITICAL();
 905              	1 903 0
 906 0888 FEFFFFEB 		add	sp, sp, #12	@,,
 897:SRC/RTOS/tasks.c **** 
 898:SRC/RTOS/tasks.c **** 		/* We may have just suspended the current task. */
 899:SRC/RTOS/tasks.c **** 		if( ( void * ) pxTaskToSuspend == NULL )
 907              	dr	lr, [sp], #4
 908 088c 04309DE5 		bx	lr
 909 0890 000053E3 	.L70:
 910 0894 0000001A 		.align	2
 900:SRC/RTOS/tasks.c **** 		{
 901:SRC/RTOS/tasks.c **** 			portYIELD_WITHIN_API();
 911              	:
 912              		.word	pxCurrentTCB
 913 0898 000000EF 		.word	xSuspendedTaskList
 914              	.LFE8:
 915              		.size	vTaskSuspend, .-vTaskSuspend
 902:SRC/RTOS/tasks.c **** 		}
 903:SRC/RTOS/tasks.c **** 	}
 916              	gn	2
 917 089c 0CD08DE2 		.global	xTaskIsTaskSuspended
ARM GAS  C:\DOCUME~1\ZAQUAD~1\USTAWI~1\Temp/ccIVGP1b.s 			page 33


 918 08a0 04E09DE4 		.type	xTaskIsTaskSuspended, %function
 919 08a4 1EFF2FE1 	xTaskIsTaskSuspended:
 920              	.LFB9:
 921              		.loc 1 911 0
 922              		@ Function supports interworking.
 923 08a8 00000000 		@ args = 0, pretend = 0, frame = 12
 924 08ac DC000000 		@ frame_needed = 0, uses_anonymous_args = 0
 925              		@ link register save eliminated.
 926              		sub	sp, sp, #12	@,,
 927              	.LCFI14:
 928              		str	r0, [sp, #0]	@ xTask, xTask
 929              		.loc 1 912 0
 930              		mov	r3, #0	@ tmp138,
 931              		str	r3, [sp, #4]	@ tmp138, xReturn
 904:SRC/RTOS/tasks.c **** 
 905:SRC/RTOS/tasks.c **** #endif
 906:SRC/RTOS/tasks.c **** /*-----------------------------------------------------------*/
 907:SRC/RTOS/tasks.c **** 
 908:SRC/RTOS/tasks.c **** #if ( INCLUDE_vTaskSuspend == 1 )
 909:SRC/RTOS/tasks.c **** 
 910:SRC/RTOS/tasks.c **** 	signed portBASE_TYPE xTaskIsTaskSuspended( xTaskHandle xTask )
 911:SRC/RTOS/tasks.c **** 	{
 932              	dr	r3, [sp, #0]	@ tmp139, xTask
 933              		str	r3, [sp, #8]	@ tmp139, pxTCB
 934              		.loc 1 917 0
 935              		ldr	r3, [sp, #8]	@ tmp140, pxTCB
 936              		ldr	r2, [r3, #20]	@ D.3739, <variable>.xGenericListItem.pvContainer
 937 08b0 0CD04DE2 		ldr	r3, .L74	@ tmp141,
 938              		cmp	r2, r3	@ D.3739, tmp141
 939 08b4 00008DE5 		bne	.L72	@,
 912:SRC/RTOS/tasks.c **** 	portBASE_TYPE xReturn = pdFALSE;
 940              	920 0
 941 08b8 0030A0E3 		ldr	r3, [sp, #8]	@ tmp142, pxTCB
 942 08bc 04308DE5 		ldr	r2, [r3, #40]	@ D.3740, <variable>.xEventListItem.pvContainer
 913:SRC/RTOS/tasks.c **** 	const tskTCB * const pxTCB = ( tskTCB * ) xTask;
 943              	r	r3, .L74+4	@ tmp143,
 944 08c0 00309DE5 		cmp	r2, r3	@ D.3740, tmp143
 945 08c4 08308DE5 		beq	.L72	@,
 914:SRC/RTOS/tasks.c **** 
 915:SRC/RTOS/tasks.c **** 		/* Is the task we are attempting to resume actually in the
 916:SRC/RTOS/tasks.c **** 		suspended list? */
 917:SRC/RTOS/tasks.c **** 		if( listIS_CONTAINED_WITHIN( &xSuspendedTaskList, &( pxTCB->xGenericListItem ) ) != pdFALSE )
 946              	oc 1 926 0
 947 08c8 08309DE5 		ldr	r3, [sp, #8]	@ tmp144, pxTCB
 948 08cc 142093E5 		ldr	r3, [r3, #40]	@ D.3741, <variable>.xEventListItem.pvContainer
 949 08d0 40309FE5 		cmp	r3, #0	@ D.3741,
 950 08d4 030052E1 		bne	.L72	@,
 951 08d8 0A00001A 		.loc 1 928 0
 918:SRC/RTOS/tasks.c **** 		{
 919:SRC/RTOS/tasks.c **** 			/* Has the task already been resumed from within an ISR? */
 920:SRC/RTOS/tasks.c **** 			if( listIS_CONTAINED_WITHIN( &xPendingReadyList, &( pxTCB->xEventListItem ) ) != pdTRUE )
 952              	3, #1	@ tmp145,
 953 08dc 08309DE5 		str	r3, [sp, #4]	@ tmp145, xReturn
 954 08e0 282093E5 	.L72:
 955 08e4 30309FE5 		.loc 1 933 0
 956 08e8 030052E1 		ldr	r3, [sp, #4]	@ D.3742, xReturn
 957 08ec 0500000A 		.loc 1 934 0
ARM GAS  C:\DOCUME~1\ZAQUAD~1\USTAWI~1\Temp/ccIVGP1b.s 			page 34


 921:SRC/RTOS/tasks.c **** 			{
 922:SRC/RTOS/tasks.c **** 				/* Is it in the suspended list because it is in the
 923:SRC/RTOS/tasks.c **** 				Suspended state?  It is possible to be in the suspended
 924:SRC/RTOS/tasks.c **** 				list because it is blocked on a task with no timeout
 925:SRC/RTOS/tasks.c **** 				specified. */
 926:SRC/RTOS/tasks.c **** 				if( listIS_CONTAINED_WITHIN( NULL, &( pxTCB->xEventListItem ) ) == pdTRUE )
 958              	0, r3	@, <result>
 959 08f0 08309DE5 		add	sp, sp, #12	@,,
 960 08f4 283093E5 		bx	lr
 961 08f8 000053E3 	.L75:
 962 08fc 0100001A 		.align	2
 927:SRC/RTOS/tasks.c **** 				{
 928:SRC/RTOS/tasks.c **** 					xReturn = pdTRUE;
 963              	
 964 0900 0130A0E3 		.word	xSuspendedTaskList
 965 0904 04308DE5 		.word	xPendingReadyList
 966              	.LFE9:
 929:SRC/RTOS/tasks.c **** 				}
 930:SRC/RTOS/tasks.c **** 			}
 931:SRC/RTOS/tasks.c **** 		}
 932:SRC/RTOS/tasks.c **** 
 933:SRC/RTOS/tasks.c **** 		return xReturn;
 967              	ize	xTaskIsTaskSuspended, .-xTaskIsTaskSuspended
 968 0908 04309DE5 		.align	2
 934:SRC/RTOS/tasks.c **** 	}
 969              	global	vTaskResume
 970 090c 0300A0E1 		.type	vTaskResume, %function
 971 0910 0CD08DE2 	vTaskResume:
 972 0914 1EFF2FE1 	.LFB10:
 973              		.loc 1 942 0
 974              		@ Function supports interworking.
 975              		@ args = 0, pretend = 0, frame = 8
 976 0918 DC000000 		@ frame_needed = 0, uses_anonymous_args = 0
 977 091c B4000000 		str	lr, [sp, #-4]!	@,
 978              	.LCFI15:
 979              		sub	sp, sp, #8	@,,
 980              	.LCFI16:
 981              		str	r0, [sp, #0]	@ pxTaskToResume, pxTaskToResume
 982              		.loc 1 947 0
 983              		ldr	r3, [sp, #0]	@ tmp146, pxTaskToResume
 984              		str	r3, [sp, #4]	@ tmp146, pxTCB
 935:SRC/RTOS/tasks.c **** 
 936:SRC/RTOS/tasks.c **** #endif
 937:SRC/RTOS/tasks.c **** /*-----------------------------------------------------------*/
 938:SRC/RTOS/tasks.c **** 
 939:SRC/RTOS/tasks.c **** #if ( INCLUDE_vTaskSuspend == 1 )
 940:SRC/RTOS/tasks.c **** 
 941:SRC/RTOS/tasks.c **** 	void vTaskResume( xTaskHandle pxTaskToResume )
 942:SRC/RTOS/tasks.c **** 	{
 985              	dr	r3, [sp, #4]	@ tmp147, pxTCB
 986              		cmp	r3, #0	@ tmp147,
 987              		beq	.L80	@,
 988              		ldr	r3, .L81	@ tmp148,
 989 0920 04E02DE5 		ldr	r2, [r3, #0]	@ pxCurrentTCB.50, pxCurrentTCB
 990              		ldr	r3, [sp, #4]	@ tmp149, pxTCB
 991 0924 08D04DE2 		cmp	r3, r2	@ tmp149, pxCurrentTCB.50
 992              		beq	.L80	@,
ARM GAS  C:\DOCUME~1\ZAQUAD~1\USTAWI~1\Temp/ccIVGP1b.s 			page 35


 993 0928 00008DE5 		.loc 1 953 0
 943:SRC/RTOS/tasks.c **** 	tskTCB *pxTCB;
 944:SRC/RTOS/tasks.c **** 
 945:SRC/RTOS/tasks.c **** 		/* Remove the task from whichever list it is currently in, and place
 946:SRC/RTOS/tasks.c **** 		it in the ready list. */
 947:SRC/RTOS/tasks.c **** 		pxTCB = ( tskTCB * ) pxTaskToResume;
 994              	EnterCritical	@
 995 092c 00309DE5 		.loc 1 955 0
 996 0930 04308DE5 		ldr	r0, [sp, #4]	@, pxTCB
 948:SRC/RTOS/tasks.c **** 
 949:SRC/RTOS/tasks.c **** 		/* The parameter cannot be NULL as it is impossible to resume the
 950:SRC/RTOS/tasks.c **** 		currently executing task. */
 951:SRC/RTOS/tasks.c **** 		if( ( pxTCB != NULL ) && ( pxTCB != pxCurrentTCB ) )
 997              		xTaskIsTaskSuspended	@
 998 0934 04309DE5 		mov	r3, r0	@ D.3755,
 999 0938 000053E3 		cmp	r3, #1	@ D.3755,
 1000 093c 2D00000A 		bne	.L78	@,
 1001 0940 BC309FE5 		.loc 1 961 0
 1002 0944 002093E5 		ldr	r3, [sp, #4]	@ tmp150, pxTCB
 1003 0948 04309DE5 		add	r3, r3, #4	@ D.3756, tmp150,
 1004 094c 020053E1 		mov	r0, r3	@, D.3756
 1005 0950 2800000A 		bl	vListRemove	@
 952:SRC/RTOS/tasks.c **** 		{
 953:SRC/RTOS/tasks.c **** 			portENTER_CRITICAL();
 1006              	62 0
 1007 0954 FEFFFFEB 		ldr	r3, [sp, #4]	@ tmp151, pxTCB
 954:SRC/RTOS/tasks.c **** 			{
 955:SRC/RTOS/tasks.c **** 				if( xTaskIsTaskSuspended( pxTCB ) == pdTRUE )
 1008              	dr	r2, [r3, #44]	@ D.3757, <variable>.uxPriority
 1009 0958 04009DE5 		ldr	r3, .L81+4	@ tmp152,
 1010 095c FEFFFFEB 		ldr	r3, [r3, #0]	@ uxTopReadyPriority.51, uxTopReadyPriority
 1011 0960 0030A0E1 		cmp	r2, r3	@ D.3757, uxTopReadyPriority.51
 1012 0964 010053E3 		bls	.L79	@,
 1013 0968 2100001A 		ldr	r3, [sp, #4]	@ tmp153, pxTCB
 956:SRC/RTOS/tasks.c **** 				{
 957:SRC/RTOS/tasks.c **** 					traceTASK_RESUME( pxTCB );
 958:SRC/RTOS/tasks.c **** 
 959:SRC/RTOS/tasks.c **** 					/* As we are in a critical section we can access the ready
 960:SRC/RTOS/tasks.c **** 					lists even if the scheduler is suspended. */
 961:SRC/RTOS/tasks.c **** 					vListRemove(  &( pxTCB->xGenericListItem ) );
 1014              	2, [r3, #44]	@ uxTopReadyPriority.52, <variable>.uxPriority
 1015 096c 04309DE5 		ldr	r3, .L81+4	@ tmp154,
 1016 0970 043083E2 		str	r2, [r3, #0]	@ uxTopReadyPriority.52, uxTopReadyPriority
 1017 0974 0300A0E1 	.L79:
 1018 0978 FEFFFFEB 		ldr	r3, [sp, #4]	@ tmp155, pxTCB
 962:SRC/RTOS/tasks.c **** 					prvAddTaskToReadyQueue( pxTCB );
 1019              	r3, [r3, #44]	@ D.3760, <variable>.uxPriority
 1020 097c 04309DE5 		mov	r2, r3, asl #2	@ tmp157, tmp156,
 1021 0980 2C2093E5 		mov	r3, r2, asl #2	@ tmp158, tmp157,
 1022 0984 7C309FE5 		add	r2, r2, r3	@ D.3761, tmp157, tmp158
 1023 0988 003093E5 		ldr	r3, .L81+8	@ tmp159,
 1024 098c 030052E1 		add	r2, r2, r3	@ D.3762, D.3761, tmp159
 1025 0990 0300009A 		ldr	r3, [sp, #4]	@ tmp160, pxTCB
 1026 0994 04309DE5 		add	r3, r3, #4	@ D.3763, tmp160,
 1027 0998 2C2093E5 		mov	r0, r2	@, D.3762
 1028 099c 64309FE5 		mov	r1, r3	@, D.3763
 1029 09a0 002083E5 		bl	vListInsertEnd	@
ARM GAS  C:\DOCUME~1\ZAQUAD~1\USTAWI~1\Temp/ccIVGP1b.s 			page 36


 1030              		.loc 1 965 0
 1031 09a4 04309DE5 		ldr	r3, [sp, #4]	@ tmp161, pxTCB
 1032 09a8 2C3093E5 		ldr	r2, [r3, #44]	@ D.3764, <variable>.uxPriority
 1033 09ac 0321A0E1 		ldr	r3, .L81	@ tmp162,
 1034 09b0 0231A0E1 		ldr	r3, [r3, #0]	@ pxCurrentTCB.53, pxCurrentTCB
 1035 09b4 032082E0 		ldr	r3, [r3, #44]	@ D.3766, <variable>.uxPriority
 1036 09b8 4C309FE5 		cmp	r2, r3	@ D.3764, D.3766
 1037 09bc 032082E0 		bcc	.L78	@,
 1038 09c0 04309DE5 		.loc 1 969 0
 1039 09c4 043083E2 	@ 969 "SRC/RTOS/tasks.c" 1
 1040 09c8 0200A0E1 		SWI 0
 1041 09cc 0310A0E1 	@ 0 "" 2
 1042 09d0 FEFFFFEB 	.L78:
 963:SRC/RTOS/tasks.c **** 
 964:SRC/RTOS/tasks.c **** 					/* We may have just resumed a higher priority task. */
 965:SRC/RTOS/tasks.c **** 					if( pxTCB->uxPriority >= pxCurrentTCB->uxPriority )
 1043              	xitCritical	@
 1044 09d4 04309DE5 	.L80:
 1045 09d8 2C2093E5 		.loc 1 975 0
 1046 09dc 20309FE5 		add	sp, sp, #8	@,,
 1047 09e0 003093E5 		ldr	lr, [sp], #4
 1048 09e4 2C3093E5 		bx	lr
 1049 09e8 030052E1 	.L82:
 1050 09ec 0000003A 		.align	2
 966:SRC/RTOS/tasks.c **** 					{
 967:SRC/RTOS/tasks.c **** 						/* This yield may not cause the task just resumed to run, but
 968:SRC/RTOS/tasks.c **** 						will leave the lists in the correct state for the next yield. */
 969:SRC/RTOS/tasks.c **** 						portYIELD_WITHIN_API();
 1051              	word	pxCurrentTCB
 1052              		.word	uxTopReadyPriority
 1053 09f0 000000EF 		.word	pxReadyTasksLists
 1054              	.LFE10:
 1055              		.size	vTaskResume, .-vTaskResume
 970:SRC/RTOS/tasks.c **** 					}
 971:SRC/RTOS/tasks.c **** 				}
 972:SRC/RTOS/tasks.c **** 			}
 973:SRC/RTOS/tasks.c **** 			portEXIT_CRITICAL();
 1056              	gn	2
 1057 09f4 FEFFFFEB 		.global	xTaskResumeFromISR
 1058              		.type	xTaskResumeFromISR, %function
 974:SRC/RTOS/tasks.c **** 		}
 975:SRC/RTOS/tasks.c **** 	}
 1059              	skResumeFromISR:
 1060 09f8 08D08DE2 	.LFB11:
 1061 09fc 04E09DE4 		.loc 1 984 0
 1062 0a00 1EFF2FE1 		@ Function supports interworking.
 1063              		@ args = 0, pretend = 0, frame = 12
 1064              		@ frame_needed = 0, uses_anonymous_args = 0
 1065              		str	lr, [sp, #-4]!	@,
 1066 0a04 00000000 	.LCFI17:
 1067 0a08 14000000 		sub	sp, sp, #12	@,,
 1068 0a0c 34000000 	.LCFI18:
 1069              		str	r0, [sp, #0]	@ pxTaskToResume, pxTaskToResume
 1070              		.loc 1 985 0
 1071              		mov	r3, #0	@ tmp149,
 1072              		str	r3, [sp, #4]	@ tmp149, xYieldRequired
 1073              		.loc 1 988 0
ARM GAS  C:\DOCUME~1\ZAQUAD~1\USTAWI~1\Temp/ccIVGP1b.s 			page 37


 1074              		ldr	r3, [sp, #0]	@ tmp150, pxTaskToResume
 1075              		str	r3, [sp, #8]	@ tmp150, pxTCB
 976:SRC/RTOS/tasks.c **** 
 977:SRC/RTOS/tasks.c **** #endif
 978:SRC/RTOS/tasks.c **** 
 979:SRC/RTOS/tasks.c **** /*-----------------------------------------------------------*/
 980:SRC/RTOS/tasks.c **** 
 981:SRC/RTOS/tasks.c **** #if ( ( INCLUDE_xTaskResumeFromISR == 1 ) && ( INCLUDE_vTaskSuspend == 1 ) )
 982:SRC/RTOS/tasks.c **** 
 983:SRC/RTOS/tasks.c **** 	portBASE_TYPE xTaskResumeFromISR( xTaskHandle pxTaskToResume )
 984:SRC/RTOS/tasks.c **** 	{
 1076              	r	r0, [sp, #8]	@, pxTCB
 1077              		bl	xTaskIsTaskSuspended	@
 1078              		mov	r3, r0	@ D.3782,
 1079              		cmp	r3, #1	@ D.3782,
 1080 0a10 04E02DE5 		bne	.L84	@,
 1081              		.loc 1 994 0
 1082 0a14 0CD04DE2 		ldr	r3, .L88	@ tmp151,
 1083              		ldr	r3, [r3, #0]	@ uxSchedulerSuspended.54, uxSchedulerSuspended
 1084 0a18 00008DE5 		cmp	r3, #0	@ uxSchedulerSuspended.54,
 985:SRC/RTOS/tasks.c **** 	portBASE_TYPE xYieldRequired = pdFALSE;
 1085              		@,
 1086 0a1c 0030A0E3 		.loc 1 996 0
 1087 0a20 04308DE5 		ldr	r3, [sp, #8]	@ tmp152, pxTCB
 986:SRC/RTOS/tasks.c **** 	tskTCB *pxTCB;
 987:SRC/RTOS/tasks.c **** 
 988:SRC/RTOS/tasks.c **** 		pxTCB = ( tskTCB * ) pxTaskToResume;
 1088              	r	r2, [r3, #44]	@ D.3784, <variable>.uxPriority
 1089 0a24 00309DE5 		ldr	r3, .L88+4	@ tmp153,
 1090 0a28 08308DE5 		ldr	r3, [r3, #0]	@ pxCurrentTCB.55, pxCurrentTCB
 989:SRC/RTOS/tasks.c **** 
 990:SRC/RTOS/tasks.c **** 		if( xTaskIsTaskSuspended( pxTCB ) == pdTRUE )
 1091              	r	r3, [r3, #44]	@ D.3786, <variable>.uxPriority
 1092 0a2c 08009DE5 		cmp	r2, r3	@ D.3784, D.3786
 1093 0a30 FEFFFFEB 		movcc	r3, #0	@, tmp154
 1094 0a34 0030A0E1 		movcs	r3, #1	@, tmp154
 1095 0a38 010053E3 		str	r3, [sp, #4]	@ tmp154, xYieldRequired
 1096 0a3c 2C00001A 		.loc 1 997 0
 991:SRC/RTOS/tasks.c **** 		{
 992:SRC/RTOS/tasks.c **** 			traceTASK_RESUME_FROM_ISR( pxTCB );
 993:SRC/RTOS/tasks.c **** 
 994:SRC/RTOS/tasks.c **** 			if( uxSchedulerSuspended == ( unsigned portBASE_TYPE ) pdFALSE )
 1097              	3, [sp, #8]	@ tmp155, pxTCB
 1098 0a40 C0309FE5 		add	r3, r3, #4	@ D.3787, tmp155,
 1099 0a44 003093E5 		mov	r0, r3	@, D.3787
 1100 0a48 000053E3 		bl	vListRemove	@
 1101 0a4c 2300001A 		.loc 1 998 0
 995:SRC/RTOS/tasks.c **** 			{
 996:SRC/RTOS/tasks.c **** 				xYieldRequired = ( pxTCB->uxPriority >= pxCurrentTCB->uxPriority );
 1102              	r3, [sp, #8]	@ tmp156, pxTCB
 1103 0a50 08309DE5 		ldr	r2, [r3, #44]	@ D.3788, <variable>.uxPriority
 1104 0a54 2C2093E5 		ldr	r3, .L88+8	@ tmp157,
 1105 0a58 AC309FE5 		ldr	r3, [r3, #0]	@ uxTopReadyPriority.56, uxTopReadyPriority
 1106 0a5c 003093E5 		cmp	r2, r3	@ D.3788, uxTopReadyPriority.56
 1107 0a60 2C3093E5 		bls	.L86	@,
 1108 0a64 030052E1 		ldr	r3, [sp, #8]	@ tmp158, pxTCB
 1109 0a68 0030A033 		ldr	r2, [r3, #44]	@ uxTopReadyPriority.57, <variable>.uxPriority
ARM GAS  C:\DOCUME~1\ZAQUAD~1\USTAWI~1\Temp/ccIVGP1b.s 			page 38


 1110 0a6c 0130A023 		ldr	r3, .L88+8	@ tmp159,
 1111 0a70 04308DE5 		str	r2, [r3, #0]	@ uxTopReadyPriority.57, uxTopReadyPriority
 997:SRC/RTOS/tasks.c **** 				vListRemove(  &( pxTCB->xGenericListItem ) );
 1112              		r3, [sp, #8]	@ tmp160, pxTCB
 1113 0a74 08309DE5 		ldr	r3, [r3, #44]	@ D.3791, <variable>.uxPriority
 1114 0a78 043083E2 		mov	r2, r3, asl #2	@ tmp162, tmp161,
 1115 0a7c 0300A0E1 		mov	r3, r2, asl #2	@ tmp163, tmp162,
 1116 0a80 FEFFFFEB 		add	r2, r2, r3	@ D.3792, tmp162, tmp163
 998:SRC/RTOS/tasks.c **** 				prvAddTaskToReadyQueue( pxTCB );
 1117              	r3, .L88+12	@ tmp164,
 1118 0a84 08309DE5 		add	r2, r2, r3	@ D.3793, D.3792, tmp164
 1119 0a88 2C2093E5 		ldr	r3, [sp, #8]	@ tmp165, pxTCB
 1120 0a8c 7C309FE5 		add	r3, r3, #4	@ D.3794, tmp165,
 1121 0a90 003093E5 		mov	r0, r2	@, D.3793
 1122 0a94 030052E1 		mov	r1, r3	@, D.3794
 1123 0a98 0300009A 		bl	vListInsertEnd	@
 1124 0a9c 08309DE5 		b	.L84	@
 1125 0aa0 2C2093E5 	.L85:
 1126 0aa4 64309FE5 		.loc 1 1005 0
 1127 0aa8 002083E5 		ldr	r3, [sp, #8]	@ tmp166, pxTCB
 1128              		add	r3, r3, #24	@ D.3795, tmp166,
 1129 0aac 08309DE5 		ldr	r0, .L88+16	@,
 1130 0ab0 2C3093E5 		mov	r1, r3	@, D.3795
 1131 0ab4 0321A0E1 		bl	vListInsertEnd	@
 1132 0ab8 0231A0E1 	.L84:
 1133 0abc 032082E0 		.loc 1 1009 0
 1134 0ac0 4C309FE5 		ldr	r3, [sp, #4]	@ D.3796, xYieldRequired
 1135 0ac4 032082E0 		.loc 1 1010 0
 1136 0ac8 08309DE5 		mov	r0, r3	@, <result>
 1137 0acc 043083E2 		add	sp, sp, #12	@,,
 1138 0ad0 0200A0E1 		ldr	lr, [sp], #4
 1139 0ad4 0310A0E1 		bx	lr
 1140 0ad8 FEFFFFEB 	.L89:
 1141 0adc 040000EA 		.align	2
 1142              	.L88:
 999:SRC/RTOS/tasks.c **** 			}
1000:SRC/RTOS/tasks.c **** 			else
1001:SRC/RTOS/tasks.c **** 			{
1002:SRC/RTOS/tasks.c **** 				/* We cannot access the delayed or ready lists, so will hold this
1003:SRC/RTOS/tasks.c **** 				task pending until the scheduler is resumed, at which point a
1004:SRC/RTOS/tasks.c **** 				yield will be performed if necessary. */
1005:SRC/RTOS/tasks.c **** 				vListInsertEnd( ( xList * ) &( xPendingReadyList ), &( pxTCB->xEventListItem ) );
 1143              	d
 1144 0ae0 08309DE5 		.word	pxCurrentTCB
 1145 0ae4 183083E2 		.word	uxTopReadyPriority
 1146 0ae8 28009FE5 		.word	pxReadyTasksLists
 1147 0aec 0310A0E1 		.word	xPendingReadyList
 1148 0af0 FEFFFFEB 	.LFE11:
 1149              		.size	xTaskResumeFromISR, .-xTaskResumeFromISR
1006:SRC/RTOS/tasks.c **** 			}
1007:SRC/RTOS/tasks.c **** 		}
1008:SRC/RTOS/tasks.c **** 
1009:SRC/RTOS/tasks.c **** 		return xYieldRequired;
 1150              	on	.rodata
 1151 0af4 04309DE5 		.align	2
1010:SRC/RTOS/tasks.c **** 	}
 1152              	C0:
ARM GAS  C:\DOCUME~1\ZAQUAD~1\USTAWI~1\Temp/ccIVGP1b.s 			page 39


 1153 0af8 0300A0E1 		.ascii	"IDLE\000"
 1154 0afc 0CD08DE2 		.text
 1155 0b00 04E09DE4 		.align	2
 1156 0b04 1EFF2FE1 		.global	vTaskStartScheduler
 1157              		.type	vTaskStartScheduler, %function
 1158              	vTaskStartScheduler:
 1159              	.LFB12:
 1160 0b08 1C000000 		.loc 1 1023 0
 1161 0b0c 00000000 		@ Function supports interworking.
 1162 0b10 14000000 		@ args = 0, pretend = 0, frame = 4
 1163 0b14 34000000 		@ frame_needed = 0, uses_anonymous_args = 0
 1164 0b18 B4000000 		str	lr, [sp, #-4]!	@,
 1165              	.LCFI19:
 1166              		sub	sp, sp, #20	@,,
 1167              	.LCFI20:
 1168              		.loc 1 1027 0
 1169              		ldr	r2, .L93	@ D.3809,
 1170 0000 49444C45 		mov	r3, #0	@ tmp136,
 1170      00
 1171              		str	r3, [sp, #0]	@ tmp136,
 1172              		mov	r3, #0	@ tmp137,
 1173              		str	r3, [sp, #4]	@ tmp137,
 1174              		mov	r3, #0	@ tmp138,
 1175              		str	r3, [sp, #8]	@ tmp138,
 1176              		mov	r3, #0	@ tmp139,
1011:SRC/RTOS/tasks.c **** 
1012:SRC/RTOS/tasks.c **** #endif
1013:SRC/RTOS/tasks.c **** 
1014:SRC/RTOS/tasks.c **** 
1015:SRC/RTOS/tasks.c **** 
1016:SRC/RTOS/tasks.c **** 
1017:SRC/RTOS/tasks.c **** /*-----------------------------------------------------------
1018:SRC/RTOS/tasks.c ****  * PUBLIC SCHEDULER CONTROL documented in task.h
1019:SRC/RTOS/tasks.c ****  *----------------------------------------------------------*/
1020:SRC/RTOS/tasks.c **** 
1021:SRC/RTOS/tasks.c **** 
1022:SRC/RTOS/tasks.c **** void vTaskStartScheduler( void )
1023:SRC/RTOS/tasks.c **** {
 1177              	39,
 1178              		ldr	r0, .L93+4	@,
 1179              		mov	r1, r2	@, D.3809
 1180              		mov	r2, #130	@,
 1181 0b1c 04E02DE5 		mov	r3, #0	@,
 1182              		bl	xTaskGenericCreate	@
 1183 0b20 14D04DE2 		mov	r3, r0	@ xReturn.58,
 1184              		str	r3, [sp, #16]	@ xReturn.58, xReturn
1024:SRC/RTOS/tasks.c **** portBASE_TYPE xReturn;
1025:SRC/RTOS/tasks.c **** 
1026:SRC/RTOS/tasks.c **** 	/* Add the idle task at the lowest priority. */
1027:SRC/RTOS/tasks.c **** 	xReturn = xTaskCreate( prvIdleTask, ( signed char * ) "IDLE", tskIDLE_STACK_SIZE, ( void * ) NULL,
 1185              	1029 0
 1186 0b24 80209FE5 		ldr	r3, [sp, #16]	@ tmp140, xReturn
 1187 0b28 0030A0E3 		cmp	r3, #1	@ tmp140,
 1188 0b2c 00308DE5 		bne	.L92	@,
 1189 0b30 0030A0E3 		.loc 1 1039 0
 1190 0b34 04308DE5 	@ 1039 "SRC/RTOS/tasks.c" 1
 1191 0b38 0030A0E3 		STMDB	SP!, {R0}		
ARM GAS  C:\DOCUME~1\ZAQUAD~1\USTAWI~1\Temp/ccIVGP1b.s 			page 40


 1192 0b3c 08308DE5 		MRS	R0, CPSR		
 1193 0b40 0030A0E3 		ORR	R0, R0, #0xC0	
 1194 0b44 0C308DE5 		MSR	CPSR, R0		
 1195 0b48 60009FE5 		LDMIA	SP!, {R0}			
 1196 0b4c 0210A0E1 	@ 0 "" 2
 1197 0b50 8220A0E3 		.loc 1 1041 0
 1198 0b54 0030A0E3 		ldr	r2, .L93+8	@ tmp141,
 1199 0b58 FEFFFFEB 		mov	r3, #1	@ tmp142,
 1200 0b5c 0030A0E1 		str	r3, [r2, #0]	@ tmp142, xSchedulerRunning
 1201 0b60 10308DE5 		.loc 1 1042 0
1028:SRC/RTOS/tasks.c **** 
1029:SRC/RTOS/tasks.c **** 	if( xReturn == pdPASS )
 1202              	@ tmp143,
 1203 0b64 10309DE5 		mov	r3, #0	@ tmp144,
 1204 0b68 010053E3 		str	r3, [r2, #0]	@ tmp144, xTickCount
 1205 0b6c 0B00001A 		.loc 1 1051 0
1030:SRC/RTOS/tasks.c **** 	{
1031:SRC/RTOS/tasks.c **** 		/* Interrupts are turned off here, to ensure a tick does not occur
1032:SRC/RTOS/tasks.c **** 		before or during the call to xPortStartScheduler().  The stacks of
1033:SRC/RTOS/tasks.c **** 		the created tasks contain a status word with interrupts switched on
1034:SRC/RTOS/tasks.c **** 		so interrupts will automatically get re-enabled when the first task
1035:SRC/RTOS/tasks.c **** 		starts to run.
1036:SRC/RTOS/tasks.c **** 
1037:SRC/RTOS/tasks.c **** 		STEPPING THROUGH HERE USING A DEBUGGER CAN CAUSE BIG PROBLEMS IF THE
1038:SRC/RTOS/tasks.c **** 		DEBUGGER ALLOWS INTERRUPTS TO BE PROCESSED. */
1039:SRC/RTOS/tasks.c **** 		portDISABLE_INTERRUPTS();
 1206              	xPortStartScheduler	@
 1207              	.L92:
 1208 0b70 01002DE9 		.loc 1 1061 0
 1209 0b74 00000FE1 		add	sp, sp, #20	@,,
 1210 0b78 C00080E3 		ldr	lr, [sp], #4
 1211 0b7c 00F029E1 		bx	lr
 1212 0b80 0100BDE8 	.L94:
 1213              		.align	2
1040:SRC/RTOS/tasks.c **** 
1041:SRC/RTOS/tasks.c **** 		xSchedulerRunning = pdTRUE;
 1214              	word	.LC0
 1215 0b84 28209FE5 		.word	prvIdleTask
 1216 0b88 0130A0E3 		.word	xSchedulerRunning
 1217 0b8c 003082E5 		.word	xTickCount
1042:SRC/RTOS/tasks.c **** 		xTickCount = ( portTickType ) 0;
 1218              	12:
 1219 0b90 20209FE5 		.size	vTaskStartScheduler, .-vTaskStartScheduler
 1220 0b94 0030A0E3 		.align	2
 1221 0b98 003082E5 		.global	vTaskEndScheduler
1043:SRC/RTOS/tasks.c **** 
1044:SRC/RTOS/tasks.c **** 		/* If configGENERATE_RUN_TIME_STATS is defined then the following
1045:SRC/RTOS/tasks.c **** 		macro must be defined to configure the timer/counter used to generate
1046:SRC/RTOS/tasks.c **** 		the run time counter time base. */
1047:SRC/RTOS/tasks.c **** 		portCONFIGURE_TIMER_FOR_RUN_TIME_STATS();
1048:SRC/RTOS/tasks.c **** 
1049:SRC/RTOS/tasks.c **** 		/* Setting up the timer tick is hardware specific and thus in the
1050:SRC/RTOS/tasks.c **** 		portable interface. */
1051:SRC/RTOS/tasks.c **** 		if( xPortStartScheduler() )
 1222              	pe	vTaskEndScheduler, %function
 1223 0b9c FEFFFFEB 	vTaskEndScheduler:
 1224              	.LFB13:
ARM GAS  C:\DOCUME~1\ZAQUAD~1\USTAWI~1\Temp/ccIVGP1b.s 			page 41


1052:SRC/RTOS/tasks.c **** 		{
1053:SRC/RTOS/tasks.c **** 			/* Should not reach here as if the scheduler is running the
1054:SRC/RTOS/tasks.c **** 			function will not return. */
1055:SRC/RTOS/tasks.c **** 		}
1056:SRC/RTOS/tasks.c **** 		else
1057:SRC/RTOS/tasks.c **** 		{
1058:SRC/RTOS/tasks.c **** 			/* Should only reach here if a task calls xTaskEndScheduler(). */
1059:SRC/RTOS/tasks.c **** 		}
1060:SRC/RTOS/tasks.c **** 	}
1061:SRC/RTOS/tasks.c **** }
 1225              	oc 1 1065 0
 1226 0ba0 14D08DE2 		@ Function supports interworking.
 1227 0ba4 04E09DE4 		@ args = 0, pretend = 0, frame = 0
 1228 0ba8 1EFF2FE1 		@ frame_needed = 0, uses_anonymous_args = 0
 1229              		str	lr, [sp, #-4]!	@,
 1230              	.LCFI21:
 1231              		.loc 1 1069 0
 1232 0bac 00000000 	@ 1069 "SRC/RTOS/tasks.c" 1
 1233 0bb0 00000000 		STMDB	SP!, {R0}		
 1234 0bb4 18000000 		MRS	R0, CPSR		
 1235 0bb8 0C000000 		ORR	R0, R0, #0xC0	
 1236              		MSR	CPSR, R0		
 1237              		LDMIA	SP!, {R0}			
 1238              	@ 0 "" 2
 1239              		.loc 1 1070 0
 1240              		ldr	r2, .L97	@ tmp133,
 1241              		mov	r3, #0	@ tmp134,
 1242              		str	r3, [r2, #0]	@ tmp134, xSchedulerRunning
1062:SRC/RTOS/tasks.c **** /*-----------------------------------------------------------*/
1063:SRC/RTOS/tasks.c **** 
1064:SRC/RTOS/tasks.c **** void vTaskEndScheduler( void )
1065:SRC/RTOS/tasks.c **** {
 1243              		vPortEndScheduler	@
 1244              		.loc 1 1072 0
 1245              		ldr	lr, [sp], #4
 1246              		bx	lr
 1247 0bbc 04E02DE5 	.L98:
 1248              		.align	2
1066:SRC/RTOS/tasks.c **** 	/* Stop the scheduler interrupts and call the portable scheduler end
1067:SRC/RTOS/tasks.c **** 	routine so the original ISRs can be restored if necessary.  The port
1068:SRC/RTOS/tasks.c **** 	layer must ensure interrupts enable	bit is left in the correct state. */
1069:SRC/RTOS/tasks.c **** 	portDISABLE_INTERRUPTS();
 1249              		.word	xSchedulerRunning
 1250              	.LFE13:
 1251 0bc0 01002DE9 		.size	vTaskEndScheduler, .-vTaskEndScheduler
 1252 0bc4 00000FE1 		.align	2
 1253 0bc8 C00080E3 		.global	vTaskSuspendAll
 1254 0bcc 00F029E1 		.type	vTaskSuspendAll, %function
 1255 0bd0 0100BDE8 	vTaskSuspendAll:
 1256              	.LFB14:
1070:SRC/RTOS/tasks.c **** 	xSchedulerRunning = pdFALSE;
 1257              	1076 0
 1258 0bd4 10209FE5 		@ Function supports interworking.
 1259 0bd8 0030A0E3 		@ args = 0, pretend = 0, frame = 0
 1260 0bdc 003082E5 		@ frame_needed = 0, uses_anonymous_args = 0
1071:SRC/RTOS/tasks.c **** 	vPortEndScheduler();
 1261              	ink register save eliminated.
ARM GAS  C:\DOCUME~1\ZAQUAD~1\USTAWI~1\Temp/ccIVGP1b.s 			page 42


 1262 0be0 FEFFFFEB 		.loc 1 1079 0
1072:SRC/RTOS/tasks.c **** }
 1263              	dr	r3, .L101	@ tmp135,
 1264 0be4 04E09DE4 		ldr	r3, [r3, #0]	@ uxSchedulerSuspended.59, uxSchedulerSuspended
 1265 0be8 1EFF2FE1 		add	r2, r3, #1	@ uxSchedulerSuspended.60, uxSchedulerSuspended.59,
 1266              		ldr	r3, .L101	@ tmp136,
 1267              		str	r2, [r3, #0]	@ uxSchedulerSuspended.60, uxSchedulerSuspended
 1268              		.loc 1 1080 0
 1269 0bec 18000000 		bx	lr	@
 1270              	.L102:
 1271              		.align	2
 1272              	.L101:
 1273              		.word	uxSchedulerSuspended
 1274              	.LFE14:
 1275              		.size	vTaskSuspendAll, .-vTaskSuspendAll
 1276              		.align	2
1073:SRC/RTOS/tasks.c **** /*----------------------------------------------------------*/
1074:SRC/RTOS/tasks.c **** 
1075:SRC/RTOS/tasks.c **** void vTaskSuspendAll( void )
1076:SRC/RTOS/tasks.c **** {
 1277              	ResumeAll
 1278              		.type	xTaskResumeAll, %function
 1279              	xTaskResumeAll:
 1280              	.LFB15:
 1281              		.loc 1 1084 0
1077:SRC/RTOS/tasks.c **** 	/* A critical section is not required as the variable is of type
1078:SRC/RTOS/tasks.c **** 	portBASE_TYPE. */
1079:SRC/RTOS/tasks.c **** 	++uxSchedulerSuspended;
 1282              	nction supports interworking.
 1283 0bf0 10309FE5 		@ args = 0, pretend = 0, frame = 16
 1284 0bf4 003093E5 		@ frame_needed = 0, uses_anonymous_args = 0
 1285 0bf8 012083E2 		str	lr, [sp, #-4]!	@,
 1286 0bfc 04309FE5 	.LCFI22:
 1287 0c00 002083E5 		sub	sp, sp, #16	@,,
1080:SRC/RTOS/tasks.c **** }
 1288              	3:
 1289 0c04 1EFF2FE1 		.loc 1 1086 0
 1290              		mov	r3, #0	@ tmp161,
 1291              		str	r3, [sp, #8]	@ tmp161, xAlreadyYielded
 1292              		.loc 1 1093 0
 1293 0c08 1C000000 		bl	vPortEnterCritical	@
 1294              		.loc 1 1095 0
 1295              		ldr	r3, .L115	@ tmp162,
 1296              		ldr	r3, [r3, #0]	@ uxSchedulerSuspended.61, uxSchedulerSuspended
 1297              		sub	r2, r3, #1	@ uxSchedulerSuspended.62, uxSchedulerSuspended.61,
 1298              		ldr	r3, .L115	@ tmp163,
 1299              		str	r2, [r3, #0]	@ uxSchedulerSuspended.62, uxSchedulerSuspended
 1300              		.loc 1 1097 0
1081:SRC/RTOS/tasks.c **** /*----------------------------------------------------------*/
1082:SRC/RTOS/tasks.c **** 
1083:SRC/RTOS/tasks.c **** signed portBASE_TYPE xTaskResumeAll( void )
1084:SRC/RTOS/tasks.c **** {
 1301              	5	@ tmp164,
 1302              		ldr	r3, [r3, #0]	@ uxSchedulerSuspended.63, uxSchedulerSuspended
 1303              		cmp	r3, #0	@ uxSchedulerSuspended.63,
 1304              		bne	.L104	@,
 1305 0c0c 04E02DE5 		.loc 1 1099 0
ARM GAS  C:\DOCUME~1\ZAQUAD~1\USTAWI~1\Temp/ccIVGP1b.s 			page 43


 1306              		ldr	r3, .L115+4	@ tmp165,
 1307 0c10 10D04DE2 		ldr	r3, [r3, #0]	@ uxCurrentNumberOfTasks.64, uxCurrentNumberOfTasks
 1308              		cmp	r3, #0	@ uxCurrentNumberOfTasks.64,
1085:SRC/RTOS/tasks.c **** register tskTCB *pxTCB;
1086:SRC/RTOS/tasks.c **** signed portBASE_TYPE xAlreadyYielded = pdFALSE;
 1309              	04	@,
 1310 0c14 0030A0E3 	.LBB3:
 1311 0c18 08308DE5 		.loc 1 1101 0
1087:SRC/RTOS/tasks.c **** 
1088:SRC/RTOS/tasks.c **** 	/* It is possible that an ISR caused a task to be removed from an event
1089:SRC/RTOS/tasks.c **** 	list while the scheduler was suspended.  If this was the case then the
1090:SRC/RTOS/tasks.c **** 	removed task will have been added to the xPendingReadyList.  Once the
1091:SRC/RTOS/tasks.c **** 	scheduler has been resumed it is safe to move all the pending ready
1092:SRC/RTOS/tasks.c **** 	tasks from this list into their appropriate ready list. */
1093:SRC/RTOS/tasks.c **** 	portENTER_CRITICAL();
 1312              	v	r3, #0	@ tmp166,
 1313 0c1c FEFFFFEB 		str	r3, [sp, #12]	@ tmp166, xYieldRequired
1094:SRC/RTOS/tasks.c **** 	{
1095:SRC/RTOS/tasks.c **** 		--uxSchedulerSuspended;
 1314              		.L105	@
 1315 0c20 A4319FE5 	.L109:
 1316 0c24 003093E5 		.loc 1 1107 0
 1317 0c28 012043E2 		ldr	r1, [sp, #4]	@, pxTCB
 1318 0c2c 98319FE5 		add	r3, r1, #24	@ D.3838,,
 1319 0c30 002083E5 		mov	r0, r3	@, D.3838
1096:SRC/RTOS/tasks.c **** 
1097:SRC/RTOS/tasks.c **** 		if( uxSchedulerSuspended == ( unsigned portBASE_TYPE ) pdFALSE )
 1320              	istRemove	@
 1321 0c34 90319FE5 		.loc 1 1108 0
 1322 0c38 003093E5 		ldr	r2, [sp, #4]	@, pxTCB
 1323 0c3c 000053E3 		add	r3, r2, #4	@ D.3839,,
 1324 0c40 5B00001A 		mov	r0, r3	@, D.3839
1098:SRC/RTOS/tasks.c **** 		{
1099:SRC/RTOS/tasks.c **** 			if( uxCurrentNumberOfTasks > ( unsigned portBASE_TYPE ) 0 )
 1325              	ListRemove	@
 1326 0c44 84319FE5 		.loc 1 1109 0
 1327 0c48 003093E5 		ldr	r3, [sp, #4]	@, pxTCB
 1328 0c4c 000053E3 		ldr	r2, [r3, #44]	@ D.3840, <variable>.uxPriority
 1329 0c50 5700000A 		ldr	r3, .L115+8	@ tmp167,
 1330              		ldr	r3, [r3, #0]	@ uxTopReadyPriority.65, uxTopReadyPriority
1100:SRC/RTOS/tasks.c **** 			{
1101:SRC/RTOS/tasks.c **** 				portBASE_TYPE xYieldRequired = pdFALSE;
 1331              	2, r3	@ D.3840, uxTopReadyPriority.65
 1332 0c54 0030A0E3 		bls	.L106	@,
 1333 0c58 0C308DE5 		ldr	r1, [sp, #4]	@, pxTCB
 1334 0c5c 260000EA 		ldr	r2, [r1, #44]	@ uxTopReadyPriority.66, <variable>.uxPriority
 1335              		ldr	r3, .L115+8	@ tmp168,
1102:SRC/RTOS/tasks.c **** 
1103:SRC/RTOS/tasks.c **** 				/* Move any readied tasks from the pending list into the
1104:SRC/RTOS/tasks.c **** 				appropriate ready list. */
1105:SRC/RTOS/tasks.c **** 				while( ( pxTCB = ( tskTCB * ) listGET_OWNER_OF_HEAD_ENTRY(  ( ( xList * ) &xPendingReadyList ) 
1106:SRC/RTOS/tasks.c **** 				{
1107:SRC/RTOS/tasks.c **** 					vListRemove( &( pxTCB->xEventListItem ) );
 1336              	r2, [r3, #0]	@ uxTopReadyPriority.66, uxTopReadyPriority
 1337 0c60 04109DE5 	.L106:
 1338 0c64 183081E2 		ldr	r2, [sp, #4]	@, pxTCB
 1339 0c68 0300A0E1 		ldr	r3, [r2, #44]	@ D.3843, <variable>.uxPriority
ARM GAS  C:\DOCUME~1\ZAQUAD~1\USTAWI~1\Temp/ccIVGP1b.s 			page 44


 1340 0c6c FEFFFFEB 		mov	r2, r3, asl #2	@ tmp170, tmp169,
1108:SRC/RTOS/tasks.c **** 					vListRemove( &( pxTCB->xGenericListItem ) );
 1341              	r3, r2, asl #2	@ tmp171, tmp170,
 1342 0c70 04209DE5 		add	r2, r2, r3	@ D.3844, tmp170, tmp171
 1343 0c74 043082E2 		ldr	r3, .L115+12	@ tmp172,
 1344 0c78 0300A0E1 		add	r3, r2, r3	@ D.3845, D.3844, tmp172
 1345 0c7c FEFFFFEB 		ldr	r1, [sp, #4]	@, pxTCB
1109:SRC/RTOS/tasks.c **** 					prvAddTaskToReadyQueue( pxTCB );
 1346              	r2, r1, #4	@ D.3846,,
 1347 0c80 04309DE5 		mov	r0, r3	@, D.3845
 1348 0c84 2C2093E5 		mov	r1, r2	@, D.3846
 1349 0c88 44319FE5 		bl	vListInsertEnd	@
 1350 0c8c 003093E5 		.loc 1 1113 0
 1351 0c90 030052E1 		ldr	r3, [sp, #4]	@, pxTCB
 1352 0c94 0300009A 		ldr	r2, [r3, #44]	@ D.3847, <variable>.uxPriority
 1353 0c98 04109DE5 		ldr	r3, .L115+16	@ tmp173,
 1354 0c9c 2C2091E5 		ldr	r3, [r3, #0]	@ pxCurrentTCB.67, pxCurrentTCB
 1355 0ca0 2C319FE5 		ldr	r3, [r3, #44]	@ D.3849, <variable>.uxPriority
 1356 0ca4 002083E5 		cmp	r2, r3	@ D.3847, D.3849
 1357              		bcc	.L105	@,
 1358 0ca8 04209DE5 		.loc 1 1115 0
 1359 0cac 2C3092E5 		mov	r3, #1	@ tmp174,
 1360 0cb0 0321A0E1 		str	r3, [sp, #12]	@ tmp174, xYieldRequired
 1361 0cb4 0231A0E1 	.L105:
 1362 0cb8 032082E0 		.loc 1 1105 0
 1363 0cbc 14319FE5 		ldr	r3, .L115+20	@ tmp175,
 1364 0cc0 033082E0 		ldr	r3, [r3, #0]	@ D.3851, xPendingReadyList.uxNumberOfItems
 1365 0cc4 04109DE5 		cmp	r3, #0	@ D.3851,
 1366 0cc8 042081E2 		beq	.L107	@,
 1367 0ccc 0300A0E1 		ldr	r3, .L115+20	@ tmp176,
 1368 0cd0 0210A0E1 		ldr	r3, [r3, #12]	@ D.3852, xPendingReadyList.xListEnd.pxNext
 1369 0cd4 FEFFFFEB 		ldr	r3, [r3, #12]	@ D.3853, <variable>.pvOwner
1110:SRC/RTOS/tasks.c **** 
1111:SRC/RTOS/tasks.c **** 					/* If we have moved a task that has a priority higher than
1112:SRC/RTOS/tasks.c **** 					the current task then we should yield. */
1113:SRC/RTOS/tasks.c **** 					if( pxTCB->uxPriority >= pxCurrentTCB->uxPriority )
 1370              	53, iftmp.68
 1371 0cd8 04309DE5 		b	.L108	@
 1372 0cdc 2C2093E5 	.L107:
 1373 0ce0 F4309FE5 		mov	r1, #0	@,
 1374 0ce4 003093E5 		str	r1, [sp, #0]	@, iftmp.68
 1375 0ce8 2C3093E5 	.L108:
 1376 0cec 030052E1 		ldr	r2, [sp, #0]	@, iftmp.68
 1377 0cf0 0100003A 		str	r2, [sp, #4]	@, pxTCB
1114:SRC/RTOS/tasks.c **** 					{
1115:SRC/RTOS/tasks.c **** 						xYieldRequired = pdTRUE;
 1378              	 [sp, #4]	@, pxTCB
 1379 0cf4 0130A0E3 		cmp	r3, #0	@,
 1380 0cf8 0C308DE5 		bne	.L109	@,
 1381              		.loc 1 1122 0
 1382              		ldr	r3, .L115+24	@ tmp177,
 1383 0cfc DC309FE5 		ldr	r3, [r3, #0]	@ uxMissedTicks.69, uxMissedTicks
 1384 0d00 003093E5 		cmp	r3, #0	@ uxMissedTicks.69,
 1385 0d04 000053E3 		beq	.L110	@,
 1386 0d08 0400000A 		b	.L111	@
 1387 0d0c CC309FE5 	.L112:
 1388 0d10 0C3093E5 		.loc 1 1126 0
ARM GAS  C:\DOCUME~1\ZAQUAD~1\USTAWI~1\Temp/ccIVGP1b.s 			page 45


 1389 0d14 0C3093E5 		bl	vTaskIncrementTick	@
 1390 0d18 00308DE5 		.loc 1 1127 0
 1391 0d1c 010000EA 		ldr	r3, .L115+24	@ tmp178,
 1392              		ldr	r3, [r3, #0]	@ uxMissedTicks.70, uxMissedTicks
 1393 0d20 0010A0E3 		sub	r2, r3, #1	@ uxMissedTicks.71, uxMissedTicks.70,
 1394 0d24 00108DE5 		ldr	r3, .L115+24	@ tmp179,
 1395              		str	r2, [r3, #0]	@ uxMissedTicks.71, uxMissedTicks
 1396 0d28 00209DE5 	.L111:
 1397 0d2c 04208DE5 		.loc 1 1124 0
 1398 0d30 04309DE5 		ldr	r3, .L115+24	@ tmp180,
 1399 0d34 000053E3 		ldr	r3, [r3, #0]	@ uxMissedTicks.72, uxMissedTicks
 1400 0d38 C8FFFF1A 		cmp	r3, #0	@ uxMissedTicks.72,
1116:SRC/RTOS/tasks.c **** 					}
1117:SRC/RTOS/tasks.c **** 				}
1118:SRC/RTOS/tasks.c **** 
1119:SRC/RTOS/tasks.c **** 				/* If any ticks occurred while the scheduler was suspended then
1120:SRC/RTOS/tasks.c **** 				they should be processed now.  This ensures the tick count does not
1121:SRC/RTOS/tasks.c **** 				slip, and that any delayed tasks are resumed at the correct time. */
1122:SRC/RTOS/tasks.c **** 				if( uxMissedTicks > ( unsigned portBASE_TYPE ) 0 )
 1401              	135 0
 1402 0d3c A0309FE5 		mov	r3, #1	@ tmp181,
 1403 0d40 003093E5 		str	r3, [sp, #12]	@ tmp181, xYieldRequired
 1404 0d44 000053E3 	.L110:
 1405 0d48 0C00000A 		.loc 1 1140 0
 1406 0d4c 050000EA 		ldr	r3, [sp, #12]	@ tmp182, xYieldRequired
 1407              		cmp	r3, #1	@ tmp182,
1123:SRC/RTOS/tasks.c **** 				{
1124:SRC/RTOS/tasks.c **** 					while( uxMissedTicks > ( unsigned portBASE_TYPE ) 0 )
1125:SRC/RTOS/tasks.c **** 					{
1126:SRC/RTOS/tasks.c **** 						vTaskIncrementTick();
 1408              	113	@,
 1409 0d50 FEFFFFEB 		ldr	r3, .L115+28	@ tmp183,
1127:SRC/RTOS/tasks.c **** 						--uxMissedTicks;
 1410              	dr	r3, [r3, #0]	@ xMissedYield.73, xMissedYield
 1411 0d54 88309FE5 		cmp	r3, #1	@ xMissedYield.73,
 1412 0d58 003093E5 		bne	.L104	@,
 1413 0d5c 012043E2 	.L113:
 1414 0d60 7C309FE5 		.loc 1 1142 0
 1415 0d64 002083E5 		mov	r3, #1	@ tmp184,
 1416              		str	r3, [sp, #8]	@ tmp184, xAlreadyYielded
 1417              		.loc 1 1143 0
 1418 0d68 74309FE5 		ldr	r2, .L115+28	@ tmp185,
 1419 0d6c 003093E5 		mov	r3, #0	@ tmp186,
 1420 0d70 000053E3 		str	r3, [r2, #0]	@ tmp186, xMissedYield
 1421 0d74 F5FFFF1A 		.loc 1 1144 0
1128:SRC/RTOS/tasks.c **** 					}
1129:SRC/RTOS/tasks.c **** 
1130:SRC/RTOS/tasks.c **** 					/* As we have processed some ticks it is appropriate to yield
1131:SRC/RTOS/tasks.c **** 					to ensure the highest priority task that is ready to run is
1132:SRC/RTOS/tasks.c **** 					the task actually running. */
1133:SRC/RTOS/tasks.c **** 					#if configUSE_PREEMPTION == 1
1134:SRC/RTOS/tasks.c **** 					{
1135:SRC/RTOS/tasks.c **** 						xYieldRequired = pdTRUE;
 1422              	RTOS/tasks.c" 1
 1423 0d78 0130A0E3 		SWI 0
 1424 0d7c 0C308DE5 	@ 0 "" 2
 1425              	.L104:
ARM GAS  C:\DOCUME~1\ZAQUAD~1\USTAWI~1\Temp/ccIVGP1b.s 			page 46


1136:SRC/RTOS/tasks.c **** 					}
1137:SRC/RTOS/tasks.c **** 					#endif
1138:SRC/RTOS/tasks.c **** 				}
1139:SRC/RTOS/tasks.c **** 
1140:SRC/RTOS/tasks.c **** 				if( ( xYieldRequired == pdTRUE ) || ( xMissedYield == pdTRUE ) )
 1426              	3:
 1427 0d80 0C309DE5 		.loc 1 1149 0
 1428 0d84 010053E3 		bl	vPortExitCritical	@
 1429 0d88 0300000A 		.loc 1 1151 0
 1430 0d8c 54309FE5 		ldr	r3, [sp, #8]	@ D.3861, xAlreadyYielded
 1431 0d90 003093E5 		.loc 1 1152 0
 1432 0d94 010053E3 		mov	r0, r3	@, <result>
 1433 0d98 0500001A 		add	sp, sp, #16	@,,
 1434              		ldr	lr, [sp], #4
1141:SRC/RTOS/tasks.c **** 				{
1142:SRC/RTOS/tasks.c **** 					xAlreadyYielded = pdTRUE;
 1435              	116:
 1436 0d9c 0130A0E3 		.align	2
 1437 0da0 08308DE5 	.L115:
1143:SRC/RTOS/tasks.c **** 					xMissedYield = pdFALSE;
 1438              	ord	uxSchedulerSuspended
 1439 0da4 3C209FE5 		.word	uxCurrentNumberOfTasks
 1440 0da8 0030A0E3 		.word	uxTopReadyPriority
 1441 0dac 003082E5 		.word	pxReadyTasksLists
1144:SRC/RTOS/tasks.c **** 					portYIELD_WITHIN_API();
 1442              	rd	pxCurrentTCB
 1443              		.word	xPendingReadyList
 1444 0db0 000000EF 		.word	uxMissedTicks
 1445              		.word	xMissedYield
 1446              	.LFE15:
 1447              		.size	xTaskResumeAll, .-xTaskResumeAll
1145:SRC/RTOS/tasks.c **** 				}
1146:SRC/RTOS/tasks.c **** 			}
1147:SRC/RTOS/tasks.c **** 		}
1148:SRC/RTOS/tasks.c **** 	}
1149:SRC/RTOS/tasks.c **** 	portEXIT_CRITICAL();
 1448              	n	2
 1449 0db4 FEFFFFEB 		.global	xTaskGetTickCount
1150:SRC/RTOS/tasks.c **** 
1151:SRC/RTOS/tasks.c **** 	return xAlreadyYielded;
 1450              	type	xTaskGetTickCount, %function
 1451 0db8 08309DE5 	xTaskGetTickCount:
1152:SRC/RTOS/tasks.c **** }
 1452              	FB16:
 1453 0dbc 0300A0E1 		.loc 1 1166 0
 1454 0dc0 10D08DE2 		@ Function supports interworking.
 1455 0dc4 04E09DE4 		@ args = 0, pretend = 0, frame = 4
 1456 0dc8 1EFF2FE1 		@ frame_needed = 0, uses_anonymous_args = 0
 1457              		str	lr, [sp, #-4]!	@,
 1458              	.LCFI24:
 1459              		sub	sp, sp, #4	@,,
 1460 0dcc 1C000000 	.LCFI25:
 1461 0dd0 08000000 		.loc 1 1170 0
 1462 0dd4 14000000 		bl	vPortEnterCritical	@
 1463 0dd8 34000000 		.loc 1 1172 0
 1464 0ddc 00000000 		ldr	r3, .L119	@ tmp135,
 1465 0de0 B4000000 		ldr	r3, [r3, #0]	@ tmp136, xTickCount
ARM GAS  C:\DOCUME~1\ZAQUAD~1\USTAWI~1\Temp/ccIVGP1b.s 			page 47


 1466 0de4 20000000 		str	r3, [sp, #0]	@ tmp136, xTicks
 1467 0de8 24000000 		.loc 1 1174 0
 1468              		bl	vPortExitCritical	@
 1469              		.loc 1 1176 0
 1470              		ldr	r3, [sp, #0]	@ D.3881, xTicks
 1471              		.loc 1 1177 0
 1472              		mov	r0, r3	@, <result>
 1473              		add	sp, sp, #4	@,,
 1474              		ldr	lr, [sp], #4
1153:SRC/RTOS/tasks.c **** 
1154:SRC/RTOS/tasks.c **** 
1155:SRC/RTOS/tasks.c **** 
1156:SRC/RTOS/tasks.c **** 
1157:SRC/RTOS/tasks.c **** 
1158:SRC/RTOS/tasks.c **** 
1159:SRC/RTOS/tasks.c **** /*-----------------------------------------------------------
1160:SRC/RTOS/tasks.c ****  * PUBLIC TASK UTILITIES documented in task.h
1161:SRC/RTOS/tasks.c ****  *----------------------------------------------------------*/
1162:SRC/RTOS/tasks.c **** 
1163:SRC/RTOS/tasks.c **** 
1164:SRC/RTOS/tasks.c **** 
1165:SRC/RTOS/tasks.c **** portTickType xTaskGetTickCount( void )
1166:SRC/RTOS/tasks.c **** {
 1475              	
 1476              	.L119:
 1477              		.word	xTickCount
 1478              	.LFE16:
 1479 0dec 04E02DE5 		.size	xTaskGetTickCount, .-xTaskGetTickCount
 1480              		.align	2
 1481 0df0 04D04DE2 		.global	uxTaskGetNumberOfTasks
 1482              		.type	uxTaskGetNumberOfTasks, %function
1167:SRC/RTOS/tasks.c **** portTickType xTicks;
1168:SRC/RTOS/tasks.c **** 
1169:SRC/RTOS/tasks.c **** 	/* Critical section required if running on a 16 bit processor. */
1170:SRC/RTOS/tasks.c **** 	portENTER_CRITICAL();
 1483              	etNumberOfTasks:
 1484 0df4 FEFFFFEB 	.LFB17:
1171:SRC/RTOS/tasks.c **** 	{
1172:SRC/RTOS/tasks.c **** 		xTicks = xTickCount;
 1485              	loc 1 1181 0
 1486 0df8 1C309FE5 		@ Function supports interworking.
 1487 0dfc 003093E5 		@ args = 0, pretend = 0, frame = 0
 1488 0e00 00308DE5 		@ frame_needed = 0, uses_anonymous_args = 0
1173:SRC/RTOS/tasks.c **** 	}
1174:SRC/RTOS/tasks.c **** 	portEXIT_CRITICAL();
 1489              	ink register save eliminated.
 1490 0e04 FEFFFFEB 		.loc 1 1184 0
1175:SRC/RTOS/tasks.c **** 
1176:SRC/RTOS/tasks.c **** 	return xTicks;
 1491              	dr	r3, .L123	@ tmp135,
 1492 0e08 00309DE5 		ldr	r3, [r3, #0]	@ D.3886, uxCurrentNumberOfTasks
1177:SRC/RTOS/tasks.c **** }
 1493              	loc 1 1185 0
 1494 0e0c 0300A0E1 		mov	r0, r3	@, <result>
 1495 0e10 04D08DE2 		bx	lr	@
 1496 0e14 04E09DE4 	.L124:
 1497 0e18 1EFF2FE1 		.align	2
ARM GAS  C:\DOCUME~1\ZAQUAD~1\USTAWI~1\Temp/ccIVGP1b.s 			page 48


 1498              	.L123:
 1499              		.word	uxCurrentNumberOfTasks
 1500              	.LFE17:
 1501 0e1c 0C000000 		.size	uxTaskGetNumberOfTasks, .-uxTaskGetNumberOfTasks
 1502              		.section	.rodata
 1503              		.align	2
 1504              	.LC1:
 1505              		.ascii	"\015\012\000"
 1506              		.text
 1507              		.align	2
 1508              		.global	vTaskList
1178:SRC/RTOS/tasks.c **** /*-----------------------------------------------------------*/
1179:SRC/RTOS/tasks.c **** 
1180:SRC/RTOS/tasks.c **** unsigned portBASE_TYPE uxTaskGetNumberOfTasks( void )
1181:SRC/RTOS/tasks.c **** {
 1509              	, %function
 1510              	vTaskList:
 1511              	.LFB18:
 1512              		.loc 1 1191 0
 1513              		@ Function supports interworking.
1182:SRC/RTOS/tasks.c **** 	/* A critical section is not required because the variables are of type
1183:SRC/RTOS/tasks.c **** 	portBASE_TYPE. */
1184:SRC/RTOS/tasks.c **** 	return uxCurrentNumberOfTasks;
 1514              	gs = 0, pretend = 0, frame = 8
 1515 0e20 08309FE5 		@ frame_needed = 0, uses_anonymous_args = 0
 1516 0e24 003093E5 		stmfd	sp!, {r4, lr}	@,
1185:SRC/RTOS/tasks.c **** }
 1517              	FI26:
 1518 0e28 0300A0E1 		sub	sp, sp, #8	@,,
 1519 0e2c 1EFF2FE1 	.LCFI27:
 1520              		str	r0, [sp, #0]	@ pcWriteBuffer, pcWriteBuffer
 1521              		.loc 1 1197 0
 1522              		bl	vTaskSuspendAll	@
 1523 0e30 08000000 		.loc 1 1202 0
 1524              		ldr	r2, [sp, #0]	@ tmp148, pcWriteBuffer
 1525              		mov	r3, #0	@ tmp149,
 1526              		strb	r3, [r2, #0]	@ tmp150,
 1527 0005 000000   		.loc 1 1203 0
 1528              		ldr	r4, [sp, #0]	@ pcWriteBuffer.74, pcWriteBuffer
 1529 0008 0D0A00   		mov	r0, r4	@, pcWriteBuffer.74
 1530              		bl	strlen	@
 1531              		mov	r3, r0	@ tmp151,
 1532              		add	r3, r4, r3	@ tmp152, pcWriteBuffer.74, tmp151
 1533              		mov	r0, r3	@, D.3919
 1534              		ldr	r1, .L133	@,
 1535              		mov	r2, #3	@,
1186:SRC/RTOS/tasks.c **** /*-----------------------------------------------------------*/
1187:SRC/RTOS/tasks.c **** 
1188:SRC/RTOS/tasks.c **** #if ( configUSE_TRACE_FACILITY == 1 )
1189:SRC/RTOS/tasks.c **** 
1190:SRC/RTOS/tasks.c **** 	void vTaskList( signed char *pcWriteBuffer )
1191:SRC/RTOS/tasks.c **** 	{
 1536              	1 1205 0
 1537              		ldr	r3, .L133+4	@ tmp154,
 1538              		ldr	r3, [r3, #0]	@ uxTopUsedPriority.75, uxTopUsedPriority
 1539              		add	r3, r3, #1	@ tmp155, uxTopUsedPriority.75,
 1540 0e34 10402DE9 		str	r3, [sp, #4]	@ tmp155, uxQueue
ARM GAS  C:\DOCUME~1\ZAQUAD~1\USTAWI~1\Temp/ccIVGP1b.s 			page 49


 1541              	.L127:
 1542 0e38 08D04DE2 		.loc 1 1209 0
 1543              		ldr	r3, [sp, #4]	@ tmp156, uxQueue
 1544 0e3c 00008DE5 		sub	r3, r3, #1	@ tmp157, tmp156,
1192:SRC/RTOS/tasks.c **** 	unsigned portBASE_TYPE uxQueue;
1193:SRC/RTOS/tasks.c **** 
1194:SRC/RTOS/tasks.c **** 		/* This is a VERY costly function that should be used for debug only.
1195:SRC/RTOS/tasks.c **** 		It leaves interrupts disabled for a LONG time. */
1196:SRC/RTOS/tasks.c **** 
1197:SRC/RTOS/tasks.c **** 		vTaskSuspendAll();
 1545              	[sp, #4]	@ tmp157, uxQueue
 1546 0e40 FEFFFFEB 		.loc 1 1211 0
1198:SRC/RTOS/tasks.c **** 		{
1199:SRC/RTOS/tasks.c **** 			/* Run through all the lists that could potentially contain a TCB and
1200:SRC/RTOS/tasks.c **** 			report the task name, state and stack high water mark. */
1201:SRC/RTOS/tasks.c **** 
1202:SRC/RTOS/tasks.c **** 			pcWriteBuffer[ 0 ] = ( signed char ) 0x00;
 1547              	dr	r3, [sp, #4]	@ tmp158, uxQueue
 1548 0e44 00209DE5 		mov	r2, r3, asl #2	@ tmp160, tmp159,
 1549 0e48 0030A0E3 		mov	r3, r2, asl #2	@ tmp161, tmp160,
 1550 0e4c 0030C2E5 		add	r2, r2, r3	@ D.3896, tmp160, tmp161
1203:SRC/RTOS/tasks.c **** 			strcat( ( char * ) pcWriteBuffer, ( const char * ) "\r\n" );
 1551              		r3, .L133+8	@ tmp162,
 1552 0e50 00409DE5 		add	r3, r2, r3	@ D.3897, D.3896, tmp162
 1553 0e54 0400A0E1 		ldr	r3, [r3, #0]	@ D.3898, <variable>.uxNumberOfItems
 1554 0e58 FEFFFFEB 		cmp	r3, #0	@ D.3898,
 1555 0e5c 0030A0E1 		beq	.L126	@,
 1556 0e60 033084E0 		.loc 1 1213 0
 1557 0e64 0300A0E1 		ldr	r3, [sp, #4]	@ tmp163, uxQueue
 1558 0e68 20119FE5 		mov	r2, r3, asl #2	@ tmp165, tmp164,
 1559 0e6c 0320A0E3 		mov	r3, r2, asl #2	@ tmp166, tmp165,
 1560 0e70 FEFFFFEB 		add	r2, r2, r3	@ D.3899, tmp165, tmp166
1204:SRC/RTOS/tasks.c **** 
1205:SRC/RTOS/tasks.c **** 			uxQueue = uxTopUsedPriority + 1;
 1561              	L133+8	@ tmp167,
 1562 0e74 18319FE5 		add	r3, r2, r3	@ D.3900, D.3899, tmp167
 1563 0e78 003093E5 		ldr	r0, [sp, #0]	@, pcWriteBuffer
 1564 0e7c 013083E2 		mov	r1, r3	@, D.3900
 1565 0e80 04308DE5 		mov	r2, #82	@,
 1566              		bl	prvListTaskWithinSingleList	@
1206:SRC/RTOS/tasks.c **** 
1207:SRC/RTOS/tasks.c **** 			do
1208:SRC/RTOS/tasks.c **** 			{
1209:SRC/RTOS/tasks.c **** 				uxQueue--;
 1567              	
 1568 0e84 04309DE5 		.loc 1 1215 0
 1569 0e88 013043E2 		ldr	r3, [sp, #4]	@ tmp168, uxQueue
 1570 0e8c 04308DE5 		cmp	r3, #0	@ tmp168,
1210:SRC/RTOS/tasks.c **** 
1211:SRC/RTOS/tasks.c **** 				if( !listLIST_IS_EMPTY( &( pxReadyTasksLists[ uxQueue ] ) ) )
 1571              	e	.L127	@,
 1572 0e90 04309DE5 		.loc 1 1217 0
 1573 0e94 0321A0E1 		ldr	r3, .L133+12	@ tmp169,
 1574 0e98 0231A0E1 		ldr	r3, [r3, #0]	@ pxDelayedTaskList.76, pxDelayedTaskList
 1575 0e9c 032082E0 		ldr	r3, [r3, #0]	@ D.3902, <variable>.uxNumberOfItems
 1576 0ea0 F0309FE5 		cmp	r3, #0	@ D.3902,
 1577 0ea4 033082E0 		beq	.L128	@,
ARM GAS  C:\DOCUME~1\ZAQUAD~1\USTAWI~1\Temp/ccIVGP1b.s 			page 50


 1578 0ea8 003093E5 		.loc 1 1219 0
 1579 0eac 000053E3 		ldr	r3, .L133+12	@ tmp170,
 1580 0eb0 0900000A 		ldr	r3, [r3, #0]	@ pxDelayedTaskList.77, pxDelayedTaskList
1212:SRC/RTOS/tasks.c **** 				{
1213:SRC/RTOS/tasks.c **** 					prvListTaskWithinSingleList( pcWriteBuffer, ( xList * ) &( pxReadyTasksLists[ uxQueue ] ), tsk
 1581              	sp, #0]	@, pcWriteBuffer
 1582 0eb4 04309DE5 		mov	r1, r3	@, pxDelayedTaskList.77
 1583 0eb8 0321A0E1 		mov	r2, #66	@,
 1584 0ebc 0231A0E1 		bl	prvListTaskWithinSingleList	@
 1585 0ec0 032082E0 	.L128:
 1586 0ec4 CC309FE5 		.loc 1 1222 0
 1587 0ec8 033082E0 		ldr	r3, .L133+16	@ tmp171,
 1588 0ecc 00009DE5 		ldr	r3, [r3, #0]	@ pxOverflowDelayedTaskList.78, pxOverflowDelayedTaskList
 1589 0ed0 0310A0E1 		ldr	r3, [r3, #0]	@ D.3905, <variable>.uxNumberOfItems
 1590 0ed4 5220A0E3 		cmp	r3, #0	@ D.3905,
 1591 0ed8 ED0200EB 		beq	.L129	@,
 1592              		.loc 1 1224 0
1214:SRC/RTOS/tasks.c **** 				}
1215:SRC/RTOS/tasks.c **** 			}while( uxQueue > ( unsigned short ) tskIDLE_PRIORITY );
 1593              	33+16	@ tmp172,
 1594 0edc 04309DE5 		ldr	r3, [r3, #0]	@ pxOverflowDelayedTaskList.79, pxOverflowDelayedTaskList
 1595 0ee0 000053E3 		ldr	r0, [sp, #0]	@, pcWriteBuffer
 1596 0ee4 E6FFFF1A 		mov	r1, r3	@, pxOverflowDelayedTaskList.79
1216:SRC/RTOS/tasks.c **** 
1217:SRC/RTOS/tasks.c **** 			if( !listLIST_IS_EMPTY( pxDelayedTaskList ) )
 1597              		r2, #66	@,
 1598 0ee8 AC309FE5 		bl	prvListTaskWithinSingleList	@
 1599 0eec 003093E5 	.L129:
 1600 0ef0 003093E5 		.loc 1 1229 0
 1601 0ef4 000053E3 		ldr	r3, .L133+20	@ tmp173,
 1602 0ef8 0500000A 		ldr	r3, [r3, #0]	@ D.3907, xTasksWaitingTermination.uxNumberOfItems
1218:SRC/RTOS/tasks.c **** 			{
1219:SRC/RTOS/tasks.c **** 				prvListTaskWithinSingleList( pcWriteBuffer, ( xList * ) pxDelayedTaskList, tskBLOCKED_CHAR );
 1603              	3, #0	@ D.3907,
 1604 0efc 98309FE5 		beq	.L130	@,
 1605 0f00 003093E5 		.loc 1 1231 0
 1606 0f04 00009DE5 		ldr	r0, [sp, #0]	@, pcWriteBuffer
 1607 0f08 0310A0E1 		ldr	r1, .L133+20	@,
 1608 0f0c 4220A0E3 		mov	r2, #68	@,
 1609 0f10 DF0200EB 		bl	prvListTaskWithinSingleList	@
 1610              	.L130:
1220:SRC/RTOS/tasks.c **** 			}
1221:SRC/RTOS/tasks.c **** 
1222:SRC/RTOS/tasks.c **** 			if( !listLIST_IS_EMPTY( pxOverflowDelayedTaskList ) )
 1611              	1238 0
 1612 0f14 84309FE5 		ldr	r3, .L133+24	@ tmp174,
 1613 0f18 003093E5 		ldr	r3, [r3, #0]	@ D.3908, xSuspendedTaskList.uxNumberOfItems
 1614 0f1c 003093E5 		cmp	r3, #0	@ D.3908,
 1615 0f20 000053E3 		beq	.L131	@,
 1616 0f24 0500000A 		.loc 1 1240 0
1223:SRC/RTOS/tasks.c **** 			{
1224:SRC/RTOS/tasks.c **** 				prvListTaskWithinSingleList( pcWriteBuffer, ( xList * ) pxOverflowDelayedTaskList, tskBLOCKED_C
 1617              	0, [sp, #0]	@, pcWriteBuffer
 1618 0f28 70309FE5 		ldr	r1, .L133+24	@,
 1619 0f2c 003093E5 		mov	r2, #83	@,
 1620 0f30 00009DE5 		bl	prvListTaskWithinSingleList	@
 1621 0f34 0310A0E1 	.L131:
ARM GAS  C:\DOCUME~1\ZAQUAD~1\USTAWI~1\Temp/ccIVGP1b.s 			page 51


 1622 0f38 4220A0E3 		.loc 1 1245 0
 1623 0f3c D40200EB 		bl	xTaskResumeAll	@
 1624              		.loc 1 1246 0
1225:SRC/RTOS/tasks.c **** 			}
1226:SRC/RTOS/tasks.c **** 
1227:SRC/RTOS/tasks.c **** 			#if( INCLUDE_vTaskDelete == 1 )
1228:SRC/RTOS/tasks.c **** 			{
1229:SRC/RTOS/tasks.c **** 				if( !listLIST_IS_EMPTY( &xTasksWaitingTermination ) )
 1625              	 sp, #8	@,,
 1626 0f40 5C309FE5 		ldmfd	sp!, {r4, lr}
 1627 0f44 003093E5 		bx	lr
 1628 0f48 000053E3 	.L134:
 1629 0f4c 0300000A 		.align	2
1230:SRC/RTOS/tasks.c **** 				{
1231:SRC/RTOS/tasks.c **** 					prvListTaskWithinSingleList( pcWriteBuffer, ( xList * ) &xTasksWaitingTermination, tskDELETED_
 1630              	:
 1631 0f50 00009DE5 		.word	.LC1
 1632 0f54 48109FE5 		.word	uxTopUsedPriority
 1633 0f58 4420A0E3 		.word	pxReadyTasksLists
 1634 0f5c CC0200EB 		.word	pxDelayedTaskList
 1635              		.word	pxOverflowDelayedTaskList
1232:SRC/RTOS/tasks.c **** 				}
1233:SRC/RTOS/tasks.c **** 			}
1234:SRC/RTOS/tasks.c **** 			#endif
1235:SRC/RTOS/tasks.c **** 
1236:SRC/RTOS/tasks.c **** 			#if ( INCLUDE_vTaskSuspend == 1 )
1237:SRC/RTOS/tasks.c **** 			{
1238:SRC/RTOS/tasks.c **** 				if( !listLIST_IS_EMPTY( &xSuspendedTaskList ) )
 1636              		xTasksWaitingTermination
 1637 0f60 40309FE5 		.word	xSuspendedTaskList
 1638 0f64 003093E5 	.LFE18:
 1639 0f68 000053E3 		.size	vTaskList, .-vTaskList
 1640 0f6c 0300000A 		.align	2
1239:SRC/RTOS/tasks.c **** 				{
1240:SRC/RTOS/tasks.c **** 					prvListTaskWithinSingleList( pcWriteBuffer, ( xList * ) &xSuspendedTaskList, tskSUSPENDED_CHAR
 1641              	bal	vTaskStartTrace
 1642 0f70 00009DE5 		.type	vTaskStartTrace, %function
 1643 0f74 2C109FE5 	vTaskStartTrace:
 1644 0f78 5320A0E3 	.LFB19:
 1645 0f7c C40200EB 		.loc 1 1319 0
 1646              		@ Function supports interworking.
1241:SRC/RTOS/tasks.c **** 				}
1242:SRC/RTOS/tasks.c **** 			}
1243:SRC/RTOS/tasks.c **** 			#endif
1244:SRC/RTOS/tasks.c **** 		}
1245:SRC/RTOS/tasks.c **** 		xTaskResumeAll();
 1647              	s = 0, pretend = 0, frame = 8
 1648 0f80 FEFFFFEB 		@ frame_needed = 0, uses_anonymous_args = 0
1246:SRC/RTOS/tasks.c **** 	}
 1649              	tr	lr, [sp, #-4]!	@,
 1650 0f84 08D08DE2 	.LCFI28:
 1651 0f88 1040BDE8 		sub	sp, sp, #8	@,,
 1652 0f8c 1EFF2FE1 	.LCFI29:
 1653              		str	r0, [sp, #4]	@ pcBuffer, pcBuffer
 1654              		str	r1, [sp, #0]	@ ulBufferSize, ulBufferSize
 1655              		.loc 1 1320 0
 1656 0f90 08000000 		bl	vPortEnterCritical	@
ARM GAS  C:\DOCUME~1\ZAQUAD~1\USTAWI~1\Temp/ccIVGP1b.s 			page 52


 1657 0f94 10000000 		.loc 1 1322 0
 1658 0f98 34000000 		ldr	r2, [sp, #4]	@ pcBuffer.80, pcBuffer
 1659 0f9c AC000000 		ldr	r3, .L137	@ tmp136,
 1660 0fa0 B0000000 		str	r2, [r3, #0]	@ pcBuffer.80, pcTraceBuffer
 1661 0fa4 C8000000 		.loc 1 1323 0
 1662 0fa8 DC000000 		ldr	r2, .L137+4	@ tmp137,
 1663              		ldr	r3, [sp, #4]	@ tmp138, pcBuffer
 1664              		str	r3, [r2, #0]	@ tmp138, pcTraceBufferStart
 1665              		.loc 1 1324 0
 1666              		ldr	r3, [sp, #0]	@ tmp139, ulBufferSize
 1667              		sub	r2, r3, #8	@ D.3925, tmp139,
 1668              		ldr	r3, [sp, #4]	@ tmp140, pcBuffer
 1669              		add	r2, r3, r2	@ pcTraceBufferEnd.81, tmp140, D.3925
1247:SRC/RTOS/tasks.c **** 
1248:SRC/RTOS/tasks.c **** #endif
1249:SRC/RTOS/tasks.c **** /*----------------------------------------------------------*/
1250:SRC/RTOS/tasks.c **** 
1251:SRC/RTOS/tasks.c **** #if ( configGENERATE_RUN_TIME_STATS == 1 )
1252:SRC/RTOS/tasks.c **** 
1253:SRC/RTOS/tasks.c **** 	void vTaskGetRunTimeStats( signed char *pcWriteBuffer )
1254:SRC/RTOS/tasks.c **** 	{
1255:SRC/RTOS/tasks.c **** 	unsigned portBASE_TYPE uxQueue;
1256:SRC/RTOS/tasks.c **** 	unsigned long ulTotalRunTime = portGET_RUN_TIME_COUNTER_VALUE();
1257:SRC/RTOS/tasks.c **** 
1258:SRC/RTOS/tasks.c **** 		/* This is a VERY costly function that should be used for debug only.
1259:SRC/RTOS/tasks.c **** 		It leaves interrupts disabled for a LONG time. */
1260:SRC/RTOS/tasks.c **** 
1261:SRC/RTOS/tasks.c **** 		vTaskSuspendAll();
1262:SRC/RTOS/tasks.c **** 		{
1263:SRC/RTOS/tasks.c **** 			/* Run through all the lists that could potentially contain a TCB,
1264:SRC/RTOS/tasks.c **** 			generating a table of run timer percentages in the provided
1265:SRC/RTOS/tasks.c **** 			buffer. */
1266:SRC/RTOS/tasks.c **** 
1267:SRC/RTOS/tasks.c **** 			pcWriteBuffer[ 0 ] = ( signed char ) 0x00;
1268:SRC/RTOS/tasks.c **** 			strcat( ( char * ) pcWriteBuffer, ( const char * ) "\r\n" );
1269:SRC/RTOS/tasks.c **** 
1270:SRC/RTOS/tasks.c **** 			uxQueue = uxTopUsedPriority + 1;
1271:SRC/RTOS/tasks.c **** 
1272:SRC/RTOS/tasks.c **** 			do
1273:SRC/RTOS/tasks.c **** 			{
1274:SRC/RTOS/tasks.c **** 				uxQueue--;
1275:SRC/RTOS/tasks.c **** 
1276:SRC/RTOS/tasks.c **** 				if( !listLIST_IS_EMPTY( &( pxReadyTasksLists[ uxQueue ] ) ) )
1277:SRC/RTOS/tasks.c **** 				{
1278:SRC/RTOS/tasks.c **** 					prvGenerateRunTimeStatsForTasksInList( pcWriteBuffer, ( xList * ) &( pxReadyTasksLists[ uxQueu
1279:SRC/RTOS/tasks.c **** 				}
1280:SRC/RTOS/tasks.c **** 			}while( uxQueue > ( unsigned short ) tskIDLE_PRIORITY );
1281:SRC/RTOS/tasks.c **** 
1282:SRC/RTOS/tasks.c **** 			if( !listLIST_IS_EMPTY( pxDelayedTaskList ) )
1283:SRC/RTOS/tasks.c **** 			{
1284:SRC/RTOS/tasks.c **** 				prvGenerateRunTimeStatsForTasksInList( pcWriteBuffer, ( xList * ) pxDelayedTaskList, ulTotalRun
1285:SRC/RTOS/tasks.c **** 			}
1286:SRC/RTOS/tasks.c **** 
1287:SRC/RTOS/tasks.c **** 			if( !listLIST_IS_EMPTY( pxOverflowDelayedTaskList ) )
1288:SRC/RTOS/tasks.c **** 			{
1289:SRC/RTOS/tasks.c **** 				prvGenerateRunTimeStatsForTasksInList( pcWriteBuffer, ( xList * ) pxOverflowDelayedTaskList, ul
1290:SRC/RTOS/tasks.c **** 			}
ARM GAS  C:\DOCUME~1\ZAQUAD~1\USTAWI~1\Temp/ccIVGP1b.s 			page 53


1291:SRC/RTOS/tasks.c **** 
1292:SRC/RTOS/tasks.c **** 			#if ( INCLUDE_vTaskDelete == 1 )
1293:SRC/RTOS/tasks.c **** 			{
1294:SRC/RTOS/tasks.c **** 				if( !listLIST_IS_EMPTY( &xTasksWaitingTermination ) )
1295:SRC/RTOS/tasks.c **** 				{
1296:SRC/RTOS/tasks.c **** 					prvGenerateRunTimeStatsForTasksInList( pcWriteBuffer, ( xList * ) &xTasksWaitingTermination, u
1297:SRC/RTOS/tasks.c **** 				}
1298:SRC/RTOS/tasks.c **** 			}
1299:SRC/RTOS/tasks.c **** 			#endif
1300:SRC/RTOS/tasks.c **** 
1301:SRC/RTOS/tasks.c **** 			#if ( INCLUDE_vTaskSuspend == 1 )
1302:SRC/RTOS/tasks.c **** 			{
1303:SRC/RTOS/tasks.c **** 				if( !listLIST_IS_EMPTY( &xSuspendedTaskList ) )
1304:SRC/RTOS/tasks.c **** 				{
1305:SRC/RTOS/tasks.c **** 					prvGenerateRunTimeStatsForTasksInList( pcWriteBuffer, ( xList * ) &xSuspendedTaskList, ulTotal
1306:SRC/RTOS/tasks.c **** 				}
1307:SRC/RTOS/tasks.c **** 			}
1308:SRC/RTOS/tasks.c **** 			#endif
1309:SRC/RTOS/tasks.c **** 		}
1310:SRC/RTOS/tasks.c **** 		xTaskResumeAll();
1311:SRC/RTOS/tasks.c **** 	}
1312:SRC/RTOS/tasks.c **** 
1313:SRC/RTOS/tasks.c **** #endif
1314:SRC/RTOS/tasks.c **** /*----------------------------------------------------------*/
1315:SRC/RTOS/tasks.c **** 
1316:SRC/RTOS/tasks.c **** #if ( configUSE_TRACE_FACILITY == 1 )
1317:SRC/RTOS/tasks.c **** 
1318:SRC/RTOS/tasks.c **** 	void vTaskStartTrace( signed char * pcBuffer, unsigned long ulBufferSize )
1319:SRC/RTOS/tasks.c **** 	{
 1670              	p141,
 1671              		str	r2, [r3, #0]	@ pcTraceBufferEnd.81, pcTraceBufferEnd
 1672              		.loc 1 1325 0
 1673              		ldr	r2, .L137+12	@ tmp142,
 1674 0fac 04E02DE5 		mov	r3, #1	@ tmp143,
 1675              		str	r3, [r2, #0]	@ tmp143, xTracing
 1676 0fb0 08D04DE2 		.loc 1 1327 0
 1677              		bl	vPortExitCritical	@
 1678 0fb4 04008DE5 		.loc 1 1328 0
 1679 0fb8 00108DE5 		add	sp, sp, #8	@,,
1320:SRC/RTOS/tasks.c **** 		portENTER_CRITICAL();
 1680              	sp], #4
 1681 0fbc FEFFFFEB 		bx	lr
1321:SRC/RTOS/tasks.c **** 		{
1322:SRC/RTOS/tasks.c **** 			pcTraceBuffer = ( signed char * )pcBuffer;
 1682              	138:
 1683 0fc0 04209DE5 		.align	2
 1684 0fc4 40309FE5 	.L137:
 1685 0fc8 002083E5 		.word	pcTraceBuffer
1323:SRC/RTOS/tasks.c **** 			pcTraceBufferStart = pcBuffer;
 1686              	rd	pcTraceBufferStart
 1687 0fcc 3C209FE5 		.word	pcTraceBufferEnd
 1688 0fd0 04309DE5 		.word	xTracing
 1689 0fd4 003082E5 	.LFE19:
1324:SRC/RTOS/tasks.c **** 			pcTraceBufferEnd = pcBuffer + ( ulBufferSize - tskSIZE_OF_EACH_TRACE_LINE );
 1690              	ze	vTaskStartTrace, .-vTaskStartTrace
 1691 0fd8 00309DE5 		.align	2
 1692 0fdc 082043E2 		.global	ulTaskEndTrace
ARM GAS  C:\DOCUME~1\ZAQUAD~1\USTAWI~1\Temp/ccIVGP1b.s 			page 54


 1693 0fe0 04309DE5 		.type	ulTaskEndTrace, %function
 1694 0fe4 022083E0 	ulTaskEndTrace:
 1695 0fe8 24309FE5 	.LFB20:
 1696 0fec 002083E5 		.loc 1 1336 0
1325:SRC/RTOS/tasks.c **** 			xTracing = pdTRUE;
 1697              	tion supports interworking.
 1698 0ff0 20209FE5 		@ args = 0, pretend = 0, frame = 4
 1699 0ff4 0130A0E3 		@ frame_needed = 0, uses_anonymous_args = 0
 1700 0ff8 003082E5 		str	lr, [sp, #-4]!	@,
1326:SRC/RTOS/tasks.c **** 		}
1327:SRC/RTOS/tasks.c **** 		portEXIT_CRITICAL();
 1701              	I30:
 1702 0ffc FEFFFFEB 		sub	sp, sp, #4	@,,
1328:SRC/RTOS/tasks.c **** 	}
 1703              	CFI31:
 1704 1000 08D08DE2 		.loc 1 1339 0
 1705 1004 04E09DE4 		bl	vPortEnterCritical	@
 1706 1008 1EFF2FE1 		.loc 1 1340 0
 1707              		ldr	r2, .L141	@ tmp140,
 1708              		mov	r3, #0	@ tmp141,
 1709              		str	r3, [r2, #0]	@ tmp141, xTracing
 1710 100c F0000000 		.loc 1 1341 0
 1711 1010 F4000000 		bl	vPortExitCritical	@
 1712 1014 F8000000 		.loc 1 1343 0
 1713 1018 30000000 		ldr	r3, .L141+4	@ tmp142,
 1714              		ldr	r3, [r3, #0]	@ pcTraceBuffer.82, pcTraceBuffer
 1715              		mov	r2, r3	@ pcTraceBuffer.83, pcTraceBuffer.82
 1716              		ldr	r3, .L141+8	@ tmp143,
 1717              		ldr	r3, [r3, #0]	@ pcTraceBufferStart.84, pcTraceBufferStart
 1718              		rsb	r3, r3, r2	@ D.3935, pcTraceBufferStart.85, pcTraceBuffer.83
 1719              		str	r3, [sp, #0]	@ D.3935, ulBufferLength
 1720              		.loc 1 1345 0
1329:SRC/RTOS/tasks.c **** 
1330:SRC/RTOS/tasks.c **** #endif
1331:SRC/RTOS/tasks.c **** /*----------------------------------------------------------*/
1332:SRC/RTOS/tasks.c **** 
1333:SRC/RTOS/tasks.c **** #if ( configUSE_TRACE_FACILITY == 1 )
1334:SRC/RTOS/tasks.c **** 
1335:SRC/RTOS/tasks.c **** 	unsigned long ulTaskEndTrace( void )
1336:SRC/RTOS/tasks.c **** 	{
 1721              	@ D.3936, ulBufferLength
 1722              		.loc 1 1346 0
 1723              		mov	r0, r3	@, <result>
 1724              		add	sp, sp, #4	@,,
 1725 101c 04E02DE5 		ldr	lr, [sp], #4
 1726              		bx	lr
 1727 1020 04D04DE2 	.L142:
 1728              		.align	2
1337:SRC/RTOS/tasks.c **** 	unsigned long ulBufferLength;
1338:SRC/RTOS/tasks.c **** 
1339:SRC/RTOS/tasks.c **** 		portENTER_CRITICAL();
 1729              	.word	xTracing
 1730 1024 FEFFFFEB 		.word	pcTraceBuffer
1340:SRC/RTOS/tasks.c **** 			xTracing = pdFALSE;
 1731              	word	pcTraceBufferStart
 1732 1028 38209FE5 	.LFE20:
 1733 102c 0030A0E3 		.size	ulTaskEndTrace, .-ulTaskEndTrace
ARM GAS  C:\DOCUME~1\ZAQUAD~1\USTAWI~1\Temp/ccIVGP1b.s 			page 55


 1734 1030 003082E5 		.align	2
1341:SRC/RTOS/tasks.c **** 		portEXIT_CRITICAL();
 1735              	obal	vTaskIncrementTick
 1736 1034 FEFFFFEB 		.type	vTaskIncrementTick, %function
1342:SRC/RTOS/tasks.c **** 
1343:SRC/RTOS/tasks.c **** 		ulBufferLength = ( unsigned long ) ( pcTraceBuffer - pcTraceBufferStart );
 1737              	askIncrementTick:
 1738 1038 2C309FE5 	.LFB21:
 1739 103c 003093E5 		.loc 1 1359 0
 1740 1040 0320A0E1 		@ Function supports interworking.
 1741 1044 24309FE5 		@ args = 0, pretend = 0, frame = 12
 1742 1048 003093E5 		@ frame_needed = 0, uses_anonymous_args = 0
 1743 104c 023063E0 		str	lr, [sp, #-4]!	@,
 1744 1050 00308DE5 	.LCFI32:
1344:SRC/RTOS/tasks.c **** 
1345:SRC/RTOS/tasks.c **** 		return ulBufferLength;
 1745              	 sp, #12	@,,
 1746 1054 00309DE5 	.LCFI33:
1346:SRC/RTOS/tasks.c **** 	}
 1747              	loc 1 1363 0
 1748 1058 0300A0E1 		ldr	r3, .L155	@ tmp161,
 1749 105c 04D08DE2 		ldr	r3, [r3, #0]	@ uxSchedulerSuspended.86, uxSchedulerSuspended
 1750 1060 04E09DE4 		cmp	r3, #0	@ uxSchedulerSuspended.86,
 1751 1064 1EFF2FE1 		bne	.L144	@,
 1752              		.loc 1 1365 0
 1753              		ldr	r3, .L155+4	@ tmp162,
 1754              		ldr	r3, [r3, #0]	@ xTickCount.87, xTickCount
 1755 1068 30000000 		add	r2, r3, #1	@ xTickCount.88, xTickCount.87,
 1756 106c F0000000 		ldr	r3, .L155+4	@ tmp163,
 1757 1070 F4000000 		str	r2, [r3, #0]	@ xTickCount.88, xTickCount
 1758              		.loc 1 1366 0
 1759              		ldr	r3, .L155+4	@ tmp164,
 1760              		ldr	r3, [r3, #0]	@ xTickCount.89, xTickCount
 1761              		cmp	r3, #0	@ xTickCount.89,
 1762              		bne	.L146	@,
 1763              	.LBB4:
 1764              		.loc 1 1373 0
1347:SRC/RTOS/tasks.c **** 
1348:SRC/RTOS/tasks.c **** #endif
1349:SRC/RTOS/tasks.c **** 
1350:SRC/RTOS/tasks.c **** 
1351:SRC/RTOS/tasks.c **** 
1352:SRC/RTOS/tasks.c **** /*-----------------------------------------------------------
1353:SRC/RTOS/tasks.c ****  * SCHEDULER INTERNALS AVAILABLE FOR PORTING PURPOSES
1354:SRC/RTOS/tasks.c ****  * documented in task.h
1355:SRC/RTOS/tasks.c ****  *----------------------------------------------------------*/
1356:SRC/RTOS/tasks.c **** 
1357:SRC/RTOS/tasks.c **** 
1358:SRC/RTOS/tasks.c **** void vTaskIncrementTick( void )
1359:SRC/RTOS/tasks.c **** {
 1765              	 tmp165,
 1766              		ldr	r3, [r3, #0]	@ tmp166, pxDelayedTaskList
 1767              		str	r3, [sp, #8]	@ tmp166, pxTemp
 1768              		.loc 1 1374 0
 1769 1074 04E02DE5 		ldr	r3, .L155+12	@ tmp167,
 1770              		ldr	r2, [r3, #0]	@ pxOverflowDelayedTaskList.90, pxOverflowDelayedTaskList
 1771 1078 0CD04DE2 		ldr	r3, .L155+8	@ tmp168,
ARM GAS  C:\DOCUME~1\ZAQUAD~1\USTAWI~1\Temp/ccIVGP1b.s 			page 56


 1772              		str	r2, [r3, #0]	@ pxOverflowDelayedTaskList.90, pxDelayedTaskList
1360:SRC/RTOS/tasks.c **** 	/* Called by the portable layer each time a tick interrupt occurs.
1361:SRC/RTOS/tasks.c **** 	Increments the tick then checks to see if the new tick value will cause any
1362:SRC/RTOS/tasks.c **** 	tasks to be unblocked. */
1363:SRC/RTOS/tasks.c **** 	if( uxSchedulerSuspended == ( unsigned portBASE_TYPE ) pdFALSE )
 1773              	1375 0
 1774 107c 78319FE5 		ldr	r2, .L155+12	@ tmp169,
 1775 1080 003093E5 		ldr	r3, [sp, #8]	@ tmp170, pxTemp
 1776 1084 000053E3 		str	r3, [r2, #0]	@ tmp170, pxOverflowDelayedTaskList
 1777 1088 5300001A 		.loc 1 1376 0
1364:SRC/RTOS/tasks.c **** 	{
1365:SRC/RTOS/tasks.c **** 		++xTickCount;
 1778              	r3, .L155+16	@ tmp171,
 1779 108c 6C319FE5 		ldr	r3, [r3, #0]	@ xNumOfOverflows.91, xNumOfOverflows
 1780 1090 003093E5 		add	r2, r3, #1	@ xNumOfOverflows.92, xNumOfOverflows.91,
 1781 1094 012083E2 		ldr	r3, .L155+16	@ tmp172,
 1782 1098 60319FE5 		str	r2, [r3, #0]	@ xNumOfOverflows.92, xNumOfOverflows
 1783 109c 002083E5 		b	.L146	@
1366:SRC/RTOS/tasks.c **** 		if( xTickCount == ( portTickType ) 0 )
 1784              	
 1785 10a0 58319FE5 	.LBE4:
 1786 10a4 003093E5 	.LBB5:
 1787 10a8 000053E3 		.loc 1 1380 0
 1788 10ac 3700001A 		ldr	r1, [sp, #4]	@, pxTCB
 1789              		ldr	r3, [r1, #4]	@ D.3953, <variable>.xGenericListItem.xItemValue
1367:SRC/RTOS/tasks.c **** 		{
1368:SRC/RTOS/tasks.c **** 			xList *pxTemp;
1369:SRC/RTOS/tasks.c **** 
1370:SRC/RTOS/tasks.c **** 			/* Tick count has overflowed so we need to swap the delay lists.
1371:SRC/RTOS/tasks.c **** 			If there are any items in pxDelayedTaskList here then there is
1372:SRC/RTOS/tasks.c **** 			an error! */
1373:SRC/RTOS/tasks.c **** 			pxTemp = pxDelayedTaskList;
 1790              	r2, .L155+4	@ tmp173,
 1791 10b0 4C319FE5 		ldr	r2, [r2, #0]	@ xTickCount.93, xTickCount
 1792 10b4 003093E5 		cmp	r3, r2	@ D.3953, xTickCount.93
 1793 10b8 08308DE5 		bhi	.L154	@,
1374:SRC/RTOS/tasks.c **** 			pxDelayedTaskList = pxOverflowDelayedTaskList;
 1794              		r2, [sp, #4]	@, pxTCB
 1795 10bc 44319FE5 		add	r3, r2, #4	@ D.3955,,
 1796 10c0 002093E5 		mov	r0, r3	@, D.3955
 1797 10c4 38319FE5 		bl	vListRemove	@
 1798 10c8 002083E5 		ldr	r1, [sp, #4]	@, pxTCB
1375:SRC/RTOS/tasks.c **** 			pxOverflowDelayedTaskList = pxTemp;
 1799              	r3, [r1, #40]	@ D.3956, <variable>.xEventListItem.pvContainer
 1800 10cc 34219FE5 		cmp	r3, #0	@ D.3956,
 1801 10d0 08309DE5 		beq	.L148	@,
 1802 10d4 003082E5 		ldr	r2, [sp, #4]	@, pxTCB
1376:SRC/RTOS/tasks.c **** 			xNumOfOverflows++;
 1803              		r3, r2, #24	@ D.3957,,
 1804 10d8 2C319FE5 		mov	r0, r3	@, D.3957
 1805 10dc 003093E5 		bl	vListRemove	@
 1806 10e0 012083E2 	.L148:
 1807 10e4 20319FE5 		ldr	r1, [sp, #4]	@, pxTCB
 1808 10e8 002083E5 		ldr	r3, [r1, #44]	@ D.3958, <variable>.uxPriority
 1809 10ec 270000EA 		ldr	r2, .L155+20	@ tmp174,
 1810              		ldr	r2, [r2, #0]	@ uxTopReadyPriority.94, uxTopReadyPriority
 1811              		cmp	r3, r2	@ D.3958, uxTopReadyPriority.94
ARM GAS  C:\DOCUME~1\ZAQUAD~1\USTAWI~1\Temp/ccIVGP1b.s 			page 57


 1812              		bls	.L149	@,
1377:SRC/RTOS/tasks.c **** 		}
1378:SRC/RTOS/tasks.c **** 
1379:SRC/RTOS/tasks.c **** 		/* See if this tick has made a timeout expire. */
1380:SRC/RTOS/tasks.c **** 		prvCheckDelayedTasks();
 1813              	sp, #4]	@, pxTCB
 1814 10f0 04109DE5 		ldr	r2, [r3, #44]	@ uxTopReadyPriority.95, <variable>.uxPriority
 1815 10f4 043091E5 		ldr	r3, .L155+20	@ tmp175,
 1816 10f8 00219FE5 		str	r2, [r3, #0]	@ uxTopReadyPriority.95, uxTopReadyPriority
 1817 10fc 002092E5 	.L149:
 1818 1100 020053E1 		ldr	r1, [sp, #4]	@, pxTCB
 1819 1104 3900008A 		ldr	r3, [r1, #44]	@ D.3961, <variable>.uxPriority
 1820 1108 04209DE5 		mov	r2, r3, asl #2	@ tmp177, tmp176,
 1821 110c 043082E2 		mov	r3, r2, asl #2	@ tmp178, tmp177,
 1822 1110 0300A0E1 		add	r2, r2, r3	@ D.3962, tmp177, tmp178
 1823 1114 FEFFFFEB 		ldr	r3, .L155+24	@ tmp179,
 1824 1118 04109DE5 		add	r3, r2, r3	@ D.3963, D.3962, tmp179
 1825 111c 283091E5 		ldr	r1, [sp, #4]	@, pxTCB
 1826 1120 000053E3 		add	r2, r1, #4	@ D.3964,,
 1827 1124 0300000A 		mov	r0, r3	@, D.3963
 1828 1128 04209DE5 		mov	r1, r2	@, D.3964
 1829 112c 183082E2 		bl	vListInsertEnd	@
 1830 1130 0300A0E1 	.L146:
 1831 1134 FEFFFFEB 		ldr	r3, .L155+8	@ tmp180,
 1832              		ldr	r3, [r3, #0]	@ pxDelayedTaskList.97, pxDelayedTaskList
 1833 1138 04109DE5 		ldr	r3, [r3, #0]	@ D.3967, <variable>.uxNumberOfItems
 1834 113c 2C3091E5 		cmp	r3, #0	@ D.3967,
 1835 1140 C8209FE5 		beq	.L150	@,
 1836 1144 002092E5 		ldr	r3, .L155+8	@ tmp181,
 1837 1148 020053E1 		ldr	r3, [r3, #0]	@ pxDelayedTaskList.98, pxDelayedTaskList
 1838 114c 0300009A 		ldr	r3, [r3, #12]	@ D.3969, <variable>.xListEnd.pxNext
 1839 1150 04309DE5 		ldr	r3, [r3, #12]	@ D.3970, <variable>.pvOwner
 1840 1154 2C2093E5 		str	r3, [sp, #0]	@ D.3970, iftmp.96
 1841 1158 B0309FE5 		b	.L151	@
 1842 115c 002083E5 	.L150:
 1843              		mov	r2, #0	@,
 1844 1160 04109DE5 		str	r2, [sp, #0]	@, iftmp.96
 1845 1164 2C3091E5 	.L151:
 1846 1168 0321A0E1 		ldr	r3, [sp, #0]	@, iftmp.96
 1847 116c 0231A0E1 		str	r3, [sp, #4]	@, pxTCB
 1848 1170 032082E0 		ldr	r1, [sp, #4]	@, pxTCB
 1849 1174 98309FE5 		cmp	r1, #0	@,
 1850 1178 033082E0 		bne	.L152	@,
 1851 117c 04109DE5 		b	.L154	@
 1852 1180 042081E2 	.L144:
 1853 1184 0300A0E1 	.LBE5:
 1854 1188 0210A0E1 		.loc 1 1384 0
 1855 118c FEFFFFEB 		ldr	r3, .L155+28	@ tmp182,
 1856              		ldr	r3, [r3, #0]	@ uxMissedTicks.99, uxMissedTicks
 1857 1190 6C309FE5 		add	r2, r3, #1	@ uxMissedTicks.100, uxMissedTicks.99,
 1858 1194 003093E5 		ldr	r3, .L155+28	@ tmp183,
 1859 1198 003093E5 		str	r2, [r3, #0]	@ uxMissedTicks.100, uxMissedTicks
 1860 119c 000053E3 	.L154:
 1861 11a0 0500000A 		.loc 1 1411 0
 1862 11a4 58309FE5 		add	sp, sp, #12	@,,
 1863 11a8 003093E5 		ldr	lr, [sp], #4
 1864 11ac 0C3093E5 		bx	lr
ARM GAS  C:\DOCUME~1\ZAQUAD~1\USTAWI~1\Temp/ccIVGP1b.s 			page 58


 1865 11b0 0C3093E5 	.L156:
 1866 11b4 00308DE5 		.align	2
 1867 11b8 010000EA 	.L155:
 1868              		.word	uxSchedulerSuspended
 1869 11bc 0020A0E3 		.word	xTickCount
 1870 11c0 00208DE5 		.word	pxDelayedTaskList
 1871              		.word	pxOverflowDelayedTaskList
 1872 11c4 00309DE5 		.word	xNumOfOverflows
 1873 11c8 04308DE5 		.word	uxTopReadyPriority
 1874 11cc 04109DE5 		.word	pxReadyTasksLists
 1875 11d0 000051E3 		.word	uxMissedTicks
 1876 11d4 C5FFFF1A 	.LFE21:
 1877 11d8 040000EA 		.size	vTaskIncrementTick, .-vTaskIncrementTick
 1878              		.align	2
 1879              		.global	vTaskSwitchContext
1381:SRC/RTOS/tasks.c **** 	}
1382:SRC/RTOS/tasks.c **** 	else
1383:SRC/RTOS/tasks.c **** 	{
1384:SRC/RTOS/tasks.c **** 		++uxMissedTicks;
 1880              	loc 1 1555 0
 1881 11dc 34309FE5 		@ Function supports interworking.
 1882 11e0 003093E5 		@ args = 0, pretend = 0, frame = 4
 1883 11e4 012083E2 		@ frame_needed = 0, uses_anonymous_args = 0
 1884 11e8 28309FE5 		@ link register save eliminated.
 1885 11ec 002083E5 		sub	sp, sp, #4	@,,
 1886              	.LCFI34:
1385:SRC/RTOS/tasks.c **** 
1386:SRC/RTOS/tasks.c **** 		/* The tick hook gets called at regular intervals, even if the
1387:SRC/RTOS/tasks.c **** 		scheduler is locked. */
1388:SRC/RTOS/tasks.c **** 		#if ( configUSE_TICK_HOOK == 1 )
1389:SRC/RTOS/tasks.c **** 		{
1390:SRC/RTOS/tasks.c **** 			extern void vApplicationTickHook( void );
1391:SRC/RTOS/tasks.c **** 
1392:SRC/RTOS/tasks.c **** 			vApplicationTickHook();
1393:SRC/RTOS/tasks.c **** 		}
1394:SRC/RTOS/tasks.c **** 		#endif
1395:SRC/RTOS/tasks.c **** 	}
1396:SRC/RTOS/tasks.c **** 
1397:SRC/RTOS/tasks.c **** 	#if ( configUSE_TICK_HOOK == 1 )
1398:SRC/RTOS/tasks.c **** 	{
1399:SRC/RTOS/tasks.c **** 		extern void vApplicationTickHook( void );
1400:SRC/RTOS/tasks.c **** 
1401:SRC/RTOS/tasks.c **** 		/* Guard against the tick hook being called when the missed tick
1402:SRC/RTOS/tasks.c **** 		count is being unwound (when the scheduler is being unlocked. */
1403:SRC/RTOS/tasks.c **** 		if( uxMissedTicks == 0 )
1404:SRC/RTOS/tasks.c **** 		{
1405:SRC/RTOS/tasks.c **** 			vApplicationTickHook();
1406:SRC/RTOS/tasks.c **** 		}
1407:SRC/RTOS/tasks.c **** 	}
1408:SRC/RTOS/tasks.c **** 	#endif
1409:SRC/RTOS/tasks.c **** 
1410:SRC/RTOS/tasks.c **** 	traceTASK_INCREMENT_TICK( xTickCount );
1411:SRC/RTOS/tasks.c **** }
 1887              	 1556 0
 1888 11f0 0CD08DE2 		ldr	r3, .L165	@ tmp172,
 1889 11f4 04E09DE4 		ldr	r3, [r3, #0]	@ uxSchedulerSuspended.101, uxSchedulerSuspended
 1890 11f8 1EFF2FE1 		cmp	r3, #0	@ uxSchedulerSuspended.101,
ARM GAS  C:\DOCUME~1\ZAQUAD~1\USTAWI~1\Temp/ccIVGP1b.s 			page 59


 1891              		beq	.L160	@,
 1892              		.loc 1 1560 0
 1893              		ldr	r2, .L165+4	@ tmp173,
 1894 11fc 1C000000 		mov	r3, #1	@ tmp174,
 1895 1200 0C000000 		str	r3, [r2, #0]	@ tmp174, xMissedYield
 1896 1204 AC000000 		b	.L164	@
 1897 1208 B0000000 	.L161:
 1898 120c 28000000 		.loc 1 1586 0
 1899 1210 14000000 		ldr	r3, .L165+8	@ tmp175,
 1900 1214 34000000 		ldr	r3, [r3, #0]	@ uxTopReadyPriority.102, uxTopReadyPriority
 1901 1218 20000000 		sub	r2, r3, #1	@ uxTopReadyPriority.103, uxTopReadyPriority.102,
 1902              		ldr	r3, .L165+8	@ tmp176,
 1903              		str	r2, [r3, #0]	@ uxTopReadyPriority.103, uxTopReadyPriority
 1904              	.L160:
 1905              		.loc 1 1584 0
 1906              		ldr	r3, .L165+8	@ tmp177,
 1907              		ldr	r3, [r3, #0]	@ uxTopReadyPriority.104, uxTopReadyPriority
 1908              		mov	r2, r3, asl #2	@ tmp179, tmp178,
1412:SRC/RTOS/tasks.c **** /*-----------------------------------------------------------*/
1413:SRC/RTOS/tasks.c **** 
1414:SRC/RTOS/tasks.c **** #if ( ( INCLUDE_vTaskCleanUpResources == 1 ) && ( INCLUDE_vTaskSuspend == 1 ) )
1415:SRC/RTOS/tasks.c **** 
1416:SRC/RTOS/tasks.c **** 	void vTaskCleanUpResources( void )
1417:SRC/RTOS/tasks.c **** 	{
1418:SRC/RTOS/tasks.c **** 	unsigned short usQueue;
1419:SRC/RTOS/tasks.c **** 	volatile tskTCB *pxTCB;
1420:SRC/RTOS/tasks.c **** 
1421:SRC/RTOS/tasks.c **** 		usQueue = ( unsigned short ) uxTopUsedPriority + ( unsigned short ) 1;
1422:SRC/RTOS/tasks.c **** 
1423:SRC/RTOS/tasks.c **** 		/* Remove any TCB's from the ready queues. */
1424:SRC/RTOS/tasks.c **** 		do
1425:SRC/RTOS/tasks.c **** 		{
1426:SRC/RTOS/tasks.c **** 			usQueue--;
1427:SRC/RTOS/tasks.c **** 
1428:SRC/RTOS/tasks.c **** 			while( !listLIST_IS_EMPTY( &( pxReadyTasksLists[ usQueue ] ) ) )
1429:SRC/RTOS/tasks.c **** 			{
1430:SRC/RTOS/tasks.c **** 				listGET_OWNER_OF_NEXT_ENTRY( pxTCB, &( pxReadyTasksLists[ usQueue ] ) );
1431:SRC/RTOS/tasks.c **** 				vListRemove( ( xListItem * ) &( pxTCB->xGenericListItem ) );
1432:SRC/RTOS/tasks.c **** 
1433:SRC/RTOS/tasks.c **** 				prvDeleteTCB( ( tskTCB * ) pxTCB );
1434:SRC/RTOS/tasks.c **** 			}
1435:SRC/RTOS/tasks.c **** 		}while( usQueue > ( unsigned short ) tskIDLE_PRIORITY );
1436:SRC/RTOS/tasks.c **** 
1437:SRC/RTOS/tasks.c **** 		/* Remove any TCB's from the delayed queue. */
1438:SRC/RTOS/tasks.c **** 		while( !listLIST_IS_EMPTY( &xDelayedTaskList1 ) )
1439:SRC/RTOS/tasks.c **** 		{
1440:SRC/RTOS/tasks.c **** 			listGET_OWNER_OF_NEXT_ENTRY( pxTCB, &xDelayedTaskList1 );
1441:SRC/RTOS/tasks.c **** 			vListRemove( ( xListItem * ) &( pxTCB->xGenericListItem ) );
1442:SRC/RTOS/tasks.c **** 
1443:SRC/RTOS/tasks.c **** 			prvDeleteTCB( ( tskTCB * ) pxTCB );
1444:SRC/RTOS/tasks.c **** 		}
1445:SRC/RTOS/tasks.c **** 
1446:SRC/RTOS/tasks.c **** 		/* Remove any TCB's from the overflow delayed queue. */
1447:SRC/RTOS/tasks.c **** 		while( !listLIST_IS_EMPTY( &xDelayedTaskList2 ) )
1448:SRC/RTOS/tasks.c **** 		{
1449:SRC/RTOS/tasks.c **** 			listGET_OWNER_OF_NEXT_ENTRY( pxTCB, &xDelayedTaskList2 );
1450:SRC/RTOS/tasks.c **** 			vListRemove( ( xListItem * ) &( pxTCB->xGenericListItem ) );
ARM GAS  C:\DOCUME~1\ZAQUAD~1\USTAWI~1\Temp/ccIVGP1b.s 			page 60


1451:SRC/RTOS/tasks.c **** 
1452:SRC/RTOS/tasks.c **** 			prvDeleteTCB( ( tskTCB * ) pxTCB );
1453:SRC/RTOS/tasks.c **** 		}
1454:SRC/RTOS/tasks.c **** 
1455:SRC/RTOS/tasks.c **** 		while( !listLIST_IS_EMPTY( &xSuspendedTaskList ) )
1456:SRC/RTOS/tasks.c **** 		{
1457:SRC/RTOS/tasks.c **** 			listGET_OWNER_OF_NEXT_ENTRY( pxTCB, &xSuspendedTaskList );
1458:SRC/RTOS/tasks.c **** 			vListRemove( ( xListItem * ) &( pxTCB->xGenericListItem ) );
1459:SRC/RTOS/tasks.c **** 
1460:SRC/RTOS/tasks.c **** 			prvDeleteTCB( ( tskTCB * ) pxTCB );
1461:SRC/RTOS/tasks.c **** 		}
1462:SRC/RTOS/tasks.c **** 	}
1463:SRC/RTOS/tasks.c **** 
1464:SRC/RTOS/tasks.c **** #endif
1465:SRC/RTOS/tasks.c **** /*-----------------------------------------------------------*/
1466:SRC/RTOS/tasks.c **** 
1467:SRC/RTOS/tasks.c **** #if ( configUSE_APPLICATION_TASK_TAG == 1 )
1468:SRC/RTOS/tasks.c **** 
1469:SRC/RTOS/tasks.c **** 	void vTaskSetApplicationTaskTag( xTaskHandle xTask, pdTASK_HOOK_CODE pxTagValue )
1470:SRC/RTOS/tasks.c **** 	{
1471:SRC/RTOS/tasks.c **** 	tskTCB *xTCB;
1472:SRC/RTOS/tasks.c **** 
1473:SRC/RTOS/tasks.c **** 		/* If xTask is NULL then we are setting our own task hook. */
1474:SRC/RTOS/tasks.c **** 		if( xTask == NULL )
1475:SRC/RTOS/tasks.c **** 		{
1476:SRC/RTOS/tasks.c **** 			xTCB = ( tskTCB * ) pxCurrentTCB;
1477:SRC/RTOS/tasks.c **** 		}
1478:SRC/RTOS/tasks.c **** 		else
1479:SRC/RTOS/tasks.c **** 		{
1480:SRC/RTOS/tasks.c **** 			xTCB = ( tskTCB * ) xTask;
1481:SRC/RTOS/tasks.c **** 		}
1482:SRC/RTOS/tasks.c **** 
1483:SRC/RTOS/tasks.c **** 		/* Save the hook function in the TCB.  A critical section is required as
1484:SRC/RTOS/tasks.c **** 		the value can be accessed from an interrupt. */
1485:SRC/RTOS/tasks.c **** 		portENTER_CRITICAL();
1486:SRC/RTOS/tasks.c **** 			xTCB->pxTaskTag = pxTagValue;
1487:SRC/RTOS/tasks.c **** 		portEXIT_CRITICAL();
1488:SRC/RTOS/tasks.c **** 	}
1489:SRC/RTOS/tasks.c **** 
1490:SRC/RTOS/tasks.c **** #endif
1491:SRC/RTOS/tasks.c **** /*-----------------------------------------------------------*/
1492:SRC/RTOS/tasks.c **** 
1493:SRC/RTOS/tasks.c **** #if ( configUSE_APPLICATION_TASK_TAG == 1 )
1494:SRC/RTOS/tasks.c **** 
1495:SRC/RTOS/tasks.c **** 	pdTASK_HOOK_CODE xTaskGetApplicationTaskTag( xTaskHandle xTask )
1496:SRC/RTOS/tasks.c **** 	{
1497:SRC/RTOS/tasks.c **** 	tskTCB *xTCB;
1498:SRC/RTOS/tasks.c **** 	pdTASK_HOOK_CODE xReturn;
1499:SRC/RTOS/tasks.c **** 
1500:SRC/RTOS/tasks.c **** 		/* If xTask is NULL then we are setting our own task hook. */
1501:SRC/RTOS/tasks.c **** 		if( xTask == NULL )
1502:SRC/RTOS/tasks.c **** 		{
1503:SRC/RTOS/tasks.c **** 			xTCB = ( tskTCB * ) pxCurrentTCB;
1504:SRC/RTOS/tasks.c **** 		}
1505:SRC/RTOS/tasks.c **** 		else
1506:SRC/RTOS/tasks.c **** 		{
1507:SRC/RTOS/tasks.c **** 			xTCB = ( tskTCB * ) xTask;
ARM GAS  C:\DOCUME~1\ZAQUAD~1\USTAWI~1\Temp/ccIVGP1b.s 			page 61


1508:SRC/RTOS/tasks.c **** 		}
1509:SRC/RTOS/tasks.c **** 
1510:SRC/RTOS/tasks.c **** 		/* Save the hook function in the TCB.  A critical section is required as
1511:SRC/RTOS/tasks.c **** 		the value can be accessed from an interrupt. */
1512:SRC/RTOS/tasks.c **** 		portENTER_CRITICAL();
1513:SRC/RTOS/tasks.c **** 			xReturn = xTCB->pxTaskTag;
1514:SRC/RTOS/tasks.c **** 		portEXIT_CRITICAL();
1515:SRC/RTOS/tasks.c **** 
1516:SRC/RTOS/tasks.c **** 		return xReturn;
1517:SRC/RTOS/tasks.c **** 	}
1518:SRC/RTOS/tasks.c **** 
1519:SRC/RTOS/tasks.c **** #endif
1520:SRC/RTOS/tasks.c **** /*-----------------------------------------------------------*/
1521:SRC/RTOS/tasks.c **** 
1522:SRC/RTOS/tasks.c **** #if ( configUSE_APPLICATION_TASK_TAG == 1 )
1523:SRC/RTOS/tasks.c **** 
1524:SRC/RTOS/tasks.c **** 	portBASE_TYPE xTaskCallApplicationTaskHook( xTaskHandle xTask, void *pvParameter )
1525:SRC/RTOS/tasks.c **** 	{
1526:SRC/RTOS/tasks.c **** 	tskTCB *xTCB;
1527:SRC/RTOS/tasks.c **** 	portBASE_TYPE xReturn;
1528:SRC/RTOS/tasks.c **** 
1529:SRC/RTOS/tasks.c **** 		/* If xTask is NULL then we are calling our own task hook. */
1530:SRC/RTOS/tasks.c **** 		if( xTask == NULL )
1531:SRC/RTOS/tasks.c **** 		{
1532:SRC/RTOS/tasks.c **** 			xTCB = ( tskTCB * ) pxCurrentTCB;
1533:SRC/RTOS/tasks.c **** 		}
1534:SRC/RTOS/tasks.c **** 		else
1535:SRC/RTOS/tasks.c **** 		{
1536:SRC/RTOS/tasks.c **** 			xTCB = ( tskTCB * ) xTask;
1537:SRC/RTOS/tasks.c **** 		}
1538:SRC/RTOS/tasks.c **** 
1539:SRC/RTOS/tasks.c **** 		if( xTCB->pxTaskTag != NULL )
1540:SRC/RTOS/tasks.c **** 		{
1541:SRC/RTOS/tasks.c **** 			xReturn = xTCB->pxTaskTag( pvParameter );
1542:SRC/RTOS/tasks.c **** 		}
1543:SRC/RTOS/tasks.c **** 		else
1544:SRC/RTOS/tasks.c **** 		{
1545:SRC/RTOS/tasks.c **** 			xReturn = pdFAIL;
1546:SRC/RTOS/tasks.c **** 		}
1547:SRC/RTOS/tasks.c **** 
1548:SRC/RTOS/tasks.c **** 		return xReturn;
1549:SRC/RTOS/tasks.c **** 	}
1550:SRC/RTOS/tasks.c **** 
1551:SRC/RTOS/tasks.c **** #endif
1552:SRC/RTOS/tasks.c **** /*-----------------------------------------------------------*/
1553:SRC/RTOS/tasks.c **** 
1554:SRC/RTOS/tasks.c **** void vTaskSwitchContext( void )
1555:SRC/RTOS/tasks.c **** {
 1909              	tmp180, tmp179,
 1910              		add	r2, r2, r3	@ D.3997, tmp179, tmp180
 1911              		ldr	r3, .L165+12	@ tmp181,
 1912              		add	r3, r2, r3	@ D.3998, D.3997, tmp181
 1913              		ldr	r3, [r3, #0]	@ D.3999, <variable>.uxNumberOfItems
 1914 121c 04D04DE2 		cmp	r3, #0	@ D.3999,
 1915              		beq	.L161	@,
1556:SRC/RTOS/tasks.c **** 	if( uxSchedulerSuspended != ( unsigned portBASE_TYPE ) pdFALSE )
 1916              		.loc 1 1591 0
ARM GAS  C:\DOCUME~1\ZAQUAD~1\USTAWI~1\Temp/ccIVGP1b.s 			page 62


 1917 1220 98319FE5 		ldr	r3, .L165+8	@ tmp182,
 1918 1224 003093E5 		ldr	r3, [r3, #0]	@ uxTopReadyPriority.105, uxTopReadyPriority
 1919 1228 000053E3 		mov	r2, r3, asl #2	@ tmp184, tmp183,
 1920 122c 0800000A 		mov	r3, r2, asl #2	@ tmp185, tmp184,
1557:SRC/RTOS/tasks.c **** 	{
1558:SRC/RTOS/tasks.c **** 		/* The scheduler is currently suspended - do not allow a context
1559:SRC/RTOS/tasks.c **** 		switch. */
1560:SRC/RTOS/tasks.c **** 		xMissedYield = pdTRUE;
 1921              	r2, r2, r3	@ D.4001, tmp184, tmp185
 1922 1230 8C219FE5 		ldr	r3, .L165+12	@ tmp186,
 1923 1234 0130A0E3 		add	r3, r2, r3	@ tmp187, D.4001, tmp186
 1924 1238 003082E5 		str	r3, [sp, #0]	@ tmp187, pxConstList
 1925 123c 5D0000EA 		ldr	r3, [sp, #0]	@ tmp188, pxConstList
 1926              		ldr	r3, [r3, #4]	@ D.4002, <variable>.pxIndex
1561:SRC/RTOS/tasks.c **** 		return;
1562:SRC/RTOS/tasks.c **** 	}
1563:SRC/RTOS/tasks.c **** 
1564:SRC/RTOS/tasks.c **** 	traceTASK_SWITCHED_OUT();
1565:SRC/RTOS/tasks.c **** 
1566:SRC/RTOS/tasks.c **** 	#if ( configGENERATE_RUN_TIME_STATS == 1 )
1567:SRC/RTOS/tasks.c **** 	{
1568:SRC/RTOS/tasks.c **** 		unsigned long ulTempCounter = portGET_RUN_TIME_COUNTER_VALUE();
1569:SRC/RTOS/tasks.c **** 
1570:SRC/RTOS/tasks.c **** 			/* Add the amount of time the task has been running to the accumulated
1571:SRC/RTOS/tasks.c **** 			time so far.  The time the task started running was stored in
1572:SRC/RTOS/tasks.c **** 			ulTaskSwitchedInTime.  Note that there is no overflow protection here
1573:SRC/RTOS/tasks.c **** 			so count values are only valid until the timer overflows.  Generally
1574:SRC/RTOS/tasks.c **** 			this will be about 1 hour assuming a 1uS timer increment. */
1575:SRC/RTOS/tasks.c **** 			pxCurrentTCB->ulRunTimeCounter += ( ulTempCounter - ulTaskSwitchedInTime );
1576:SRC/RTOS/tasks.c **** 			ulTaskSwitchedInTime = ulTempCounter;
1577:SRC/RTOS/tasks.c **** 	}
1578:SRC/RTOS/tasks.c **** 	#endif
1579:SRC/RTOS/tasks.c **** 
1580:SRC/RTOS/tasks.c **** 	taskFIRST_CHECK_FOR_STACK_OVERFLOW();
1581:SRC/RTOS/tasks.c **** 	taskSECOND_CHECK_FOR_STACK_OVERFLOW();
1582:SRC/RTOS/tasks.c **** 
1583:SRC/RTOS/tasks.c **** 	/* Find the highest priority queue that contains ready tasks. */
1584:SRC/RTOS/tasks.c **** 	while( listLIST_IS_EMPTY( &( pxReadyTasksLists[ uxTopReadyPriority ] ) ) )
1585:SRC/RTOS/tasks.c **** 	{
1586:SRC/RTOS/tasks.c **** 		--uxTopReadyPriority;
 1927              	2, [r3, #4]	@ D.4003, <variable>.pxNext
 1928 1240 80319FE5 		ldr	r3, [sp, #0]	@ tmp189, pxConstList
 1929 1244 003093E5 		str	r2, [r3, #4]	@ D.4003, <variable>.pxIndex
 1930 1248 012043E2 		ldr	r3, [sp, #0]	@ tmp190, pxConstList
 1931 124c 74319FE5 		ldr	r2, [r3, #4]	@ D.4004, <variable>.pxIndex
 1932 1250 002083E5 		ldr	r3, [sp, #0]	@ tmp191, pxConstList
 1933              		add	r3, r3, #8	@ D.4005, tmp191,
 1934              		cmp	r2, r3	@ D.4004, D.4006
 1935 1254 6C319FE5 		bne	.L162	@,
 1936 1258 003093E5 		ldr	r3, [sp, #0]	@ tmp192, pxConstList
 1937 125c 0321A0E1 		ldr	r3, [r3, #4]	@ D.4007, <variable>.pxIndex
 1938 1260 0231A0E1 		ldr	r2, [r3, #4]	@ D.4008, <variable>.pxNext
 1939 1264 032082E0 		ldr	r3, [sp, #0]	@ tmp193, pxConstList
 1940 1268 5C319FE5 		str	r2, [r3, #4]	@ D.4008, <variable>.pxIndex
 1941 126c 033082E0 	.L162:
 1942 1270 003093E5 		ldr	r3, [sp, #0]	@ tmp194, pxConstList
 1943 1274 000053E3 		ldr	r3, [r3, #4]	@ D.4009, <variable>.pxIndex
ARM GAS  C:\DOCUME~1\ZAQUAD~1\USTAWI~1\Temp/ccIVGP1b.s 			page 63


 1944 1278 F0FFFF0A 		ldr	r3, [r3, #12]	@ D.4010, <variable>.pvOwner
 1945              		mov	r2, r3	@ pxCurrentTCB.106, D.4010
1587:SRC/RTOS/tasks.c **** 	}
1588:SRC/RTOS/tasks.c **** 
1589:SRC/RTOS/tasks.c **** 	/* listGET_OWNER_OF_NEXT_ENTRY walks through the list, so the tasks of the
1590:SRC/RTOS/tasks.c **** 	same priority get an equal share of the processor time. */
1591:SRC/RTOS/tasks.c **** 	listGET_OWNER_OF_NEXT_ENTRY( pxCurrentTCB, &( pxReadyTasksLists[ uxTopReadyPriority ] ) );
 1946              	 tmp195,
 1947 127c 44319FE5 		str	r2, [r3, #0]	@ pxCurrentTCB.106, pxCurrentTCB
 1948 1280 003093E5 	.LBE6:
 1949 1284 0321A0E1 		.loc 1 1594 0
 1950 1288 0231A0E1 		ldr	r3, .L165+20	@ tmp196,
 1951 128c 032082E0 		ldr	r3, [r3, #0]	@ xTracing.107, xTracing
 1952 1290 34319FE5 		cmp	r3, #0	@ xTracing.107,
 1953 1294 033082E0 		beq	.L164	@,
 1954 1298 00308DE5 		ldr	r3, .L165+16	@ tmp197,
 1955 129c 00309DE5 		ldr	r3, [r3, #0]	@ pxCurrentTCB.108, pxCurrentTCB
 1956 12a0 043093E5 		ldr	r2, [r3, #64]	@ D.4014, <variable>.uxTCBNumber
 1957 12a4 042093E5 		ldr	r3, .L165+24	@ tmp198,
 1958 12a8 00309DE5 		ldr	r3, [r3, #0]	@ uxPreviousTask.109, uxPreviousTask
 1959 12ac 042083E5 		cmp	r2, r3	@ D.4014, uxPreviousTask.109
 1960 12b0 00309DE5 		beq	.L164	@,
 1961 12b4 042093E5 		ldr	r3, .L165+28	@ tmp199,
 1962 12b8 00309DE5 		ldr	r3, [r3, #0]	@ pcTraceBuffer.110, pcTraceBuffer
 1963 12bc 083083E2 		add	r2, r3, #8	@ D.4017, pcTraceBuffer.110,
 1964 12c0 030052E1 		ldr	r3, .L165+32	@ tmp200,
 1965 12c4 0400001A 		ldr	r3, [r3, #0]	@ pcTraceBufferEnd.111, pcTraceBufferEnd
 1966 12c8 00309DE5 		cmp	r2, r3	@ D.4017, pcTraceBufferEnd.112
 1967 12cc 043093E5 		bcs	.L163	@,
 1968 12d0 042093E5 		ldr	r3, .L165+16	@ tmp201,
 1969 12d4 00309DE5 		ldr	r3, [r3, #0]	@ pxCurrentTCB.113, pxCurrentTCB
 1970 12d8 042083E5 		ldr	r2, [r3, #64]	@ uxPreviousTask.114, <variable>.uxTCBNumber
 1971              		ldr	r3, .L165+24	@ tmp202,
 1972 12dc 00309DE5 		str	r2, [r3, #0]	@ uxPreviousTask.114, uxPreviousTask
 1973 12e0 043093E5 		ldr	r3, .L165+28	@ tmp203,
 1974 12e4 0C3093E5 		ldr	r3, [r3, #0]	@ pcTraceBuffer.115, pcTraceBuffer
 1975 12e8 0320A0E1 		mov	r2, r3	@ pcTraceBuffer.116, pcTraceBuffer.115
 1976 12ec DC309FE5 		ldr	r3, .L165+36	@ tmp204,
 1977 12f0 002083E5 		ldr	r3, [r3, #0]	@ xTickCount.117, xTickCount
 1978              		str	r3, [r2, #0]	@ xTickCount.117,* pcTraceBuffer.116
1592:SRC/RTOS/tasks.c **** 
1593:SRC/RTOS/tasks.c **** 	traceTASK_SWITCHED_IN();
1594:SRC/RTOS/tasks.c **** 	vWriteTraceToBuffer();
 1979              	r3, [r3, #0]	@ pcTraceBuffer.118, pcTraceBuffer
 1980 12f4 D8309FE5 		add	r2, r3, #4	@ pcTraceBuffer.119, pcTraceBuffer.118,
 1981 12f8 003093E5 		ldr	r3, .L165+28	@ tmp206,
 1982 12fc 000053E3 		str	r2, [r3, #0]	@ pcTraceBuffer.119, pcTraceBuffer
 1983 1300 2C00000A 		ldr	r3, .L165+28	@ tmp207,
 1984 1304 C4309FE5 		ldr	r3, [r3, #0]	@ pcTraceBuffer.120, pcTraceBuffer
 1985 1308 003093E5 		mov	r2, r3	@ pcTraceBuffer.121, pcTraceBuffer.120
 1986 130c 402093E5 		ldr	r3, .L165+24	@ tmp208,
 1987 1310 C0309FE5 		ldr	r3, [r3, #0]	@ uxPreviousTask.122, uxPreviousTask
 1988 1314 003093E5 		str	r3, [r2, #0]	@ uxPreviousTask.122,* pcTraceBuffer.121
 1989 1318 030052E1 		ldr	r3, .L165+28	@ tmp209,
 1990 131c 2500000A 		ldr	r3, [r3, #0]	@ pcTraceBuffer.123, pcTraceBuffer
 1991 1320 B4309FE5 		add	r2, r3, #4	@ pcTraceBuffer.124, pcTraceBuffer.123,
 1992 1324 003093E5 		ldr	r3, .L165+28	@ tmp210,
ARM GAS  C:\DOCUME~1\ZAQUAD~1\USTAWI~1\Temp/ccIVGP1b.s 			page 64


 1993 1328 082083E2 		str	r2, [r3, #0]	@ pcTraceBuffer.124, pcTraceBuffer
 1994 132c AC309FE5 		b	.L164	@
 1995 1330 003093E5 	.L163:
 1996 1334 030052E1 		ldr	r2, .L165+20	@ tmp211,
 1997 1338 1B00002A 		mov	r3, #0	@ tmp212,
 1998 133c 8C309FE5 		str	r3, [r2, #0]	@ tmp212, xTracing
 1999 1340 003093E5 	.L164:
 2000 1344 402093E5 		.loc 1 1595 0
 2001 1348 88309FE5 		add	sp, sp, #4	@,,
 2002 134c 002083E5 		bx	lr
 2003 1350 84309FE5 	.L166:
 2004 1354 003093E5 		.align	2
 2005 1358 0320A0E1 	.L165:
 2006 135c 80309FE5 		.word	uxSchedulerSuspended
 2007 1360 003093E5 		.word	xMissedYield
 2008 1364 003082E5 		.word	uxTopReadyPriority
 2009 1368 6C309FE5 		.word	pxReadyTasksLists
 2010 136c 003093E5 		.word	pxCurrentTCB
 2011 1370 042083E2 		.word	xTracing
 2012 1374 60309FE5 		.word	uxPreviousTask
 2013 1378 002083E5 		.word	pcTraceBuffer
 2014 137c 58309FE5 		.word	pcTraceBufferEnd
 2015 1380 003093E5 		.word	xTickCount
 2016 1384 0320A0E1 	.LFE22:
 2017 1388 48309FE5 		.size	vTaskSwitchContext, .-vTaskSwitchContext
 2018 138c 003093E5 		.align	2
 2019 1390 003082E5 		.global	vTaskPlaceOnEventList
 2020 1394 40309FE5 		.type	vTaskPlaceOnEventList, %function
 2021 1398 003093E5 	vTaskPlaceOnEventList:
 2022 139c 042083E2 	.LFB23:
 2023 13a0 34309FE5 		.loc 1 1599 0
 2024 13a4 002083E5 		@ Function supports interworking.
 2025 13a8 020000EA 		@ args = 0, pretend = 0, frame = 12
 2026              		@ frame_needed = 0, uses_anonymous_args = 0
 2027 13ac 20209FE5 		str	lr, [sp, #-4]!	@,
 2028 13b0 0030A0E3 	.LCFI35:
 2029 13b4 003082E5 		sub	sp, sp, #12	@,,
 2030              	.LCFI36:
1595:SRC/RTOS/tasks.c **** }
 2031              	, [sp, #0]	@ xTicksToWait, xTicksToWait
 2032 13b8 04D08DE2 		.loc 1 1608 0
 2033 13bc 1EFF2FE1 		ldr	r2, [sp, #4]	@ pxEventList.125, pxEventList
 2034              		ldr	r3, .L172	@ tmp149,
 2035              		ldr	r3, [r3, #0]	@ pxCurrentTCB.126, pxCurrentTCB
 2036              		add	r3, r3, #24	@ D.4051, pxCurrentTCB.126,
 2037 13c0 1C000000 		mov	r0, r2	@, pxEventList.125
 2038 13c4 24000000 		mov	r1, r3	@, D.4051
 2039 13c8 14000000 		bl	vListInsert	@
 2040 13cc 34000000 		.loc 1 1613 0
 2041 13d0 00000000 		ldr	r3, .L172	@ tmp150,
 2042 13d4 30000000 		ldr	r3, [r3, #0]	@ pxCurrentTCB.127, pxCurrentTCB
 2043 13d8 00000000 		add	r3, r3, #4	@ D.4053, pxCurrentTCB.127,
 2044 13dc F0000000 		mov	r0, r3	@, D.4053
 2045 13e0 F8000000 		bl	vListRemove	@
 2046 13e4 0C000000 		.loc 1 1618 0
 2047              		ldr	r3, [sp, #0]	@ tmp151, xTicksToWait
 2048              		cmn	r3, #1	@ tmp151,
ARM GAS  C:\DOCUME~1\ZAQUAD~1\USTAWI~1\Temp/ccIVGP1b.s 			page 65


 2049              		bne	.L168	@,
 2050              		.loc 1 1623 0
 2051              		ldr	r3, .L172	@ tmp152,
 2052              		ldr	r3, [r3, #0]	@ pxCurrentTCB.128, pxCurrentTCB
 2053              		add	r3, r3, #4	@ D.4055, pxCurrentTCB.128,
1596:SRC/RTOS/tasks.c **** /*-----------------------------------------------------------*/
1597:SRC/RTOS/tasks.c **** 
1598:SRC/RTOS/tasks.c **** void vTaskPlaceOnEventList( const xList * const pxEventList, portTickType xTicksToWait )
1599:SRC/RTOS/tasks.c **** {
 2054              	v	r1, r3	@, D.4055
 2055              		bl	vListInsertEnd	@
 2056              		b	.L171	@
 2057              	.L168:
 2058 13e8 04E02DE5 		.loc 1 1629 0
 2059              		ldr	r3, .L172+8	@ tmp153,
 2060 13ec 0CD04DE2 		ldr	r2, [r3, #0]	@ xTickCount.129, xTickCount
 2061              		ldr	r3, [sp, #0]	@ tmp154, xTicksToWait
 2062 13f0 04008DE5 		add	r3, r2, r3	@ tmp155, xTickCount.129, tmp154
 2063 13f4 00108DE5 		str	r3, [sp, #8]	@ tmp155, xTimeToWake
1600:SRC/RTOS/tasks.c **** portTickType xTimeToWake;
1601:SRC/RTOS/tasks.c **** 
1602:SRC/RTOS/tasks.c **** 	/* THIS FUNCTION MUST BE CALLED WITH INTERRUPTS DISABLED OR THE
1603:SRC/RTOS/tasks.c **** 	SCHEDULER SUSPENDED. */
1604:SRC/RTOS/tasks.c **** 
1605:SRC/RTOS/tasks.c **** 	/* Place the event list item of the TCB in the appropriate event list.
1606:SRC/RTOS/tasks.c **** 	This is placed in the list in priority order so the highest priority task
1607:SRC/RTOS/tasks.c **** 	is the first to be woken by the event. */
1608:SRC/RTOS/tasks.c **** 	vListInsert( ( xList * ) pxEventList, ( xListItem * ) &( pxCurrentTCB->xEventListItem ) );
 2064              	31 0
 2065 13f8 04209DE5 		ldr	r3, .L172	@ tmp156,
 2066 13fc D4309FE5 		ldr	r2, [r3, #0]	@ pxCurrentTCB.130, pxCurrentTCB
 2067 1400 003093E5 		ldr	r3, [sp, #8]	@ tmp157, xTimeToWake
 2068 1404 183083E2 		str	r3, [r2, #4]	@ tmp157, <variable>.xGenericListItem.xItemValue
 2069 1408 0200A0E1 		.loc 1 1633 0
 2070 140c 0310A0E1 		ldr	r3, .L172+8	@ tmp158,
 2071 1410 FEFFFFEB 		ldr	r2, [r3, #0]	@ xTickCount.131, xTickCount
1609:SRC/RTOS/tasks.c **** 
1610:SRC/RTOS/tasks.c **** 	/* We must remove ourselves from the ready list before adding ourselves
1611:SRC/RTOS/tasks.c **** 	to the blocked list as the same list item is used for both lists.  We have
1612:SRC/RTOS/tasks.c **** 	exclusive access to the ready lists as the scheduler is locked. */
1613:SRC/RTOS/tasks.c **** 	vListRemove( ( xListItem * ) &( pxCurrentTCB->xGenericListItem ) );
 2072              	 [sp, #8]	@ tmp159, xTimeToWake
 2073 1414 BC309FE5 		cmp	r3, r2	@ tmp159, xTickCount.131
 2074 1418 003093E5 		bcs	.L170	@,
 2075 141c 043083E2 		.loc 1 1636 0
 2076 1420 0300A0E1 		ldr	r3, .L172+12	@ tmp160,
 2077 1424 FEFFFFEB 		ldr	r2, [r3, #0]	@ pxOverflowDelayedTaskList.132, pxOverflowDelayedTaskList
1614:SRC/RTOS/tasks.c **** 
1615:SRC/RTOS/tasks.c **** 
1616:SRC/RTOS/tasks.c **** 	#if ( INCLUDE_vTaskSuspend == 1 )
1617:SRC/RTOS/tasks.c **** 	{
1618:SRC/RTOS/tasks.c **** 		if( xTicksToWait == portMAX_DELAY )
 2078              	3, .L172	@ tmp161,
 2079 1428 00309DE5 		ldr	r3, [r3, #0]	@ pxCurrentTCB.133, pxCurrentTCB
 2080 142c 010073E3 		add	r3, r3, #4	@ D.4061, pxCurrentTCB.133,
 2081 1430 0600001A 		mov	r0, r2	@, pxOverflowDelayedTaskList.132
1619:SRC/RTOS/tasks.c **** 		{
ARM GAS  C:\DOCUME~1\ZAQUAD~1\USTAWI~1\Temp/ccIVGP1b.s 			page 66


1620:SRC/RTOS/tasks.c **** 			/* Add ourselves to the suspended task list instead of a delayed task
1621:SRC/RTOS/tasks.c **** 			list to ensure we are not woken by a timing event.  We will block
1622:SRC/RTOS/tasks.c **** 			indefinitely. */
1623:SRC/RTOS/tasks.c **** 			vListInsertEnd( ( xList * ) &xSuspendedTaskList, ( xListItem * ) &( pxCurrentTCB->xGenericListIt
 2082              		r1, r3	@, D.4061
 2083 1434 9C309FE5 		bl	vListInsert	@
 2084 1438 003093E5 		b	.L171	@
 2085 143c 043083E2 	.L170:
 2086 1440 94009FE5 		.loc 1 1641 0
 2087 1444 0310A0E1 		ldr	r3, .L172+16	@ tmp162,
 2088 1448 FEFFFFEB 		ldr	r2, [r3, #0]	@ pxDelayedTaskList.134, pxDelayedTaskList
 2089 144c 1E0000EA 		ldr	r3, .L172	@ tmp163,
 2090              		ldr	r3, [r3, #0]	@ pxCurrentTCB.135, pxCurrentTCB
1624:SRC/RTOS/tasks.c **** 		}
1625:SRC/RTOS/tasks.c **** 		else
1626:SRC/RTOS/tasks.c **** 		{
1627:SRC/RTOS/tasks.c **** 			/* Calculate the time at which the task should be woken if the event does
1628:SRC/RTOS/tasks.c **** 			not occur.  This may overflow but this doesn't matter. */
1629:SRC/RTOS/tasks.c **** 			xTimeToWake = xTickCount + xTicksToWait;
 2091              	r3, #4	@ D.4064, pxCurrentTCB.135,
 2092 1450 88309FE5 		mov	r0, r2	@, pxDelayedTaskList.134
 2093 1454 002093E5 		mov	r1, r3	@, D.4064
 2094 1458 00309DE5 		bl	vListInsert	@
 2095 145c 033082E0 	.L171:
 2096 1460 08308DE5 		.loc 1 1665 0
1630:SRC/RTOS/tasks.c **** 
1631:SRC/RTOS/tasks.c **** 			listSET_LIST_ITEM_VALUE( &( pxCurrentTCB->xGenericListItem ), xTimeToWake );
 2097              	p, sp, #12	@,,
 2098 1464 6C309FE5 		ldr	lr, [sp], #4
 2099 1468 002093E5 		bx	lr
 2100 146c 08309DE5 	.L173:
 2101 1470 043082E5 		.align	2
1632:SRC/RTOS/tasks.c **** 
1633:SRC/RTOS/tasks.c **** 			if( xTimeToWake < xTickCount )
 2102              	:
 2103 1474 64309FE5 		.word	pxCurrentTCB
 2104 1478 002093E5 		.word	xSuspendedTaskList
 2105 147c 08309DE5 		.word	xTickCount
 2106 1480 020053E1 		.word	pxOverflowDelayedTaskList
 2107 1484 0800002A 		.word	pxDelayedTaskList
1634:SRC/RTOS/tasks.c **** 			{
1635:SRC/RTOS/tasks.c **** 				/* Wake time has overflowed.  Place this item in the overflow list. */
1636:SRC/RTOS/tasks.c **** 				vListInsert( ( xList * ) pxOverflowDelayedTaskList, ( xListItem * ) &( pxCurrentTCB->xGenericLi
 2108              	:
 2109 1488 54309FE5 		.size	vTaskPlaceOnEventList, .-vTaskPlaceOnEventList
 2110 148c 002093E5 		.align	2
 2111 1490 40309FE5 		.global	xTaskRemoveFromEventList
 2112 1494 003093E5 		.type	xTaskRemoveFromEventList, %function
 2113 1498 043083E2 	xTaskRemoveFromEventList:
 2114 149c 0200A0E1 	.LFB24:
 2115 14a0 0310A0E1 		.loc 1 1669 0
 2116 14a4 FEFFFFEB 		@ Function supports interworking.
 2117 14a8 070000EA 		@ args = 0, pretend = 0, frame = 16
 2118              		@ frame_needed = 0, uses_anonymous_args = 0
1637:SRC/RTOS/tasks.c **** 			}
1638:SRC/RTOS/tasks.c **** 			else
1639:SRC/RTOS/tasks.c **** 			{
ARM GAS  C:\DOCUME~1\ZAQUAD~1\USTAWI~1\Temp/ccIVGP1b.s 			page 67


1640:SRC/RTOS/tasks.c **** 				/* The wake time has not overflowed, so we can use the current block list. */
1641:SRC/RTOS/tasks.c **** 				vListInsert( ( xList * ) pxDelayedTaskList, ( xListItem * ) &( pxCurrentTCB->xGenericListItem )
 2119              	p, #-4]!	@,
 2120 14ac 34309FE5 	.LCFI37:
 2121 14b0 002093E5 		sub	sp, sp, #16	@,,
 2122 14b4 1C309FE5 	.LCFI38:
 2123 14b8 003093E5 		str	r0, [sp, #4]	@ pxEventList, pxEventList
 2124 14bc 043083E2 		.loc 1 1683 0
 2125 14c0 0200A0E1 		ldr	r3, [sp, #4]	@ tmp153, pxEventList
 2126 14c4 0310A0E1 		ldr	r3, [r3, #0]	@ D.4077, <variable>.uxNumberOfItems
 2127 14c8 FEFFFFEB 		cmp	r3, #0	@ D.4077,
 2128              		beq	.L175	@,
1642:SRC/RTOS/tasks.c **** 			}
1643:SRC/RTOS/tasks.c **** 		}
1644:SRC/RTOS/tasks.c **** 	}
1645:SRC/RTOS/tasks.c **** 	#else
1646:SRC/RTOS/tasks.c **** 	{
1647:SRC/RTOS/tasks.c **** 			/* Calculate the time at which the task should be woken if the event does
1648:SRC/RTOS/tasks.c **** 			not occur.  This may overflow but this doesn't matter. */
1649:SRC/RTOS/tasks.c **** 			xTimeToWake = xTickCount + xTicksToWait;
1650:SRC/RTOS/tasks.c **** 
1651:SRC/RTOS/tasks.c **** 			listSET_LIST_ITEM_VALUE( &( pxCurrentTCB->xGenericListItem ), xTimeToWake );
1652:SRC/RTOS/tasks.c **** 
1653:SRC/RTOS/tasks.c **** 			if( xTimeToWake < xTickCount )
1654:SRC/RTOS/tasks.c **** 			{
1655:SRC/RTOS/tasks.c **** 				/* Wake time has overflowed.  Place this item in the overflow list. */
1656:SRC/RTOS/tasks.c **** 				vListInsert( ( xList * ) pxOverflowDelayedTaskList, ( xListItem * ) &( pxCurrentTCB->xGenericLi
1657:SRC/RTOS/tasks.c **** 			}
1658:SRC/RTOS/tasks.c **** 			else
1659:SRC/RTOS/tasks.c **** 			{
1660:SRC/RTOS/tasks.c **** 				/* The wake time has not overflowed, so we can use the current block list. */
1661:SRC/RTOS/tasks.c **** 				vListInsert( ( xList * ) pxDelayedTaskList, ( xListItem * ) &( pxCurrentTCB->xGenericListItem )
1662:SRC/RTOS/tasks.c **** 			}
1663:SRC/RTOS/tasks.c **** 	}
1664:SRC/RTOS/tasks.c **** 	#endif
1665:SRC/RTOS/tasks.c **** }
 2129              	sp, #4]	@ tmp154, pxEventList
 2130 14cc 0CD08DE2 		ldr	r3, [r3, #12]	@ D.4078, <variable>.xListEnd.pxNext
 2131 14d0 04E09DE4 		ldr	r3, [r3, #12]	@ D.4079, <variable>.pvOwner
 2132 14d4 1EFF2FE1 		str	r3, [sp, #0]	@ D.4079, iftmp.136
 2133              		b	.L176	@
 2134              	.L175:
 2135              		mov	r3, #0	@,
 2136 14d8 00000000 		str	r3, [sp, #0]	@, iftmp.136
 2137 14dc DC000000 	.L176:
 2138 14e0 0C000000 		ldr	r3, [sp, #0]	@, iftmp.136
 2139 14e4 B0000000 		str	r3, [sp, #8]	@, pxUnblockedTCB
 2140 14e8 AC000000 		.loc 1 1684 0
 2141              		ldr	r3, [sp, #8]	@ tmp155, pxUnblockedTCB
 2142              		add	r3, r3, #24	@ D.4080, tmp155,
 2143              		mov	r0, r3	@, D.4080
 2144              		bl	vListRemove	@
 2145              		.loc 1 1686 0
 2146              		ldr	r3, .L183	@ tmp156,
 2147              		ldr	r3, [r3, #0]	@ uxSchedulerSuspended.137, uxSchedulerSuspended
1666:SRC/RTOS/tasks.c **** /*-----------------------------------------------------------*/
1667:SRC/RTOS/tasks.c **** 
ARM GAS  C:\DOCUME~1\ZAQUAD~1\USTAWI~1\Temp/ccIVGP1b.s 			page 68


1668:SRC/RTOS/tasks.c **** signed portBASE_TYPE xTaskRemoveFromEventList( const xList * const pxEventList )
1669:SRC/RTOS/tasks.c **** {
 2148              	edulerSuspended.137,
 2149              		bne	.L177	@,
 2150              		.loc 1 1688 0
 2151              		ldr	r3, [sp, #8]	@ tmp157, pxUnblockedTCB
 2152 14ec 04E02DE5 		add	r3, r3, #4	@ D.4082, tmp157,
 2153              		mov	r0, r3	@, D.4082
 2154 14f0 10D04DE2 		bl	vListRemove	@
 2155              		.loc 1 1689 0
 2156 14f4 04008DE5 		ldr	r3, [sp, #8]	@ tmp158, pxUnblockedTCB
1670:SRC/RTOS/tasks.c **** tskTCB *pxUnblockedTCB;
1671:SRC/RTOS/tasks.c **** portBASE_TYPE xReturn;
1672:SRC/RTOS/tasks.c **** 
1673:SRC/RTOS/tasks.c **** 	/* THIS FUNCTION MUST BE CALLED WITH INTERRUPTS DISABLED OR THE
1674:SRC/RTOS/tasks.c **** 	SCHEDULER SUSPENDED.  It can also be called from within an ISR. */
1675:SRC/RTOS/tasks.c **** 
1676:SRC/RTOS/tasks.c **** 	/* The event list is sorted in priority order, so we can remove the
1677:SRC/RTOS/tasks.c **** 	first in the list, remove the TCB from the delayed list, and add
1678:SRC/RTOS/tasks.c **** 	it to the ready list.
1679:SRC/RTOS/tasks.c **** 
1680:SRC/RTOS/tasks.c **** 	If an event is for a queue that is locked then this function will never
1681:SRC/RTOS/tasks.c **** 	get called - the lock count on the queue will get modified instead.  This
1682:SRC/RTOS/tasks.c **** 	means we can always expect exclusive access to the event list here. */
1683:SRC/RTOS/tasks.c **** 	pxUnblockedTCB = ( tskTCB * ) listGET_OWNER_OF_HEAD_ENTRY( pxEventList );
 2157              	[r3, #44]	@ D.4083, <variable>.uxPriority
 2158 14f8 04309DE5 		ldr	r3, .L183+4	@ tmp159,
 2159 14fc 003093E5 		ldr	r3, [r3, #0]	@ uxTopReadyPriority.138, uxTopReadyPriority
 2160 1500 000053E3 		cmp	r2, r3	@ D.4083, uxTopReadyPriority.138
 2161 1504 0400000A 		bls	.L178	@,
 2162 1508 04309DE5 		ldr	r3, [sp, #8]	@ tmp160, pxUnblockedTCB
 2163 150c 0C3093E5 		ldr	r2, [r3, #44]	@ uxTopReadyPriority.139, <variable>.uxPriority
 2164 1510 0C3093E5 		ldr	r3, .L183+4	@ tmp161,
 2165 1514 00308DE5 		str	r2, [r3, #0]	@ uxTopReadyPriority.139, uxTopReadyPriority
 2166 1518 010000EA 	.L178:
 2167              		ldr	r3, [sp, #8]	@ tmp162, pxUnblockedTCB
 2168 151c 0030A0E3 		ldr	r3, [r3, #44]	@ D.4086, <variable>.uxPriority
 2169 1520 00308DE5 		mov	r2, r3, asl #2	@ tmp164, tmp163,
 2170              		mov	r3, r2, asl #2	@ tmp165, tmp164,
 2171 1524 00309DE5 		add	r2, r2, r3	@ D.4087, tmp164, tmp165
 2172 1528 08308DE5 		ldr	r3, .L183+8	@ tmp166,
1684:SRC/RTOS/tasks.c **** 	vListRemove( &( pxUnblockedTCB->xEventListItem ) );
 2173              	@ D.4088, D.4087, tmp166
 2174 152c 08309DE5 		ldr	r3, [sp, #8]	@ tmp167, pxUnblockedTCB
 2175 1530 183083E2 		add	r3, r3, #4	@ D.4089, tmp167,
 2176 1534 0300A0E1 		mov	r0, r2	@, D.4088
 2177 1538 FEFFFFEB 		mov	r1, r3	@, D.4089
1685:SRC/RTOS/tasks.c **** 
1686:SRC/RTOS/tasks.c **** 	if( uxSchedulerSuspended == ( unsigned portBASE_TYPE ) pdFALSE )
 2178              	ListInsertEnd	@
 2179 153c CC309FE5 		b	.L179	@
 2180 1540 003093E5 	.L177:
 2181 1544 000053E3 		.loc 1 1695 0
 2182 1548 1A00001A 		ldr	r3, [sp, #8]	@ tmp168, pxUnblockedTCB
1687:SRC/RTOS/tasks.c **** 	{
1688:SRC/RTOS/tasks.c **** 		vListRemove( &( pxUnblockedTCB->xGenericListItem ) );
 2183              	r3, r3, #24	@ D.4090, tmp168,
ARM GAS  C:\DOCUME~1\ZAQUAD~1\USTAWI~1\Temp/ccIVGP1b.s 			page 69


 2184 154c 08309DE5 		ldr	r0, .L183+12	@,
 2185 1550 043083E2 		mov	r1, r3	@, D.4090
 2186 1554 0300A0E1 		bl	vListInsertEnd	@
 2187 1558 FEFFFFEB 	.L179:
1689:SRC/RTOS/tasks.c **** 		prvAddTaskToReadyQueue( pxUnblockedTCB );
 2188              	 1 1698 0
 2189 155c 08309DE5 		ldr	r3, [sp, #8]	@ tmp169, pxUnblockedTCB
 2190 1560 2C2093E5 		ldr	r2, [r3, #44]	@ D.4091, <variable>.uxPriority
 2191 1564 A8309FE5 		ldr	r3, .L183+16	@ tmp170,
 2192 1568 003093E5 		ldr	r3, [r3, #0]	@ pxCurrentTCB.140, pxCurrentTCB
 2193 156c 030052E1 		ldr	r3, [r3, #44]	@ D.4093, <variable>.uxPriority
 2194 1570 0300009A 		cmp	r2, r3	@ D.4091, D.4093
 2195 1574 08309DE5 		bcc	.L180	@,
 2196 1578 2C2093E5 		.loc 1 1704 0
 2197 157c 90309FE5 		mov	r3, #1	@ tmp171,
 2198 1580 002083E5 		str	r3, [sp, #12]	@ tmp171, xReturn
 2199              		b	.L181	@
 2200 1584 08309DE5 	.L180:
 2201 1588 2C3093E5 		.loc 1 1708 0
 2202 158c 0321A0E1 		mov	r3, #0	@ tmp172,
 2203 1590 0231A0E1 		str	r3, [sp, #12]	@ tmp172, xReturn
 2204 1594 032082E0 	.L181:
 2205 1598 78309FE5 		.loc 1 1711 0
 2206 159c 032082E0 		ldr	r3, [sp, #12]	@ D.4094, xReturn
 2207 15a0 08309DE5 		.loc 1 1712 0
 2208 15a4 043083E2 		mov	r0, r3	@, <result>
 2209 15a8 0200A0E1 		add	sp, sp, #16	@,,
 2210 15ac 0310A0E1 		ldr	lr, [sp], #4
 2211 15b0 FEFFFFEB 		bx	lr
 2212 15b4 040000EA 	.L184:
 2213              		.align	2
1690:SRC/RTOS/tasks.c **** 	}
1691:SRC/RTOS/tasks.c **** 	else
1692:SRC/RTOS/tasks.c **** 	{
1693:SRC/RTOS/tasks.c **** 		/* We cannot access the delayed or ready lists, so will hold this
1694:SRC/RTOS/tasks.c **** 		task pending until the scheduler is resumed. */
1695:SRC/RTOS/tasks.c **** 		vListInsertEnd( ( xList * ) &( xPendingReadyList ), &( pxUnblockedTCB->xEventListItem ) );
 2214              	uspended
 2215 15b8 08309DE5 		.word	uxTopReadyPriority
 2216 15bc 183083E2 		.word	pxReadyTasksLists
 2217 15c0 54009FE5 		.word	xPendingReadyList
 2218 15c4 0310A0E1 		.word	pxCurrentTCB
 2219 15c8 FEFFFFEB 	.LFE24:
 2220              		.size	xTaskRemoveFromEventList, .-xTaskRemoveFromEventList
1696:SRC/RTOS/tasks.c **** 	}
1697:SRC/RTOS/tasks.c **** 
1698:SRC/RTOS/tasks.c **** 	if( pxUnblockedTCB->uxPriority >= pxCurrentTCB->uxPriority )
 2221              		2
 2222 15cc 08309DE5 		.global	vTaskSetTimeOutState
 2223 15d0 2C2093E5 		.type	vTaskSetTimeOutState, %function
 2224 15d4 44309FE5 	vTaskSetTimeOutState:
 2225 15d8 003093E5 	.LFB25:
 2226 15dc 2C3093E5 		.loc 1 1716 0
 2227 15e0 030052E1 		@ Function supports interworking.
 2228 15e4 0200003A 		@ args = 0, pretend = 0, frame = 4
1699:SRC/RTOS/tasks.c **** 	{
1700:SRC/RTOS/tasks.c **** 		/* Return true if the task removed from the event list has
ARM GAS  C:\DOCUME~1\ZAQUAD~1\USTAWI~1\Temp/ccIVGP1b.s 			page 70


1701:SRC/RTOS/tasks.c **** 		a higher priority than the calling task.  This allows
1702:SRC/RTOS/tasks.c **** 		the calling task to know if it should force a context
1703:SRC/RTOS/tasks.c **** 		switch now. */
1704:SRC/RTOS/tasks.c **** 		xReturn = pdTRUE;
 2229              	_needed = 0, uses_anonymous_args = 0
 2230 15e8 0130A0E3 		@ link register save eliminated.
 2231 15ec 0C308DE5 		sub	sp, sp, #4	@,,
 2232 15f0 010000EA 	.LCFI39:
 2233              		str	r0, [sp, #0]	@ pxTimeOut, pxTimeOut
1705:SRC/RTOS/tasks.c **** 	}
1706:SRC/RTOS/tasks.c **** 	else
1707:SRC/RTOS/tasks.c **** 	{
1708:SRC/RTOS/tasks.c **** 		xReturn = pdFALSE;
 2234              	 1 1717 0
 2235 15f4 0030A0E3 		ldr	r3, .L187	@ tmp135,
 2236 15f8 0C308DE5 		ldr	r2, [r3, #0]	@ xNumOfOverflows.141, xNumOfOverflows
 2237              		ldr	r3, [sp, #0]	@ tmp136, pxTimeOut
1709:SRC/RTOS/tasks.c **** 	}
1710:SRC/RTOS/tasks.c **** 
1711:SRC/RTOS/tasks.c **** 	return xReturn;
 2238              		r2, [r3, #0]	@ xNumOfOverflows.141, <variable>.xOverflowCount
 2239 15fc 0C309DE5 		.loc 1 1718 0
1712:SRC/RTOS/tasks.c **** }
 2240              	dr	r3, .L187+4	@ tmp137,
 2241 1600 0300A0E1 		ldr	r2, [r3, #0]	@ xTickCount.142, xTickCount
 2242 1604 10D08DE2 		ldr	r3, [sp, #0]	@ tmp138, pxTimeOut
 2243 1608 04E09DE4 		str	r2, [r3, #4]	@ xTickCount.142, <variable>.xTimeOnEntering
 2244 160c 1EFF2FE1 		.loc 1 1719 0
 2245              		add	sp, sp, #4	@,,
 2246              		bx	lr
 2247              	.L188:
 2248 1610 1C000000 		.align	2
 2249 1614 14000000 	.L187:
 2250 1618 34000000 		.word	xNumOfOverflows
 2251 161c B4000000 		.word	xTickCount
 2252 1620 00000000 	.LFE25:
 2253              		.size	vTaskSetTimeOutState, .-vTaskSetTimeOutState
 2254              		.align	2
 2255              		.global	xTaskCheckForTimeOut
 2256              		.type	xTaskCheckForTimeOut, %function
 2257              	xTaskCheckForTimeOut:
 2258              	.LFB26:
 2259              		.loc 1 1723 0
1713:SRC/RTOS/tasks.c **** /*-----------------------------------------------------------*/
1714:SRC/RTOS/tasks.c **** 
1715:SRC/RTOS/tasks.c **** void vTaskSetTimeOutState( xTimeOutType * const pxTimeOut )
1716:SRC/RTOS/tasks.c **** {
 2260              	 interworking.
 2261              		@ args = 0, pretend = 0, frame = 12
 2262              		@ frame_needed = 0, uses_anonymous_args = 0
 2263              		str	lr, [sp, #-4]!	@,
 2264              	.LCFI40:
 2265 1624 04D04DE2 		sub	sp, sp, #12	@,,
 2266              	.LCFI41:
 2267 1628 00008DE5 		str	r0, [sp, #4]	@ pxTimeOut, pxTimeOut
1717:SRC/RTOS/tasks.c **** 	pxTimeOut->xOverflowCount = xNumOfOverflows;
 2268              	 [sp, #0]	@ pxTicksToWait, pxTicksToWait
ARM GAS  C:\DOCUME~1\ZAQUAD~1\USTAWI~1\Temp/ccIVGP1b.s 			page 71


 2269 162c 20309FE5 		.loc 1 1726 0
 2270 1630 002093E5 		bl	vPortEnterCritical	@
 2271 1634 00309DE5 		.loc 1 1732 0
 2272 1638 002083E5 		ldr	r3, [sp, #0]	@ tmp149, pxTicksToWait
1718:SRC/RTOS/tasks.c **** 	pxTimeOut->xTimeOnEntering = xTickCount;
 2273              	r3, [r3, #0]	@ D.4117,
 2274 163c 14309FE5 		cmn	r3, #1	@ D.4117,
 2275 1640 002093E5 		bne	.L190	@,
 2276 1644 00309DE5 		.loc 1 1734 0
 2277 1648 042083E5 		mov	r3, #0	@ tmp150,
1719:SRC/RTOS/tasks.c **** }
 2278              	r3, [sp, #8]	@ tmp150, xReturn
 2279 164c 04D08DE2 		b	.L191	@
 2280 1650 1EFF2FE1 	.L190:
 2281              		.loc 1 1739 0
 2282              		ldr	r3, [sp, #4]	@ tmp151, pxTimeOut
 2283              		ldr	r2, [r3, #0]	@ D.4120, <variable>.xOverflowCount
 2284 1654 28000000 		ldr	r3, .L195	@ tmp152,
 2285 1658 0C000000 		ldr	r3, [r3, #0]	@ xNumOfOverflows.143, xNumOfOverflows
 2286              		cmp	r2, r3	@ D.4120, xNumOfOverflows.143
 2287              		beq	.L192	@,
 2288              		ldr	r3, [sp, #4]	@ tmp153, pxTimeOut
 2289              		ldr	r2, [r3, #4]	@ D.4122, <variable>.xTimeOnEntering
 2290              		ldr	r3, .L195+4	@ tmp154,
 2291              		ldr	r3, [r3, #0]	@ xTickCount.144, xTickCount
 2292              		cmp	r2, r3	@ D.4122, xTickCount.144
1720:SRC/RTOS/tasks.c **** /*-----------------------------------------------------------*/
1721:SRC/RTOS/tasks.c **** 
1722:SRC/RTOS/tasks.c **** portBASE_TYPE xTaskCheckForTimeOut( xTimeOutType * const pxTimeOut, portTickType * const pxTicksToW
1723:SRC/RTOS/tasks.c **** {
 2293              	.loc 1 1745 0
 2294              		mov	r3, #1	@ tmp155,
 2295              		str	r3, [sp, #8]	@ tmp155, xReturn
 2296              		b	.L191	@
 2297 165c 04E02DE5 	.L192:
 2298              		.loc 1 1747 0
 2299 1660 0CD04DE2 		ldr	r3, .L195+4	@ tmp156,
 2300              		ldr	r2, [r3, #0]	@ xTickCount.145, xTickCount
 2301 1664 04008DE5 		ldr	r3, [sp, #4]	@ tmp157, pxTimeOut
 2302 1668 00108DE5 		ldr	r3, [r3, #4]	@ D.4125, <variable>.xTimeOnEntering
1724:SRC/RTOS/tasks.c **** portBASE_TYPE xReturn;
1725:SRC/RTOS/tasks.c **** 
1726:SRC/RTOS/tasks.c **** 	portENTER_CRITICAL();
 2303              	3, r2	@ D.4126, D.4125, xTickCount.145
 2304 166c FEFFFFEB 		ldr	r3, [sp, #0]	@ tmp158, pxTicksToWait
1727:SRC/RTOS/tasks.c **** 	{
1728:SRC/RTOS/tasks.c **** 		#if ( INCLUDE_vTaskSuspend == 1 )
1729:SRC/RTOS/tasks.c **** 			/* If INCLUDE_vTaskSuspend is set to 1 and the block time specified is
1730:SRC/RTOS/tasks.c **** 			the maximum block time then the task should block indefinitely, and
1731:SRC/RTOS/tasks.c **** 			therefore never time out. */
1732:SRC/RTOS/tasks.c **** 			if( *pxTicksToWait == portMAX_DELAY )
 2305              	dr	r3, [r3, #0]	@ D.4127,
 2306 1670 00309DE5 		cmp	r2, r3	@ D.4126, D.4127
 2307 1674 003093E5 		bcs	.L193	@,
 2308 1678 010073E3 		.loc 1 1750 0
 2309 167c 0200001A 		ldr	r3, [sp, #0]	@ tmp159, pxTicksToWait
1733:SRC/RTOS/tasks.c **** 			{
ARM GAS  C:\DOCUME~1\ZAQUAD~1\USTAWI~1\Temp/ccIVGP1b.s 			page 72


1734:SRC/RTOS/tasks.c **** 				xReturn = pdFALSE;
 2310              	r1, [r3, #0]	@ D.4128,
 2311 1680 0030A0E3 		ldr	r3, [sp, #4]	@ tmp160, pxTimeOut
 2312 1684 08308DE5 		ldr	r2, [r3, #4]	@ D.4129, <variable>.xTimeOnEntering
 2313 1688 280000EA 		ldr	r3, .L195+4	@ tmp161,
 2314              		ldr	r3, [r3, #0]	@ xTickCount.146, xTickCount
1735:SRC/RTOS/tasks.c **** 			}
1736:SRC/RTOS/tasks.c **** 			else /* We are not blocking indefinitely, perform the checks below. */
1737:SRC/RTOS/tasks.c **** 		#endif
1738:SRC/RTOS/tasks.c **** 
1739:SRC/RTOS/tasks.c **** 		if( ( xNumOfOverflows != pxTimeOut->xOverflowCount ) && ( ( portTickType ) xTickCount >= ( portTi
 2315              	r3, r3, r2	@ D.4131, xTickCount.146, D.4129
 2316 168c 04309DE5 		add	r2, r1, r3	@ D.4132, D.4128, D.4131
 2317 1690 002093E5 		ldr	r3, [sp, #0]	@ tmp162, pxTicksToWait
 2318 1694 AC309FE5 		str	r2, [r3, #0]	@ D.4132,
 2319 1698 003093E5 		.loc 1 1751 0
 2320 169c 030052E1 		ldr	r0, [sp, #4]	@, pxTimeOut
 2321 16a0 0800000A 		bl	vTaskSetTimeOutState	@
 2322 16a4 04309DE5 		.loc 1 1752 0
 2323 16a8 042093E5 		mov	r3, #0	@ tmp163,
 2324 16ac 98309FE5 		str	r3, [sp, #8]	@ tmp163, xReturn
 2325 16b0 003093E5 		b	.L191	@
 2326 16b4 030052E1 	.L193:
 2327 16b8 0200008A 		.loc 1 1756 0
1740:SRC/RTOS/tasks.c **** 		{
1741:SRC/RTOS/tasks.c **** 			/* The tick count is greater than the time at which vTaskSetTimeout()
1742:SRC/RTOS/tasks.c **** 			was called, but has also overflowed since vTaskSetTimeOut() was called.
1743:SRC/RTOS/tasks.c **** 			It must have wrapped all the way around and gone past us again. This
1744:SRC/RTOS/tasks.c **** 			passed since vTaskSetTimeout() was called. */
1745:SRC/RTOS/tasks.c **** 			xReturn = pdTRUE;
 2328              	 tmp164,
 2329 16bc 0130A0E3 		str	r3, [sp, #8]	@ tmp164, xReturn
 2330 16c0 08308DE5 	.L191:
 2331 16c4 190000EA 		.loc 1 1759 0
 2332              		bl	vPortExitCritical	@
1746:SRC/RTOS/tasks.c **** 		}
1747:SRC/RTOS/tasks.c **** 		else if( ( ( portTickType ) ( ( portTickType ) xTickCount - ( portTickType ) pxTimeOut->xTimeOnEn
 2333              	 1 1761 0
 2334 16c8 7C309FE5 		ldr	r3, [sp, #8]	@ D.4133, xReturn
 2335 16cc 002093E5 		.loc 1 1762 0
 2336 16d0 04309DE5 		mov	r0, r3	@, <result>
 2337 16d4 043093E5 		add	sp, sp, #12	@,,
 2338 16d8 022063E0 		ldr	lr, [sp], #4
 2339 16dc 00309DE5 		bx	lr
 2340 16e0 003093E5 	.L196:
 2341 16e4 030052E1 		.align	2
 2342 16e8 0E00002A 	.L195:
1748:SRC/RTOS/tasks.c **** 		{
1749:SRC/RTOS/tasks.c **** 			/* Not a genuine timeout. Adjust parameters for time remaining. */
1750:SRC/RTOS/tasks.c **** 			*pxTicksToWait -= ( ( portTickType ) xTickCount - ( portTickType ) pxTimeOut->xTimeOnEntering );
 2343              	mOfOverflows
 2344 16ec 00309DE5 		.word	xTickCount
 2345 16f0 001093E5 	.LFE26:
 2346 16f4 04309DE5 		.size	xTaskCheckForTimeOut, .-xTaskCheckForTimeOut
 2347 16f8 042093E5 		.align	2
 2348 16fc 48309FE5 		.global	vTaskMissedYield
 2349 1700 003093E5 		.type	vTaskMissedYield, %function
ARM GAS  C:\DOCUME~1\ZAQUAD~1\USTAWI~1\Temp/ccIVGP1b.s 			page 73


 2350 1704 023063E0 	vTaskMissedYield:
 2351 1708 032081E0 	.LFB27:
 2352 170c 00309DE5 		.loc 1 1766 0
 2353 1710 002083E5 		@ Function supports interworking.
1751:SRC/RTOS/tasks.c **** 			vTaskSetTimeOutState( pxTimeOut );
 2354              	, pretend = 0, frame = 0
 2355 1714 04009DE5 		@ frame_needed = 0, uses_anonymous_args = 0
 2356 1718 FEFFFFEB 		@ link register save eliminated.
1752:SRC/RTOS/tasks.c **** 			xReturn = pdFALSE;
 2357              	oc 1 1767 0
 2358 171c 0030A0E3 		ldr	r2, .L199	@ tmp133,
 2359 1720 08308DE5 		mov	r3, #1	@ tmp134,
 2360 1724 010000EA 		str	r3, [r2, #0]	@ tmp134, xMissedYield
 2361              		.loc 1 1768 0
1753:SRC/RTOS/tasks.c **** 		}
1754:SRC/RTOS/tasks.c **** 		else
1755:SRC/RTOS/tasks.c **** 		{
1756:SRC/RTOS/tasks.c **** 			xReturn = pdTRUE;
 2362              	r	@
 2363 1728 0130A0E3 	.L200:
 2364 172c 08308DE5 		.align	2
 2365              	.L199:
1757:SRC/RTOS/tasks.c **** 		}
1758:SRC/RTOS/tasks.c **** 	}
1759:SRC/RTOS/tasks.c **** 	portEXIT_CRITICAL();
 2366              	rd	xMissedYield
 2367 1730 FEFFFFEB 	.LFE27:
1760:SRC/RTOS/tasks.c **** 
1761:SRC/RTOS/tasks.c **** 	return xReturn;
 2368              	size	vTaskMissedYield, .-vTaskMissedYield
 2369 1734 08309DE5 		.align	2
1762:SRC/RTOS/tasks.c **** }
 2370              	type	prvIdleTask, %function
 2371 1738 0300A0E1 	prvIdleTask:
 2372 173c 0CD08DE2 	.LFB28:
 2373 1740 04E09DE4 		.loc 1 1782 0
 2374 1744 1EFF2FE1 		@ Function supports interworking.
 2375              		@ args = 0, pretend = 0, frame = 4
 2376              		@ frame_needed = 0, uses_anonymous_args = 0
 2377              		str	lr, [sp, #-4]!	@,
 2378 1748 28000000 	.LCFI42:
 2379 174c 0C000000 		sub	sp, sp, #4	@,,
 2380              	.LCFI43:
 2381              		str	r0, [sp, #0]	@ pvParameters, pvParameters
 2382              	.L203:
 2383              		.loc 1 1789 0
 2384              		bl	prvCheckTasksWaitingTermination	@
 2385              		.loc 1 1812 0
 2386              		ldr	r3, .L205	@ tmp134,
1763:SRC/RTOS/tasks.c **** /*-----------------------------------------------------------*/
1764:SRC/RTOS/tasks.c **** 
1765:SRC/RTOS/tasks.c **** void vTaskMissedYield( void )
1766:SRC/RTOS/tasks.c **** {
 2387              		@ D.4150, <variable>.uxNumberOfItems
 2388              		cmp	r3, #1	@ D.4150,
 2389              		bls	.L203	@,
 2390              		.loc 1 1814 0
ARM GAS  C:\DOCUME~1\ZAQUAD~1\USTAWI~1\Temp/ccIVGP1b.s 			page 74


 2391              	@ 1814 "SRC/RTOS/tasks.c" 1
1767:SRC/RTOS/tasks.c **** 	xMissedYield = pdTRUE;
 2392              	0
 2393 1750 08209FE5 	@ 0 "" 2
 2394 1754 0130A0E3 		b	.L203	@
 2395 1758 003082E5 	.L206:
1768:SRC/RTOS/tasks.c **** }
 2396              	ign	2
 2397 175c 1EFF2FE1 	.L205:
 2398              		.word	pxReadyTasksLists
 2399              	.LFE28:
 2400              		.size	prvIdleTask, .-prvIdleTask
 2401 1760 24000000 		.align	2
 2402              		.type	prvInitialiseTCBVariables, %function
 2403              	prvInitialiseTCBVariables:
 2404              	.LFB29:
 2405              		.loc 1 1847 0
 2406              		@ Function supports interworking.
 2407              		@ args = 4, pretend = 0, frame = 20
1769:SRC/RTOS/tasks.c **** 
1770:SRC/RTOS/tasks.c **** /*
1771:SRC/RTOS/tasks.c ****  * -----------------------------------------------------------
1772:SRC/RTOS/tasks.c ****  * The Idle task.
1773:SRC/RTOS/tasks.c ****  * ----------------------------------------------------------
1774:SRC/RTOS/tasks.c ****  *
1775:SRC/RTOS/tasks.c ****  * The portTASK_FUNCTION() macro is used to allow port/compiler specific
1776:SRC/RTOS/tasks.c ****  * language extensions.  The equivalent prototype for this function is:
1777:SRC/RTOS/tasks.c ****  *
1778:SRC/RTOS/tasks.c ****  * void prvIdleTask( void *pvParameters );
1779:SRC/RTOS/tasks.c ****  *
1780:SRC/RTOS/tasks.c ****  */
1781:SRC/RTOS/tasks.c **** static portTASK_FUNCTION( prvIdleTask, pvParameters )
1782:SRC/RTOS/tasks.c **** {
 2408              	ded = 0, uses_anonymous_args = 0
 2409              		str	lr, [sp, #-4]!	@,
 2410              	.LCFI44:
 2411              		sub	sp, sp, #20	@,,
 2412 1764 04E02DE5 	.LCFI45:
 2413              		str	r0, [sp, #16]	@ pxTCB, pxTCB
 2414 1768 04D04DE2 		str	r1, [sp, #12]	@ pcName, pcName
 2415              		str	r2, [sp, #8]	@ uxPriority, uxPriority
 2416 176c 00008DE5 		str	r3, [sp, #4]	@ xRegions, xRegions
 2417              		ldr	r3, [sp, #24]	@ tmp139, usStackDepth
1783:SRC/RTOS/tasks.c **** 	/* Stop warnings. */
1784:SRC/RTOS/tasks.c **** 	( void ) pvParameters;
1785:SRC/RTOS/tasks.c **** 
1786:SRC/RTOS/tasks.c **** 	for( ;; )
1787:SRC/RTOS/tasks.c **** 	{
1788:SRC/RTOS/tasks.c **** 		/* See if any tasks have been deleted. */
1789:SRC/RTOS/tasks.c **** 		prvCheckTasksWaitingTermination();
 2418              	[sp, #0]	@ movhi	@ tmp139, usStackDepth
 2419 1770 660000EB 		.loc 1 1852 0
1790:SRC/RTOS/tasks.c **** 
1791:SRC/RTOS/tasks.c **** 		#if ( configUSE_PREEMPTION == 0 )
1792:SRC/RTOS/tasks.c **** 		{
1793:SRC/RTOS/tasks.c **** 			/* If we are not using preemption we keep forcing a task switch to
1794:SRC/RTOS/tasks.c **** 			see if any other task has become available.  If we are using
ARM GAS  C:\DOCUME~1\ZAQUAD~1\USTAWI~1\Temp/ccIVGP1b.s 			page 75


1795:SRC/RTOS/tasks.c **** 			preemption we don't need to do this as any task becoming available
1796:SRC/RTOS/tasks.c **** 			will automatically get the processor anyway. */
1797:SRC/RTOS/tasks.c **** 			taskYIELD();
1798:SRC/RTOS/tasks.c **** 		}
1799:SRC/RTOS/tasks.c **** 		#endif
1800:SRC/RTOS/tasks.c **** 
1801:SRC/RTOS/tasks.c **** 		#if ( ( configUSE_PREEMPTION == 1 ) && ( configIDLE_SHOULD_YIELD == 1 ) )
1802:SRC/RTOS/tasks.c **** 		{
1803:SRC/RTOS/tasks.c **** 			/* When using preemption tasks of equal priority will be
1804:SRC/RTOS/tasks.c **** 			timesliced.  If a task that is sharing the idle priority is ready
1805:SRC/RTOS/tasks.c **** 			to run then the idle task should yield before the end of the
1806:SRC/RTOS/tasks.c **** 			timeslice.
1807:SRC/RTOS/tasks.c **** 
1808:SRC/RTOS/tasks.c **** 			A critical region is not required here as we are just reading from
1809:SRC/RTOS/tasks.c **** 			the list, and an occasional incorrect value will not matter.  If
1810:SRC/RTOS/tasks.c **** 			the ready list at the idle priority contains more than one task
1811:SRC/RTOS/tasks.c **** 			then a task other than the idle task is ready to execute. */
1812:SRC/RTOS/tasks.c **** 			if( listCURRENT_LIST_LENGTH( &( pxReadyTasksLists[ tskIDLE_PRIORITY ] ) ) > ( unsigned portBASE_
 2420              	dr	r3, [sp, #16]	@ tmp140, pxTCB
 2421 1774 10309FE5 		add	r3, r3, #52	@ D.4160, tmp140,
 2422 1778 003093E5 		ldr	r2, [sp, #12]	@ pcName.147, pcName
 2423 177c 010053E3 		mov	r0, r3	@, D.4161
 2424 1780 FAFFFF9A 		mov	r1, r2	@, pcName.147
1813:SRC/RTOS/tasks.c **** 			{
1814:SRC/RTOS/tasks.c **** 				taskYIELD();
 2425              	r2, #10	@,
 2426              		bl	strncpy	@
 2427 1784 000000EF 		.loc 1 1855 0
 2428              		ldr	r2, [sp, #16]	@ tmp141, pxTCB
 2429 1788 F8FFFFEA 		mov	r3, #0	@ tmp142,
 2430              		strb	r3, [r2, #61]	@ tmp143, <variable>.pcTaskName
 2431              		.loc 1 1859 0
 2432              		ldr	r3, [sp, #8]	@ tmp144, uxPriority
 2433 178c 34000000 		cmp	r3, #3	@ tmp144,
 2434              		bls	.L208	@,
 2435              		.loc 1 1861 0
 2436              		mov	r3, #3	@ tmp145,
 2437              		str	r3, [sp, #8]	@ tmp145, uxPriority
 2438              	.L208:
 2439              		.loc 1 1864 0
1815:SRC/RTOS/tasks.c **** 			}
1816:SRC/RTOS/tasks.c **** 		}
1817:SRC/RTOS/tasks.c **** 		#endif
1818:SRC/RTOS/tasks.c **** 
1819:SRC/RTOS/tasks.c **** 		#if ( configUSE_IDLE_HOOK == 1 )
1820:SRC/RTOS/tasks.c **** 		{
1821:SRC/RTOS/tasks.c **** 			extern void vApplicationIdleHook( void );
1822:SRC/RTOS/tasks.c **** 
1823:SRC/RTOS/tasks.c **** 			/* Call the user defined function from within the idle task.  This
1824:SRC/RTOS/tasks.c **** 			allows the application designer to add background functionality
1825:SRC/RTOS/tasks.c **** 			without the overhead of a separate task.
1826:SRC/RTOS/tasks.c **** 			NOTE: vApplicationIdleHook() MUST NOT, UNDER ANY CIRCUMSTANCES,
1827:SRC/RTOS/tasks.c **** 			CALL A FUNCTION THAT MIGHT BLOCK. */
1828:SRC/RTOS/tasks.c **** 			vApplicationIdleHook();
1829:SRC/RTOS/tasks.c **** 		}
1830:SRC/RTOS/tasks.c **** 		#endif
1831:SRC/RTOS/tasks.c **** 	}
ARM GAS  C:\DOCUME~1\ZAQUAD~1\USTAWI~1\Temp/ccIVGP1b.s 			page 76


1832:SRC/RTOS/tasks.c **** } /*lint !e715 pvParameters is not accessed but all task functions require the same prototype. */
1833:SRC/RTOS/tasks.c **** 
1834:SRC/RTOS/tasks.c **** 
1835:SRC/RTOS/tasks.c **** 
1836:SRC/RTOS/tasks.c **** 
1837:SRC/RTOS/tasks.c **** 
1838:SRC/RTOS/tasks.c **** 
1839:SRC/RTOS/tasks.c **** 
1840:SRC/RTOS/tasks.c **** /*-----------------------------------------------------------
1841:SRC/RTOS/tasks.c ****  * File private functions documented at the top of the file.
1842:SRC/RTOS/tasks.c ****  *----------------------------------------------------------*/
1843:SRC/RTOS/tasks.c **** 
1844:SRC/RTOS/tasks.c **** 
1845:SRC/RTOS/tasks.c **** 
1846:SRC/RTOS/tasks.c **** static void prvInitialiseTCBVariables( tskTCB *pxTCB, const signed char * const pcName, unsigned po
1847:SRC/RTOS/tasks.c **** {
 2440              	16]	@ tmp146, pxTCB
 2441              		ldr	r3, [sp, #8]	@ tmp147, uxPriority
 2442              		str	r3, [r2, #44]	@ tmp147, <variable>.uxPriority
 2443              		.loc 1 1867 0
 2444 1790 04E02DE5 		ldr	r2, [sp, #16]	@ tmp148, pxTCB
 2445              		ldr	r3, [sp, #8]	@ tmp149, uxPriority
 2446 1794 14D04DE2 		str	r3, [r2, #68]	@ tmp149, <variable>.uxBasePriority
 2447              		.loc 1 1871 0
 2448 1798 10008DE5 		ldr	r3, [sp, #16]	@ tmp150, pxTCB
 2449 179c 0C108DE5 		add	r3, r3, #4	@ D.4163, tmp150,
 2450 17a0 08208DE5 		mov	r0, r3	@, D.4163
 2451 17a4 04308DE5 		bl	vListInitialiseItem	@
 2452 17a8 18309DE5 		.loc 1 1872 0
 2453 17ac B030CDE1 		ldr	r3, [sp, #16]	@ tmp151, pxTCB
1848:SRC/RTOS/tasks.c **** 	/* Store the function name in the TCB. */
1849:SRC/RTOS/tasks.c **** 	#if configMAX_TASK_NAME_LEN > 1
1850:SRC/RTOS/tasks.c **** 	{
1851:SRC/RTOS/tasks.c **** 		/* Don't bring strncpy into the build unnecessarily. */
1852:SRC/RTOS/tasks.c **** 		strncpy( ( char * ) pxTCB->pcTaskName, ( const char * ) pcName, ( unsigned short ) configMAX_TASK
 2454              	24	@ D.4164, tmp151,
 2455 17b0 10309DE5 		mov	r0, r3	@, D.4164
 2456 17b4 343083E2 		bl	vListInitialiseItem	@
 2457 17b8 0C209DE5 		.loc 1 1876 0
 2458 17bc 0300A0E1 		ldr	r2, [sp, #16]	@ tmp152, pxTCB
 2459 17c0 0210A0E1 		ldr	r3, [sp, #16]	@ tmp153, pxTCB
 2460 17c4 0A20A0E3 		str	r3, [r2, #16]	@ tmp153, <variable>.xGenericListItem.pvOwner
 2461 17c8 FEFFFFEB 		.loc 1 1879 0
1853:SRC/RTOS/tasks.c **** 	}
1854:SRC/RTOS/tasks.c **** 	#endif
1855:SRC/RTOS/tasks.c **** 	pxTCB->pcTaskName[ ( unsigned short ) configMAX_TASK_NAME_LEN - ( unsigned short ) 1 ] = '\0';
 2462              	 [sp, #8]	@ tmp154, uxPriority
 2463 17cc 10209DE5 		rsb	r2, r3, #4	@ D.4165, tmp154,
 2464 17d0 0030A0E3 		ldr	r3, [sp, #16]	@ tmp155, pxTCB
 2465 17d4 3D30C2E5 		str	r2, [r3, #24]	@ D.4165, <variable>.xEventListItem.xItemValue
1856:SRC/RTOS/tasks.c **** 
1857:SRC/RTOS/tasks.c **** 	/* This is used as an array index so must ensure it's not too large.  First
1858:SRC/RTOS/tasks.c **** 	remove the privilege bit if one is present. */
1859:SRC/RTOS/tasks.c **** 	if( uxPriority >= configMAX_PRIORITIES )
 2466              	c 1 1880 0
 2467 17d8 08309DE5 		ldr	r2, [sp, #16]	@ tmp156, pxTCB
 2468 17dc 030053E3 		ldr	r3, [sp, #16]	@ tmp157, pxTCB
ARM GAS  C:\DOCUME~1\ZAQUAD~1\USTAWI~1\Temp/ccIVGP1b.s 			page 77


 2469 17e0 0100009A 		str	r3, [r2, #36]	@ tmp157, <variable>.xEventListItem.pvOwner
1860:SRC/RTOS/tasks.c **** 	{
1861:SRC/RTOS/tasks.c **** 		uxPriority = configMAX_PRIORITIES - 1;
 2470              	c 1 1910 0
 2471 17e4 0330A0E3 		add	sp, sp, #20	@,,
 2472 17e8 08308DE5 		ldr	lr, [sp], #4
 2473              		bx	lr
1862:SRC/RTOS/tasks.c **** 	}
1863:SRC/RTOS/tasks.c **** 
1864:SRC/RTOS/tasks.c **** 	pxTCB->uxPriority = uxPriority;
 2474              	29:
 2475 17ec 10209DE5 		.size	prvInitialiseTCBVariables, .-prvInitialiseTCBVariables
 2476 17f0 08309DE5 		.align	2
 2477 17f4 2C3082E5 		.type	prvInitialiseTaskLists, %function
1865:SRC/RTOS/tasks.c **** 	#if ( configUSE_MUTEXES == 1 )
1866:SRC/RTOS/tasks.c **** 	{
1867:SRC/RTOS/tasks.c **** 		pxTCB->uxBasePriority = uxPriority;
 2478              	nitialiseTaskLists:
 2479 17f8 10209DE5 	.LFB30:
 2480 17fc 08309DE5 		.loc 1 1933 0
 2481 1800 443082E5 		@ Function supports interworking.
1868:SRC/RTOS/tasks.c **** 	}
1869:SRC/RTOS/tasks.c **** 	#endif
1870:SRC/RTOS/tasks.c **** 
1871:SRC/RTOS/tasks.c **** 	vListInitialiseItem( &( pxTCB->xGenericListItem ) );
 2482              	rgs = 0, pretend = 0, frame = 4
 2483 1804 10309DE5 		@ frame_needed = 0, uses_anonymous_args = 0
 2484 1808 043083E2 		str	lr, [sp, #-4]!	@,
 2485 180c 0300A0E1 	.LCFI46:
 2486 1810 FEFFFFEB 		sub	sp, sp, #4	@,,
1872:SRC/RTOS/tasks.c **** 	vListInitialiseItem( &( pxTCB->xEventListItem ) );
 2487              	47:
 2488 1814 10309DE5 		.loc 1 1936 0
 2489 1818 183083E2 		mov	r3, #0	@ tmp135,
 2490 181c 0300A0E1 		str	r3, [sp, #0]	@ tmp135, uxPriority
 2491 1820 FEFFFFEB 		b	.L211	@
1873:SRC/RTOS/tasks.c **** 
1874:SRC/RTOS/tasks.c **** 	/* Set the pxTCB as a link back from the xListItem.  This is so we can get
1875:SRC/RTOS/tasks.c **** 	back to	the containing TCB from a generic item in a list. */
1876:SRC/RTOS/tasks.c **** 	listSET_LIST_ITEM_OWNER( &( pxTCB->xGenericListItem ), pxTCB );
 2492              	:
 2493 1824 10209DE5 		.loc 1 1938 0
 2494 1828 10309DE5 		ldr	r3, [sp, #0]	@ tmp136, uxPriority
 2495 182c 103082E5 		mov	r2, r3, asl #2	@ tmp138, tmp137,
1877:SRC/RTOS/tasks.c **** 
1878:SRC/RTOS/tasks.c **** 	/* Event lists are always in priority order. */
1879:SRC/RTOS/tasks.c **** 	listSET_LIST_ITEM_VALUE( &( pxTCB->xEventListItem ), configMAX_PRIORITIES - ( portTickType ) uxPri
 2496              		r3, r2, asl #2	@ tmp139, tmp138,
 2497 1830 08309DE5 		add	r2, r2, r3	@ D.4175, tmp138, tmp139
 2498 1834 042063E2 		ldr	r3, .L214	@ tmp140,
 2499 1838 10309DE5 		add	r3, r2, r3	@ D.4176, D.4175, tmp140
 2500 183c 182083E5 		mov	r0, r3	@, D.4176
1880:SRC/RTOS/tasks.c **** 	listSET_LIST_ITEM_OWNER( &( pxTCB->xEventListItem ), pxTCB );
 2501              	ListInitialise	@
 2502 1840 10209DE5 		.loc 1 1936 0
 2503 1844 10309DE5 		ldr	r3, [sp, #0]	@ tmp141, uxPriority
 2504 1848 243082E5 		add	r3, r3, #1	@ tmp142, tmp141,
ARM GAS  C:\DOCUME~1\ZAQUAD~1\USTAWI~1\Temp/ccIVGP1b.s 			page 78


1881:SRC/RTOS/tasks.c **** 
1882:SRC/RTOS/tasks.c **** 	#if ( portCRITICAL_NESTING_IN_TCB == 1 )
1883:SRC/RTOS/tasks.c **** 	{
1884:SRC/RTOS/tasks.c **** 		pxTCB->uxCriticalNesting = ( unsigned portBASE_TYPE ) 0;
1885:SRC/RTOS/tasks.c **** 	}
1886:SRC/RTOS/tasks.c **** 	#endif
1887:SRC/RTOS/tasks.c **** 
1888:SRC/RTOS/tasks.c **** 	#if ( configUSE_APPLICATION_TASK_TAG == 1 )
1889:SRC/RTOS/tasks.c **** 	{
1890:SRC/RTOS/tasks.c **** 		pxTCB->pxTaskTag = NULL;
1891:SRC/RTOS/tasks.c **** 	}
1892:SRC/RTOS/tasks.c **** 	#endif
1893:SRC/RTOS/tasks.c **** 
1894:SRC/RTOS/tasks.c **** 	#if ( configGENERATE_RUN_TIME_STATS == 1 )
1895:SRC/RTOS/tasks.c **** 	{
1896:SRC/RTOS/tasks.c **** 		pxTCB->ulRunTimeCounter = 0UL;
1897:SRC/RTOS/tasks.c **** 	}
1898:SRC/RTOS/tasks.c **** 	#endif
1899:SRC/RTOS/tasks.c **** 
1900:SRC/RTOS/tasks.c **** 	#if ( portUSING_MPU_WRAPPERS == 1 )
1901:SRC/RTOS/tasks.c **** 	{
1902:SRC/RTOS/tasks.c **** 		vPortStoreTaskMPUSettings( &( pxTCB->xMPUSettings ), xRegions, pxTCB->pxStack, usStackDepth );
1903:SRC/RTOS/tasks.c **** 	}
1904:SRC/RTOS/tasks.c **** 	#else
1905:SRC/RTOS/tasks.c **** 	{
1906:SRC/RTOS/tasks.c **** 		( void ) xRegions;
1907:SRC/RTOS/tasks.c **** 		( void ) usStackDepth;
1908:SRC/RTOS/tasks.c **** 	}
1909:SRC/RTOS/tasks.c **** 	#endif
1910:SRC/RTOS/tasks.c **** }
 2505              		r3, [sp, #0]	@ tmp142, uxPriority
 2506 184c 14D08DE2 	.L211:
 2507 1850 04E09DE4 		ldr	r3, [sp, #0]	@ tmp143, uxPriority
 2508 1854 1EFF2FE1 		cmp	r3, #3	@ tmp143,
 2509              		bls	.L212	@,
 2510              		.loc 1 1941 0
 2511              		ldr	r0, .L214+4	@,
 2512              		bl	vListInitialise	@
 2513              		.loc 1 1942 0
 2514              		ldr	r0, .L214+8	@,
1911:SRC/RTOS/tasks.c **** /*-----------------------------------------------------------*/
1912:SRC/RTOS/tasks.c **** 
1913:SRC/RTOS/tasks.c **** #if ( portUSING_MPU_WRAPPERS == 1 )
1914:SRC/RTOS/tasks.c **** 
1915:SRC/RTOS/tasks.c **** 	void vTaskAllocateMPURegions( xTaskHandle xTaskToModify, const xMemoryRegion * const xRegions )
1916:SRC/RTOS/tasks.c **** 	{
1917:SRC/RTOS/tasks.c **** 	tskTCB *pxTCB;
1918:SRC/RTOS/tasks.c **** 
1919:SRC/RTOS/tasks.c **** 		if( xTaskToModify == pxCurrentTCB )
1920:SRC/RTOS/tasks.c **** 		{
1921:SRC/RTOS/tasks.c **** 			xTaskToModify = NULL;
1922:SRC/RTOS/tasks.c **** 		}
1923:SRC/RTOS/tasks.c **** 
1924:SRC/RTOS/tasks.c **** 		/* If null is passed in here then we are deleting ourselves. */
1925:SRC/RTOS/tasks.c **** 		pxTCB = prvGetTCBFromHandle( xTaskToModify );
1926:SRC/RTOS/tasks.c **** 
1927:SRC/RTOS/tasks.c ****         vPortStoreTaskMPUSettings( &( pxTCB->xMPUSettings ), xRegions, NULL, 0 );
ARM GAS  C:\DOCUME~1\ZAQUAD~1\USTAWI~1\Temp/ccIVGP1b.s 			page 79


1928:SRC/RTOS/tasks.c **** 	}
1929:SRC/RTOS/tasks.c **** 	/*-----------------------------------------------------------*/
1930:SRC/RTOS/tasks.c **** #endif
1931:SRC/RTOS/tasks.c **** 
1932:SRC/RTOS/tasks.c **** static void prvInitialiseTaskLists( void )
1933:SRC/RTOS/tasks.c **** {
 2515              	nitialise	@
 2516              		.loc 1 1943 0
 2517              		ldr	r0, .L214+12	@,
 2518              		bl	vListInitialise	@
 2519 1858 04E02DE5 		.loc 1 1947 0
 2520              		ldr	r0, .L214+16	@,
 2521 185c 04D04DE2 		bl	vListInitialise	@
 2522              		.loc 1 1953 0
1934:SRC/RTOS/tasks.c **** unsigned portBASE_TYPE uxPriority;
1935:SRC/RTOS/tasks.c **** 
1936:SRC/RTOS/tasks.c **** 	for( uxPriority = 0; uxPriority < configMAX_PRIORITIES; uxPriority++ )
 2523              	 .L214+20	@,
 2524 1860 0030A0E3 		bl	vListInitialise	@
 2525 1864 00308DE5 		.loc 1 1959 0
 2526 1868 0A0000EA 		ldr	r2, .L214+24	@ tmp144,
 2527              		ldr	r3, .L214+4	@ tmp145,
1937:SRC/RTOS/tasks.c **** 	{
1938:SRC/RTOS/tasks.c **** 		vListInitialise( ( xList * ) &( pxReadyTasksLists[ uxPriority ] ) );
 2528              	r3, [r2, #0]	@ tmp145, pxDelayedTaskList
 2529 186c 00309DE5 		.loc 1 1960 0
 2530 1870 0321A0E1 		ldr	r2, .L214+28	@ tmp146,
 2531 1874 0231A0E1 		ldr	r3, .L214+8	@ tmp147,
 2532 1878 032082E0 		str	r3, [r2, #0]	@ tmp147, pxOverflowDelayedTaskList
 2533 187c 6C309FE5 		.loc 1 1961 0
 2534 1880 033082E0 		add	sp, sp, #4	@,,
 2535 1884 0300A0E1 		ldr	lr, [sp], #4
 2536 1888 FEFFFFEB 		bx	lr
 2537              	.L215:
 2538 188c 00309DE5 		.align	2
 2539 1890 013083E2 	.L214:
 2540 1894 00308DE5 		.word	pxReadyTasksLists
 2541              		.word	xDelayedTaskList1
 2542 1898 00309DE5 		.word	xDelayedTaskList2
 2543 189c 030053E3 		.word	xPendingReadyList
 2544 18a0 F1FFFF9A 		.word	xTasksWaitingTermination
1939:SRC/RTOS/tasks.c **** 	}
1940:SRC/RTOS/tasks.c **** 
1941:SRC/RTOS/tasks.c **** 	vListInitialise( ( xList * ) &xDelayedTaskList1 );
 2545              	TaskList
 2546 18a4 48009FE5 		.word	pxDelayedTaskList
 2547 18a8 FEFFFFEB 		.word	pxOverflowDelayedTaskList
1942:SRC/RTOS/tasks.c **** 	vListInitialise( ( xList * ) &xDelayedTaskList2 );
 2548              	E30:
 2549 18ac 44009FE5 		.size	prvInitialiseTaskLists, .-prvInitialiseTaskLists
 2550 18b0 FEFFFFEB 		.align	2
1943:SRC/RTOS/tasks.c **** 	vListInitialise( ( xList * ) &xPendingReadyList );
 2551              	ype	prvCheckTasksWaitingTermination, %function
 2552 18b4 40009FE5 	prvCheckTasksWaitingTermination:
 2553 18b8 FEFFFFEB 	.LFB31:
1944:SRC/RTOS/tasks.c **** 
1945:SRC/RTOS/tasks.c **** 	#if ( INCLUDE_vTaskDelete == 1 )
ARM GAS  C:\DOCUME~1\ZAQUAD~1\USTAWI~1\Temp/ccIVGP1b.s 			page 80


1946:SRC/RTOS/tasks.c **** 	{
1947:SRC/RTOS/tasks.c **** 		vListInitialise( ( xList * ) &xTasksWaitingTermination );
 2554              	oc 1 1965 0
 2555 18bc 3C009FE5 		@ Function supports interworking.
 2556 18c0 FEFFFFEB 		@ args = 0, pretend = 0, frame = 12
1948:SRC/RTOS/tasks.c **** 	}
1949:SRC/RTOS/tasks.c **** 	#endif
1950:SRC/RTOS/tasks.c **** 
1951:SRC/RTOS/tasks.c **** 	#if ( INCLUDE_vTaskSuspend == 1 )
1952:SRC/RTOS/tasks.c **** 	{
1953:SRC/RTOS/tasks.c **** 		vListInitialise( ( xList * ) &xSuspendedTaskList );
 2557              	frame_needed = 0, uses_anonymous_args = 0
 2558 18c4 38009FE5 		str	lr, [sp, #-4]!	@,
 2559 18c8 FEFFFFEB 	.LCFI48:
1954:SRC/RTOS/tasks.c **** 	}
1955:SRC/RTOS/tasks.c **** 	#endif
1956:SRC/RTOS/tasks.c **** 
1957:SRC/RTOS/tasks.c **** 	/* Start with pxDelayedTaskList using list1 and the pxOverflowDelayedTaskList
1958:SRC/RTOS/tasks.c **** 	using list2. */
1959:SRC/RTOS/tasks.c **** 	pxDelayedTaskList = &xDelayedTaskList1;
 2560              	b	sp, sp, #12	@,,
 2561 18cc 34209FE5 	.LCFI49:
 2562 18d0 1C309FE5 	.LBB7:
 2563 18d4 003082E5 		.loc 1 1972 0
1960:SRC/RTOS/tasks.c **** 	pxOverflowDelayedTaskList = &xDelayedTaskList2;
 2564              		r3, .L221	@ tmp146,
 2565 18d8 2C209FE5 		ldr	r3, [r3, #0]	@ uxTasksDeleted.148, uxTasksDeleted
 2566 18dc 14309FE5 		cmp	r3, #0	@ uxTasksDeleted.148,
 2567 18e0 003082E5 		beq	.L220	@,
1961:SRC/RTOS/tasks.c **** }
 2568              	c 1 1974 0
 2569 18e4 04D08DE2 		bl	vTaskSuspendAll	@
 2570 18e8 04E09DE4 		.loc 1 1975 0
 2571 18ec 1EFF2FE1 		ldr	r3, .L221+4	@ tmp147,
 2572              		ldr	r3, [r3, #0]	@ D.4183, xTasksWaitingTermination.uxNumberOfItems
 2573              		cmp	r3, #0	@ D.4183,
 2574              		movne	r3, #0	@, tmp148
 2575 18f0 34000000 		moveq	r3, #1	@, tmp148
 2576 18f4 84000000 		str	r3, [sp, #4]	@ tmp148, xListIsEmpty
 2577 18f8 98000000 		.loc 1 1976 0
 2578 18fc B4000000 		bl	xTaskResumeAll	@
 2579 1900 C8000000 		.loc 1 1978 0
 2580 1904 DC000000 		ldr	r3, [sp, #4]	@ tmp149, xListIsEmpty
 2581 1908 AC000000 		cmp	r3, #0	@ tmp149,
 2582 190c B0000000 		bne	.L220	@,
 2583              	.LBB8:
 2584              		.loc 1 1982 0
 2585              		bl	vPortEnterCritical	@
 2586              		.loc 1 1984 0
 2587              		ldr	r3, .L221+4	@ xTasksWaitingTermination.150,
 2588              		ldr	r3, [r3, #0]	@ D.4186, <variable>.uxNumberOfItems
1962:SRC/RTOS/tasks.c **** /*-----------------------------------------------------------*/
1963:SRC/RTOS/tasks.c **** 
1964:SRC/RTOS/tasks.c **** static void prvCheckTasksWaitingTermination( void )
1965:SRC/RTOS/tasks.c **** {
 2589              	
 2590              		beq	.L218	@,
ARM GAS  C:\DOCUME~1\ZAQUAD~1\USTAWI~1\Temp/ccIVGP1b.s 			page 81


 2591              		ldr	r3, .L221+8	@ D.4187,
 2592              		ldr	r3, [r3, #4]	@ D.4188, <variable>.pxNext
 2593 1910 04E02DE5 		ldr	r3, [r3, #12]	@ D.4189, <variable>.pvOwner
 2594              		str	r3, [sp, #0]	@ D.4189, iftmp.149
 2595 1914 0CD04DE2 		b	.L219	@
 2596              	.L218:
 2597              		mov	r3, #0	@,
1966:SRC/RTOS/tasks.c **** 	#if ( INCLUDE_vTaskDelete == 1 )
1967:SRC/RTOS/tasks.c **** 	{
1968:SRC/RTOS/tasks.c **** 		portBASE_TYPE xListIsEmpty;
1969:SRC/RTOS/tasks.c **** 
1970:SRC/RTOS/tasks.c **** 		/* ucTasksDeleted is used to prevent vTaskSuspendAll() being called
1971:SRC/RTOS/tasks.c **** 		too often in the idle task. */
1972:SRC/RTOS/tasks.c **** 		if( uxTasksDeleted > ( unsigned portBASE_TYPE ) 0 )
 2598              	 [sp, #0]	@, iftmp.149
 2599 1918 BC309FE5 	.L219:
 2600 191c 003093E5 		ldr	r3, [sp, #0]	@, iftmp.149
 2601 1920 000053E3 		str	r3, [sp, #8]	@, pxTCB
 2602 1924 2900000A 		.loc 1 1985 0
1973:SRC/RTOS/tasks.c **** 		{
1974:SRC/RTOS/tasks.c **** 			vTaskSuspendAll();
 2603              	r3, [sp, #8]	@ tmp150, pxTCB
 2604 1928 FEFFFFEB 		add	r3, r3, #4	@ D.4190, tmp150,
1975:SRC/RTOS/tasks.c **** 				xListIsEmpty = listLIST_IS_EMPTY( &xTasksWaitingTermination );
 2605              	ov	r0, r3	@, D.4190
 2606 192c AC309FE5 		bl	vListRemove	@
 2607 1930 003093E5 		.loc 1 1986 0
 2608 1934 000053E3 		ldr	r3, .L221+12	@ tmp151,
 2609 1938 0030A013 		ldr	r3, [r3, #0]	@ uxCurrentNumberOfTasks.151, uxCurrentNumberOfTasks
 2610 193c 0130A003 		sub	r2, r3, #1	@ uxCurrentNumberOfTasks.152, uxCurrentNumberOfTasks.151,
 2611 1940 04308DE5 		ldr	r3, .L221+12	@ tmp152,
1976:SRC/RTOS/tasks.c **** 			xTaskResumeAll();
 2612              	, [r3, #0]	@ uxCurrentNumberOfTasks.152, uxCurrentNumberOfTasks
 2613 1944 FEFFFFEB 		.loc 1 1987 0
1977:SRC/RTOS/tasks.c **** 
1978:SRC/RTOS/tasks.c **** 			if( !xListIsEmpty )
 2614              	dr	r3, .L221	@ tmp153,
 2615 1948 04309DE5 		ldr	r3, [r3, #0]	@ uxTasksDeleted.153, uxTasksDeleted
 2616 194c 000053E3 		sub	r2, r3, #1	@ uxTasksDeleted.154, uxTasksDeleted.153,
 2617 1950 1E00001A 		ldr	r3, .L221	@ tmp154,
 2618              		str	r2, [r3, #0]	@ uxTasksDeleted.154, uxTasksDeleted
1979:SRC/RTOS/tasks.c **** 			{
1980:SRC/RTOS/tasks.c **** 				tskTCB *pxTCB;
1981:SRC/RTOS/tasks.c **** 
1982:SRC/RTOS/tasks.c **** 				portENTER_CRITICAL();
 2619              	 1 1989 0
 2620 1954 FEFFFFEB 		bl	vPortExitCritical	@
1983:SRC/RTOS/tasks.c **** 				{
1984:SRC/RTOS/tasks.c **** 					pxTCB = ( tskTCB * ) listGET_OWNER_OF_HEAD_ENTRY( ( ( xList * ) &xTasksWaitingTermination ) );
 2621              	loc 1 1991 0
 2622 1958 80309FE5 		ldr	r0, [sp, #8]	@, pxTCB
 2623 195c 003093E5 		bl	prvDeleteTCB	@
 2624 1960 000053E3 	.L220:
 2625 1964 0400000A 	.LBE8:
 2626 1968 74309FE5 	.LBE7:
 2627 196c 043093E5 		.loc 1 1996 0
 2628 1970 0C3093E5 		add	sp, sp, #12	@,,
ARM GAS  C:\DOCUME~1\ZAQUAD~1\USTAWI~1\Temp/ccIVGP1b.s 			page 82


 2629 1974 00308DE5 		ldr	lr, [sp], #4
 2630 1978 010000EA 		bx	lr
 2631              	.L222:
 2632 197c 0030A0E3 		.align	2
 2633 1980 00308DE5 	.L221:
 2634              		.word	uxTasksDeleted
 2635 1984 00309DE5 		.word	xTasksWaitingTermination
 2636 1988 08308DE5 		.word	xTasksWaitingTermination+8
1985:SRC/RTOS/tasks.c **** 					vListRemove( &( pxTCB->xGenericListItem ) );
 2637              	NumberOfTasks
 2638 198c 08309DE5 	.LFE31:
 2639 1990 043083E2 		.size	prvCheckTasksWaitingTermination, .-prvCheckTasksWaitingTermination
 2640 1994 0300A0E1 		.align	2
 2641 1998 FEFFFFEB 		.type	prvAllocateTCBAndStack, %function
1986:SRC/RTOS/tasks.c **** 					--uxCurrentNumberOfTasks;
 2642              	locateTCBAndStack:
 2643 199c 44309FE5 	.LFB32:
 2644 19a0 003093E5 		.loc 1 2000 0
 2645 19a4 012043E2 		@ Function supports interworking.
 2646 19a8 38309FE5 		@ args = 0, pretend = 0, frame = 12
 2647 19ac 002083E5 		@ frame_needed = 0, uses_anonymous_args = 0
1987:SRC/RTOS/tasks.c **** 					--uxTasksDeleted;
 2648              	r, [sp, #-4]!	@,
 2649 19b0 24309FE5 	.LCFI50:
 2650 19b4 003093E5 		sub	sp, sp, #12	@,,
 2651 19b8 012043E2 	.LCFI51:
 2652 19bc 18309FE5 		mov	r3, r0	@ tmp144, usStackDepth
 2653 19c0 002083E5 		str	r1, [sp, #0]	@ puxStackBuffer, puxStackBuffer
1988:SRC/RTOS/tasks.c **** 				}
1989:SRC/RTOS/tasks.c **** 				portEXIT_CRITICAL();
 2654              	r3, [sp, #4]	@ movhi	@ tmp144, usStackDepth
 2655 19c4 FEFFFFEB 		.loc 1 2005 0
1990:SRC/RTOS/tasks.c **** 
1991:SRC/RTOS/tasks.c **** 				prvDeleteTCB( pxTCB );
 2656              	ov	r0, #72	@,
 2657 19c8 08009DE5 		bl	pvPortMalloc	@
 2658 19cc 9F0000EB 		mov	r3, r0	@ D.4207,
 2659              		str	r3, [sp, #8]	@ D.4207, pxNewTCB
 2660              		.loc 1 2007 0
 2661              		ldr	r3, [sp, #8]	@ tmp145, pxNewTCB
1992:SRC/RTOS/tasks.c **** 			}
1993:SRC/RTOS/tasks.c **** 		}
1994:SRC/RTOS/tasks.c **** 	}
1995:SRC/RTOS/tasks.c **** 	#endif
1996:SRC/RTOS/tasks.c **** }
 2662              	3, #0	@ tmp145,
 2663 19d0 0CD08DE2 		beq	.L224	@,
 2664 19d4 04E09DE4 		.loc 1 2012 0
 2665 19d8 1EFF2FE1 		ldrh	r3, [sp, #4]	@ D.4208, usStackDepth
 2666              		mov	r3, r3, asl #2	@ D.4209, D.4208,
 2667              		mov	r0, r3	@, D.4209
 2668              		bl	pvPortMalloc	@
 2669 19dc 04000000 		mov	r3, r0	@ D.4210,
 2670 19e0 C8000000 		mov	r2, r3	@ D.4211, D.4210
 2671 19e4 D0000000 		ldr	r3, [sp, #8]	@ tmp146, pxNewTCB
 2672 19e8 08000000 		str	r2, [r3, #48]	@ D.4211, <variable>.pxStack
 2673              		.loc 1 2014 0
ARM GAS  C:\DOCUME~1\ZAQUAD~1\USTAWI~1\Temp/ccIVGP1b.s 			page 83


 2674              		ldr	r3, [sp, #8]	@ tmp147, pxNewTCB
 2675              		ldr	r3, [r3, #48]	@ D.4212, <variable>.pxStack
 2676              		cmp	r3, #0	@ D.4212,
 2677              		bne	.L225	@,
 2678              		.loc 1 2017 0
1997:SRC/RTOS/tasks.c **** /*-----------------------------------------------------------*/
1998:SRC/RTOS/tasks.c **** 
1999:SRC/RTOS/tasks.c **** static tskTCB *prvAllocateTCBAndStack( unsigned short usStackDepth, portSTACK_TYPE *puxStackBuffer 
2000:SRC/RTOS/tasks.c **** {
 2679              		@, pxNewTCB
 2680              		bl	vPortFree	@
 2681              		.loc 1 2018 0
 2682              		mov	r3, #0	@ tmp148,
 2683 19ec 04E02DE5 		str	r3, [sp, #8]	@ tmp148, pxNewTCB
 2684              		b	.L224	@
 2685 19f0 0CD04DE2 	.L225:
 2686              		.loc 1 2023 0
 2687 19f4 0030A0E1 		ldr	r3, [sp, #8]	@ tmp149, pxNewTCB
 2688 19f8 00108DE5 		ldr	r2, [r3, #48]	@ D.4213, <variable>.pxStack
 2689 19fc B430CDE1 		ldrh	r3, [sp, #4]	@ D.4214, usStackDepth
2001:SRC/RTOS/tasks.c **** tskTCB *pxNewTCB;
2002:SRC/RTOS/tasks.c **** 
2003:SRC/RTOS/tasks.c **** 	/* Allocate space for the TCB.  Where the memory comes from depends on
2004:SRC/RTOS/tasks.c **** 	the implementation of the port malloc function. */
2005:SRC/RTOS/tasks.c **** 	pxNewTCB = ( tskTCB * ) pvPortMalloc( sizeof( tskTCB ) );
 2690              	, asl #2	@ D.4215, D.4214,
 2691 1a00 4800A0E3 		mov	r0, r2	@, D.4213
 2692 1a04 FEFFFFEB 		mov	r1, #165	@,
 2693 1a08 0030A0E1 		mov	r2, r3	@, D.4215
 2694 1a0c 08308DE5 		bl	memset	@
2006:SRC/RTOS/tasks.c **** 
2007:SRC/RTOS/tasks.c **** 	if( pxNewTCB != NULL )
 2695              	:
 2696 1a10 08309DE5 		.loc 1 2027 0
 2697 1a14 000053E3 		ldr	r3, [sp, #8]	@ D.4216, pxNewTCB
 2698 1a18 1800000A 		.loc 1 2028 0
2008:SRC/RTOS/tasks.c **** 	{
2009:SRC/RTOS/tasks.c **** 		/* Allocate space for the stack used by the task being created.
2010:SRC/RTOS/tasks.c **** 		The base of the stack memory stored in the TCB so the task can
2011:SRC/RTOS/tasks.c **** 		be deleted later if required. */
2012:SRC/RTOS/tasks.c **** 		pxNewTCB->pxStack = ( portSTACK_TYPE * ) pvPortMallocAligned( ( ( ( size_t )usStackDepth ) * size
 2699              		r0, r3	@, <result>
 2700 1a1c B430DDE1 		add	sp, sp, #12	@,,
 2701 1a20 0331A0E1 		ldr	lr, [sp], #4
 2702 1a24 0300A0E1 		bx	lr
 2703 1a28 FEFFFFEB 	.LFE32:
 2704 1a2c 0030A0E1 		.size	prvAllocateTCBAndStack, .-prvAllocateTCBAndStack
 2705 1a30 0320A0E1 		.section	.rodata
 2706 1a34 08309DE5 		.align	2
 2707 1a38 302083E5 	.LC2:
2013:SRC/RTOS/tasks.c **** 
2014:SRC/RTOS/tasks.c **** 		if( pxNewTCB->pxStack == NULL )
 2708              	%s\011\011%c\011%u\011%u\011%u\015\012\000"
 2709 1a3c 08309DE5 		.text
 2710 1a40 303093E5 		.align	2
 2711 1a44 000053E3 		.type	prvListTaskWithinSingleList, %function
 2712 1a48 0400001A 	prvListTaskWithinSingleList:
ARM GAS  C:\DOCUME~1\ZAQUAD~1\USTAWI~1\Temp/ccIVGP1b.s 			page 84


2015:SRC/RTOS/tasks.c **** 		{
2016:SRC/RTOS/tasks.c **** 			/* Could not allocate the stack.  Delete the allocated TCB. */
2017:SRC/RTOS/tasks.c **** 			vPortFree( pxNewTCB );
 2713              	3:
 2714 1a4c 08009DE5 		.loc 1 2034 0
 2715 1a50 FEFFFFEB 		@ Function supports interworking.
2018:SRC/RTOS/tasks.c **** 			pxNewTCB = NULL;
 2716              	args = 0, pretend = 0, frame = 32
 2717 1a54 0030A0E3 		@ frame_needed = 0, uses_anonymous_args = 0
 2718 1a58 08308DE5 		stmfd	sp!, {r4, lr}	@,
 2719 1a5c 070000EA 	.LCFI52:
 2720              		sub	sp, sp, #44	@,,
2019:SRC/RTOS/tasks.c **** 		}
2020:SRC/RTOS/tasks.c **** 		else
2021:SRC/RTOS/tasks.c **** 		{
2022:SRC/RTOS/tasks.c **** 			/* Just to help debugging. */
2023:SRC/RTOS/tasks.c **** 			memset( pxNewTCB->pxStack, tskSTACK_FILL_BYTE, usStackDepth * sizeof( portSTACK_TYPE ) );
 2721              	53:
 2722 1a60 08309DE5 		str	r0, [sp, #20]	@ pcWriteBuffer, pcWriteBuffer
 2723 1a64 302093E5 		str	r1, [sp, #16]	@ pxList, pxList
 2724 1a68 B430DDE1 		mov	r3, r2	@ tmp160, cStatus
 2725 1a6c 0331A0E1 		strb	r3, [sp, #12]	@ tmp161, cStatus
 2726 1a70 0200A0E1 	.LBB9:
 2727 1a74 A510A0E3 		.loc 1 2039 0
 2728 1a78 0320A0E1 		ldr	r3, [sp, #16]	@ tmp162, pxList
 2729 1a7c FEFFFFEB 		str	r3, [sp, #36]	@ tmp162, pxConstList
 2730              		ldr	r3, [sp, #36]	@ tmp163, pxConstList
2024:SRC/RTOS/tasks.c **** 		}
2025:SRC/RTOS/tasks.c **** 	}
2026:SRC/RTOS/tasks.c **** 
2027:SRC/RTOS/tasks.c **** 	return pxNewTCB;
 2731              	r3, #4]	@ D.4235, <variable>.pxIndex
 2732 1a80 08309DE5 		ldr	r2, [r3, #4]	@ D.4236, <variable>.pxNext
2028:SRC/RTOS/tasks.c **** }
 2733              	dr	r3, [sp, #36]	@ tmp164, pxConstList
 2734 1a84 0300A0E1 		str	r2, [r3, #4]	@ D.4236, <variable>.pxIndex
 2735 1a88 0CD08DE2 		ldr	r3, [sp, #36]	@ tmp165, pxConstList
 2736 1a8c 04E09DE4 		ldr	r2, [r3, #4]	@ D.4237, <variable>.pxIndex
 2737 1a90 1EFF2FE1 		ldr	r3, [sp, #36]	@ tmp166, pxConstList
 2738              		add	r3, r3, #8	@ D.4238, tmp166,
 2739              		cmp	r2, r3	@ D.4237, D.4239
 2740              		bne	.L228	@,
 2741 000b 00       		ldr	r3, [sp, #36]	@ tmp167, pxConstList
 2742              		ldr	r3, [r3, #4]	@ D.4240, <variable>.pxIndex
 2743 000c 25730909 		ldr	r2, [r3, #4]	@ D.4241, <variable>.pxNext
 2743      25630925 
 2743      75092575 
 2743      0925750D 
 2743      0A00
 2744 001e 0000     		ldr	r3, [sp, #36]	@ tmp168, pxConstList
 2745              		str	r2, [r3, #4]	@ D.4241, <variable>.pxIndex
 2746              	.L228:
 2747              		ldr	r3, [sp, #36]	@ tmp169, pxConstList
 2748              		ldr	r3, [r3, #4]	@ D.4242, <variable>.pxIndex
2029:SRC/RTOS/tasks.c **** /*-----------------------------------------------------------*/
2030:SRC/RTOS/tasks.c **** 
2031:SRC/RTOS/tasks.c **** #if ( configUSE_TRACE_FACILITY == 1 )
ARM GAS  C:\DOCUME~1\ZAQUAD~1\USTAWI~1\Temp/ccIVGP1b.s 			page 85


2032:SRC/RTOS/tasks.c **** 
2033:SRC/RTOS/tasks.c **** 	static void prvListTaskWithinSingleList( const signed char *pcWriteBuffer, xList *pxList, signed c
2034:SRC/RTOS/tasks.c **** 	{
 2749              	2]	@ D.4243, <variable>.pvOwner
 2750              		str	r3, [sp, #28]	@ D.4243, pxFirstTCB
 2751              	.L230:
 2752              	.LBE9:
 2753 1a94 10402DE9 	.LBB10:
 2754              		.loc 1 2042 0
